---
triple:          'x86_64-apple-darwin'
binary-path:     '/Users/william/Library/Developer/Xcode/DerivedData/LiveTranscriber-hfmfxssyfeuvwueogfhaorpbsagw/whisper-pinned/build-ios-sim/framework/whisper.framework/whisper'
relocations:
  - { offset: 0x52, size: 0x8, addend: 0x0, symName: __ZL16ASR_TENSOR_NAMES, symObjAddr: 0x539F60, symBinAddr: 0x290D70, symSize: 0x0 }
  - { offset: 0x11C04, size: 0x8, addend: 0x0, symName: __ZNSt3__1L19piecewise_constructE, symObjAddr: 0x4CF2C, symBinAddr: 0x1CB18C, symSize: 0x0 }
  - { offset: 0x51EBE, size: 0x8, addend: 0x0, symName: '__ZNSt3__111__introsortINS_17_ClassicAlgPolicyERZL11whisper_vadP15whisper_contextP13whisper_state19whisper_full_paramsPKfiRNS_6vectorIfNS_9allocatorIfEEEEE3$_0P16vad_time_mappingLb0EEEvT1_SI_T0_NS_15iterator_traitsISI_E15difference_typeEb', symObjAddr: 0x38E50, symBinAddr: 0x39D70, symSize: 0xBB0 }
  - { offset: 0x53AA6, size: 0x8, addend: 0x0, symName: '__ZNSt3__127__insertion_sort_incompleteB9nqe220106INS_17_ClassicAlgPolicyERZL11whisper_vadP15whisper_contextP13whisper_state19whisper_full_paramsPKfiRNS_6vectorIfNS_9allocatorIfEEEEE3$_0P16vad_time_mappingEEbT1_SI_T0_', symObjAddr: 0x39B60, symBinAddr: 0x3AA80, symSize: 0x350 }
  - { offset: 0x56625, size: 0x8, addend: 0x0, symName: '__ZNSt3__111__introsortINS_17_ClassicAlgPolicyERZ35whisper_lang_auto_detect_with_stateE3$_0P12whisper_pairIdiELb0EEEvT1_S7_T0_NS_15iterator_traitsIS7_E15difference_typeEb', symObjAddr: 0x3C290, symBinAddr: 0x3D1B0, symSize: 0xEB0 }
  - { offset: 0x58235, size: 0x8, addend: 0x0, symName: '__ZNSt3__127__insertion_sort_incompleteB9nqe220106INS_17_ClassicAlgPolicyERZ35whisper_lang_auto_detect_with_stateE3$_0P12whisper_pairIdiEEEbT1_S7_T0_', symObjAddr: 0x3D360, symBinAddr: 0x3E280, symSize: 0x480 }
  - { offset: 0x5CB42, size: 0x8, addend: 0x0, symName: '__ZNSt3__111__introsortINS_17_ClassicAlgPolicyERZ23whisper_full_with_stateE3$_1PZ23whisper_full_with_stateE14beam_candidateLb0EEEvT1_S6_T0_NS_15iterator_traitsIS6_E15difference_typeEb', symObjAddr: 0x3E8F0, symBinAddr: 0x3F810, symSize: 0x2720 }
  - { offset: 0x6362F, size: 0x8, addend: 0x0, symName: '__ZNSt3__127__insertion_sort_incompleteB9nqe220106INS_17_ClassicAlgPolicyERZ23whisper_full_with_stateE3$_1PZ23whisper_full_with_stateE14beam_candidateEEbT1_S6_T0_', symObjAddr: 0x412A0, symBinAddr: 0x421C0, symSize: 0x640 }
  - { offset: 0x6847C, size: 0x8, addend: 0x0, symName: __ZNSt3__120__throw_out_of_rangeB9nqe220106EPKc, symObjAddr: 0x208C0, symBinAddr: 0x217E0, symSize: 0x50 }
  - { offset: 0x68715, size: 0x8, addend: 0x0, symName: __ZNSt3__125__throw_bad_function_callB9nqe220106Ev, symObjAddr: 0x20BA0, symBinAddr: 0x21AC0, symSize: 0x40 }
  - { offset: 0x6912C, size: 0x8, addend: 0x0, symName: __ZNSt3__127__tree_balance_after_insertB9nqe220106IPNS_16__tree_node_baseIPvEEEEvT_S5_, symObjAddr: 0x21970, symBinAddr: 0x22890, symSize: 0x190 }
  - { offset: 0x69E3B, size: 0x8, addend: 0x0, symName: __ZNSt3__113__tree_removeB9nqe220106IPNS_16__tree_node_baseIPvEEEEvT_S5_, symObjAddr: 0x247B0, symBinAddr: 0x256D0, symSize: 0x370 }
  - { offset: 0x70CBB, size: 0x8, addend: 0x0, symName: __ZNSt3__111regex_matchB9nqe220106INS_11__wrap_iterIPKcEEcNS_12regex_traitsIcEEEEbT_S7_RKNS_11basic_regexIT0_T1_EENS_15regex_constants15match_flag_typeE, symObjAddr: 0x35AB0, symBinAddr: 0x369D0, symSize: 0x170 }
  - { offset: 0x73829, size: 0x8, addend: 0x0, symName: __ZNSt3__120__throw_length_errorB9nqe220106EPKc, symObjAddr: 0x203F0, symBinAddr: 0x21310, symSize: 0x50 }
  - { offset: 0x74BF5, size: 0x8, addend: 0x0, symName: __ZNSt3__114__thread_proxyB9nqe220106INS_5tupleIJNS_10unique_ptrINS_15__thread_structENS_14default_deleteIS3_EEEEPFviPKfRKNS_6vectorIfNS_9allocatorIfEEEEiiiiRK15whisper_filtersR11whisper_melEiS8_NS_17reference_wrapperISD_EExiiiNSM_ISG_EENSM_ISI_EEEEEEEPvSR_, symObjAddr: 0x23B00, symBinAddr: 0x24A20, symSize: 0xA0 }
  - { offset: 0x750B5, size: 0x8, addend: 0x0, symName: __ZNSt3__119__throw_regex_errorB9nqe220106ILNS_15regex_constants10error_typeE17EEEvv, symObjAddr: 0x25C10, symBinAddr: 0x26B30, symSize: 0x50 }
  - { offset: 0x75514, size: 0x8, addend: 0x0, symName: __ZNSt3__119__throw_regex_errorB9nqe220106ILNS_15regex_constants10error_typeE14EEEvv, symObjAddr: 0x26550, symBinAddr: 0x27470, symSize: 0x50 }
  - { offset: 0x7553A, size: 0x8, addend: 0x0, symName: __ZNSt3__119__throw_regex_errorB9nqe220106ILNS_15regex_constants10error_typeE15EEEvv, symObjAddr: 0x2D940, symBinAddr: 0x2E860, symSize: 0x50 }
  - { offset: 0x757DE, size: 0x8, addend: 0x0, symName: __ZNSt3__119__throw_regex_errorB9nqe220106ILNS_15regex_constants10error_typeE6EEEvv, symObjAddr: 0x271E0, symBinAddr: 0x28100, symSize: 0x50 }
  - { offset: 0x75804, size: 0x8, addend: 0x0, symName: __ZNSt3__119__throw_regex_errorB9nqe220106ILNS_15regex_constants10error_typeE11EEEvv, symObjAddr: 0x28B80, symBinAddr: 0x29AA0, symSize: 0x50 }
  - { offset: 0x75848, size: 0x8, addend: 0x0, symName: __ZNSt3__119__throw_regex_errorB9nqe220106ILNS_15regex_constants10error_typeE8EEEvv, symObjAddr: 0x2D2B0, symBinAddr: 0x2E1D0, symSize: 0x50 }
  - { offset: 0x7586E, size: 0x8, addend: 0x0, symName: __ZNSt3__119__throw_regex_errorB9nqe220106ILNS_15regex_constants10error_typeE7EEEvv, symObjAddr: 0x2D300, symBinAddr: 0x2E220, symSize: 0x50 }
  - { offset: 0x75A9C, size: 0x8, addend: 0x0, symName: __ZNSt3__119__throw_regex_errorB9nqe220106ILNS_15regex_constants10error_typeE12EEEvv, symObjAddr: 0x28290, symBinAddr: 0x291B0, symSize: 0x50 }
  - { offset: 0x75AC2, size: 0x8, addend: 0x0, symName: __ZNSt3__119__throw_regex_errorB9nqe220106ILNS_15regex_constants10error_typeE16EEEvv, symObjAddr: 0x282E0, symBinAddr: 0x29200, symSize: 0x50 }
  - { offset: 0x76513, size: 0x8, addend: 0x0, symName: __ZNSt3__119__throw_regex_errorB9nqe220106ILNS_15regex_constants10error_typeE4EEEvv, symObjAddr: 0x29680, symBinAddr: 0x2A5A0, symSize: 0x50 }
  - { offset: 0x76539, size: 0x8, addend: 0x0, symName: __ZNSt3__119__throw_regex_errorB9nqe220106ILNS_15regex_constants10error_typeE3EEEvv, symObjAddr: 0x28DF0, symBinAddr: 0x29D10, symSize: 0x50 }
  - { offset: 0x7655F, size: 0x8, addend: 0x0, symName: __ZNSt3__119__throw_regex_errorB9nqe220106ILNS_15regex_constants10error_typeE5EEEvv, symObjAddr: 0x2B160, symBinAddr: 0x2C080, symSize: 0x50 }
  - { offset: 0x76E42, size: 0x8, addend: 0x0, symName: __ZNSt3__119__throw_regex_errorB9nqe220106ILNS_15regex_constants10error_typeE1EEEvv, symObjAddr: 0x2C4B0, symBinAddr: 0x2D3D0, symSize: 0x50 }
  - { offset: 0x76E68, size: 0x8, addend: 0x0, symName: __ZNSt3__119__throw_regex_errorB9nqe220106ILNS_15regex_constants10error_typeE2EEEvv, symObjAddr: 0x2CA40, symBinAddr: 0x2D960, symSize: 0x50 }
  - { offset: 0x76F0F, size: 0x8, addend: 0x0, symName: __ZNSt3__119__throw_regex_errorB9nqe220106ILNS_15regex_constants10error_typeE9EEEvv, symObjAddr: 0x2CD80, symBinAddr: 0x2DCA0, symSize: 0x50 }
  - { offset: 0x79308, size: 0x8, addend: 0x0, symName: __ZNSt3__135__uninitialized_allocator_copy_implB9nqe220106INS_9allocatorINS_6vectorI23whisper_grammar_elementNS1_IS3_EEEEEEPS5_S7_S7_EET2_RT_T0_T1_S8_, symObjAddr: 0x37AB0, symBinAddr: 0x389D0, symSize: 0x100 }
  - { offset: 0x7983E, size: 0x8, addend: 0x0, symName: __ZNSt3__135__uninitialized_allocator_copy_implB9nqe220106INS_9allocatorINS_6vectorIPK23whisper_grammar_elementNS1_IS5_EEEEEEPS7_S9_S9_EET2_RT_T0_T1_SA_, symObjAddr: 0x37C70, symBinAddr: 0x38B90, symSize: 0x100 }
  - { offset: 0x7AF14, size: 0x8, addend: 0x0, symName: '__ZNSt3__17__sort5B9nqe220106INS_17_ClassicAlgPolicyERZL11whisper_vadP15whisper_contextP13whisper_state19whisper_full_paramsPKfiRNS_6vectorIfNS_9allocatorIfEEEEE3$_0P16vad_time_mappingLi0EEEvT1_SI_SI_SI_SI_T0_', symObjAddr: 0x39A00, symBinAddr: 0x3A920, symSize: 0x160 }
  - { offset: 0x7CD34, size: 0x8, addend: 0x0, symName: '__ZNSt3__17__sort5B9nqe220106INS_17_ClassicAlgPolicyERZ35whisper_lang_auto_detect_with_stateE3$_0P12whisper_pairIdiELi0EEEvT1_S7_S7_S7_S7_T0_', symObjAddr: 0x3D140, symBinAddr: 0x3E060, symSize: 0x220 }
  - { offset: 0x7E0EF, size: 0x8, addend: 0x0, symName: '__ZNSt3__114__thread_proxyB9nqe220106INS_5tupleIJNS_10unique_ptrINS_15__thread_structENS_14default_deleteIS3_EEEEZ23whisper_full_with_stateE3$_0EEEEEPvS9_', symObjAddr: 0x3E820, symBinAddr: 0x3F740, symSize: 0x80 }
  - { offset: 0x7EBCD, size: 0x8, addend: 0x0, symName: '__ZNSt3__17__sort3B9nqe220106INS_17_ClassicAlgPolicyERZ23whisper_full_with_stateE3$_1PZ23whisper_full_with_stateE14beam_candidateLi0EEEbT1_S6_S6_T0_', symObjAddr: 0x41010, symBinAddr: 0x41F30, symSize: 0xF0 }
  - { offset: 0x7ED67, size: 0x8, addend: 0x0, symName: __ZNSt3__19iter_swapB9nqe220106IPZ23whisper_full_with_stateE14beam_candidateS2_EEvT_T0_, symObjAddr: 0x418E0, symBinAddr: 0x42800, symSize: 0x240 }
  - { offset: 0x7F6CE, size: 0x8, addend: 0x0, symName: '__ZNSt3__17__sort5B9nqe220106INS_17_ClassicAlgPolicyERZ23whisper_full_with_stateE3$_1PZ23whisper_full_with_stateE14beam_candidateLi0EEEvT1_S6_S6_S6_S6_T0_', symObjAddr: 0x41100, symBinAddr: 0x42020, symSize: 0x1A0 }
  - { offset: 0x7FA49, size: 0x8, addend: 0x0, symName: '__ZNSt3__114__thread_proxyB9nqe220106INS_5tupleIJNS_10unique_ptrINS_15__thread_structENS_14default_deleteIS3_EEEEZ23whisper_full_with_stateE3$_2EEEEEPvS9_', symObjAddr: 0x41B20, symBinAddr: 0x42A40, symSize: 0x100 }
  - { offset: 0x8030B, size: 0x8, addend: 0x0, symName: __ZNSt3__114__thread_proxyB9nqe220106INS_5tupleIJNS_10unique_ptrINS_15__thread_structENS_14default_deleteIS3_EEEEPFiP15whisper_contextP13whisper_state19whisper_full_paramsPKfiES8_SA_SB_SD_iEEEEEPvSH_, symObjAddr: 0x41EB0, symBinAddr: 0x42DD0, symSize: 0xB0 }
  - { offset: 0x80731, size: 0x8, addend: 0x0, symName: '__ZNSt3__114__thread_proxyB9nqe220106INS_5tupleIJNS_10unique_ptrINS_15__thread_structENS_14default_deleteIS3_EEEEZ24whisper_bench_memcpy_strE3$_0iEEEEEPvS9_', symObjAddr: 0x41FB0, symBinAddr: 0x42ED0, symSize: 0x180 }
  - { offset: 0x83191, size: 0x8, addend: 0x0, symName: __ZSt28__throw_bad_array_new_lengthB9nqe220106v, symObjAddr: 0x1F990, symBinAddr: 0x208B0, symSize: 0x40 }
  - { offset: 0x83817, size: 0x8, addend: 0x0, symName: __ZL15ASR_TENSOR_INFO, symObjAddr: 0x539F78, symBinAddr: 0x290D88, symSize: 0x0 }
  - { offset: 0x83C88, size: 0x8, addend: 0x0, symName: __ZL14VAD_TENSOR_OPS, symObjAddr: 0x539F90, symBinAddr: 0x290DA0, symSize: 0x0 }
  - { offset: 0x83F22, size: 0x8, addend: 0x0, symName: __ZL16VAD_TENSOR_NAMES, symObjAddr: 0x539FA8, symBinAddr: 0x290DB8, symSize: 0x0 }
  - { offset: 0x8413B, size: 0x8, addend: 0x0, symName: __ZL12g_model_name, symObjAddr: 0x539FC0, symBinAddr: 0x290DD0, symSize: 0x0 }
  - { offset: 0x844E4, size: 0x8, addend: 0x0, symName: __ZL6g_lang, symObjAddr: 0x539FD8, symBinAddr: 0x290DE8, symSize: 0x0 }
  - { offset: 0x8476B, size: 0x8, addend: 0x0, symName: __ZL8g_aheads, symObjAddr: 0x539FF0, symBinAddr: 0x290E00, symSize: 0x0 }
  - { offset: 0x84A6E, size: 0x8, addend: 0x0, symName: __ZN12_GLOBAL__N_112global_cacheE, symObjAddr: 0x53A008, symBinAddr: 0x290E18, symSize: 0x0 }
  - { offset: 0x84B1A, size: 0x8, addend: 0x0, symName: _whisper_print_system_info, symObjAddr: 0x9E60, symBinAddr: 0xAD80, symSize: 0x380 }
  - { offset: 0x84B42, size: 0x8, addend: 0x0, symName: __ZZ25whisper_print_system_infoE1s, symObjAddr: 0x53B2C8, symBinAddr: 0x2920D8, symSize: 0x0 }
  - { offset: 0x857DE, size: 0x8, addend: 0x0, symName: __ZL17non_speech_tokens, symObjAddr: 0x53B2E8, symBinAddr: 0x2920F8, symSize: 0x0 }
  - { offset: 0x8590C, size: 0x8, addend: 0x0, symName: _whisper_bench_memcpy_str, symObjAddr: 0x1E2D0, symBinAddr: 0x1F1F0, symSize: 0xD20 }
  - { offset: 0x85934, size: 0x8, addend: 0x0, symName: __ZZ24whisper_bench_memcpy_strE1s, symObjAddr: 0x53B300, symBinAddr: 0x292110, symSize: 0x0 }
  - { offset: 0x86818, size: 0x8, addend: 0x0, symName: _whisper_bench_ggml_mul_mat_str, symObjAddr: 0x1F010, symBinAddr: 0x1FF30, symSize: 0x810 }
  - { offset: 0x86840, size: 0x8, addend: 0x0, symName: __ZZ30whisper_bench_ggml_mul_mat_strE1s, symObjAddr: 0x53B320, symBinAddr: 0x292130, symSize: 0x0 }
  - { offset: 0x8781A, size: 0x8, addend: 0x0, symName: __ZL16g_aheads_tiny_en, symObjAddr: 0x4CAA0, symBinAddr: 0x1CAD00, symSize: 0x0 }
  - { offset: 0x87843, size: 0x8, addend: 0x0, symName: __ZL13g_aheads_tiny, symObjAddr: 0x4CAE0, symBinAddr: 0x1CAD40, symSize: 0x0 }
  - { offset: 0x8786C, size: 0x8, addend: 0x0, symName: __ZL16g_aheads_base_en, symObjAddr: 0x4CB10, symBinAddr: 0x1CAD70, symSize: 0x0 }
  - { offset: 0x87895, size: 0x8, addend: 0x0, symName: __ZL13g_aheads_base, symObjAddr: 0x4CB40, symBinAddr: 0x1CADA0, symSize: 0x0 }
  - { offset: 0x878B0, size: 0x8, addend: 0x0, symName: __ZL17g_aheads_small_en, symObjAddr: 0x4CB80, symBinAddr: 0x1CADE0, symSize: 0x0 }
  - { offset: 0x878D9, size: 0x8, addend: 0x0, symName: __ZL14g_aheads_small, symObjAddr: 0x4CC20, symBinAddr: 0x1CAE80, symSize: 0x0 }
  - { offset: 0x87902, size: 0x8, addend: 0x0, symName: __ZL18g_aheads_medium_en, symObjAddr: 0x4CC70, symBinAddr: 0x1CAED0, symSize: 0x0 }
  - { offset: 0x8792B, size: 0x8, addend: 0x0, symName: __ZL15g_aheads_medium, symObjAddr: 0x4CD00, symBinAddr: 0x1CAF60, symSize: 0x0 }
  - { offset: 0x87946, size: 0x8, addend: 0x0, symName: __ZL17g_aheads_large_v1, symObjAddr: 0x4CD30, symBinAddr: 0x1CAF90, symSize: 0x0 }
  - { offset: 0x8796F, size: 0x8, addend: 0x0, symName: __ZL17g_aheads_large_v2, symObjAddr: 0x4CD80, symBinAddr: 0x1CAFE0, symSize: 0x0 }
  - { offset: 0x87998, size: 0x8, addend: 0x0, symName: __ZL17g_aheads_large_v3, symObjAddr: 0x4CE40, symBinAddr: 0x1CB0A0, symSize: 0x0 }
  - { offset: 0x879B3, size: 0x8, addend: 0x0, symName: __ZL23g_aheads_large_v3_turbo, symObjAddr: 0x4CE90, symBinAddr: 0x1CB0F0, symSize: 0x0 }
  - { offset: 0x87A6E, size: 0x8, addend: 0x0, symName: __ZTVNSt3__117bad_function_callE, symObjAddr: 0x4BF88, symBinAddr: 0x1F6548, symSize: 0x0 }
  - { offset: 0x87D17, size: 0x8, addend: 0x0, symName: __ZL27whisper_build_graph_encoderR15whisper_contextR13whisper_state, symObjAddr: 0x23DF0, symBinAddr: 0x24D10, symSize: 0x640 }
  - { offset: 0x8872F, size: 0x8, addend: 0x0, symName: __ZTVNSt3__111__end_stateIcEE, symObjAddr: 0x4BFB0, symBinAddr: 0x1F6570, symSize: 0x0 }
  - { offset: 0x889A3, size: 0x8, addend: 0x0, symName: __ZTVNSt3__120__shared_ptr_pointerIPNS_13__empty_stateIcEENS_10shared_ptrIS2_E27__shared_ptr_default_deleteIS2_S2_EENS_9allocatorIS2_EEEE, symObjAddr: 0x4C008, symBinAddr: 0x1F65C8, symSize: 0x0 }
  - { offset: 0x88AA0, size: 0x8, addend: 0x0, symName: __ZTVNSt3__113__empty_stateIcEE, symObjAddr: 0x4C058, symBinAddr: 0x1F6618, symSize: 0x0 }
  - { offset: 0x88AB5, size: 0x8, addend: 0x0, symName: __ZTVNSt3__116__owns_one_stateIcEE, symObjAddr: 0x4C0D0, symBinAddr: 0x1F6690, symSize: 0x0 }
  - { offset: 0x88ACA, size: 0x8, addend: 0x0, symName: __ZTVNSt3__120__l_anchor_multilineIcEE, symObjAddr: 0x4C100, symBinAddr: 0x1F66C0, symSize: 0x0 }
  - { offset: 0x88AF6, size: 0x8, addend: 0x0, symName: __ZTVNSt3__120__r_anchor_multilineIcEE, symObjAddr: 0x4C148, symBinAddr: 0x1F6708, symSize: 0x0 }
  - { offset: 0x88B22, size: 0x8, addend: 0x0, symName: __ZTVNSt3__115__word_boundaryIcNS_12regex_traitsIcEEEE, symObjAddr: 0x4C190, symBinAddr: 0x1F6750, symSize: 0x0 }
  - { offset: 0x88C05, size: 0x8, addend: 0x0, symName: __ZTVNSt3__111__lookaheadIcNS_12regex_traitsIcEEEE, symObjAddr: 0x4C1D8, symBinAddr: 0x1F6798, symSize: 0x0 }
  - { offset: 0x88EFF, size: 0x8, addend: 0x0, symName: __ZTVNSt3__123__match_any_but_newlineIcEE, symObjAddr: 0x4C220, symBinAddr: 0x1F67E0, symSize: 0x0 }
  - { offset: 0x88F2B, size: 0x8, addend: 0x0, symName: __ZTVNSt3__118__match_char_icaseIcNS_12regex_traitsIcEEEE, symObjAddr: 0x4C268, symBinAddr: 0x1F6828, symSize: 0x0 }
  - { offset: 0x88F63, size: 0x8, addend: 0x0, symName: __ZTVNSt3__120__match_char_collateIcNS_12regex_traitsIcEEEE, symObjAddr: 0x4C2B0, symBinAddr: 0x1F6870, symSize: 0x0 }
  - { offset: 0x88F9B, size: 0x8, addend: 0x0, symName: __ZTVNSt3__112__match_charIcEE, symObjAddr: 0x4C2F8, symBinAddr: 0x1F68B8, symSize: 0x0 }
  - { offset: 0x88FD3, size: 0x8, addend: 0x0, symName: __ZTVNSt3__116__back_ref_icaseIcNS_12regex_traitsIcEEEE, symObjAddr: 0x4C340, symBinAddr: 0x1F6900, symSize: 0x0 }
  - { offset: 0x88FFF, size: 0x8, addend: 0x0, symName: __ZTVNSt3__118__back_ref_collateIcNS_12regex_traitsIcEEEE, symObjAddr: 0x4C388, symBinAddr: 0x1F6948, symSize: 0x0 }
  - { offset: 0x8902B, size: 0x8, addend: 0x0, symName: __ZTVNSt3__110__back_refIcEE, symObjAddr: 0x4C3D0, symBinAddr: 0x1F6990, symSize: 0x0 }
  - { offset: 0x89057, size: 0x8, addend: 0x0, symName: __ZTVNSt3__120__bracket_expressionIcNS_12regex_traitsIcEEEE, symObjAddr: 0x4C418, symBinAddr: 0x1F69D8, symSize: 0x0 }
  - { offset: 0x8906C, size: 0x8, addend: 0x0, symName: __ZTVNSt3__128__begin_marked_subexpressionIcEE, symObjAddr: 0x4C460, symBinAddr: 0x1F6A20, symSize: 0x0 }
  - { offset: 0x89098, size: 0x8, addend: 0x0, symName: __ZTVNSt3__126__end_marked_subexpressionIcEE, symObjAddr: 0x4C4A8, symBinAddr: 0x1F6A68, symSize: 0x0 }
  - { offset: 0x890C4, size: 0x8, addend: 0x0, symName: __ZTVNSt3__16__loopIcEE, symObjAddr: 0x4C4F0, symBinAddr: 0x1F6AB0, symSize: 0x0 }
  - { offset: 0x8910D, size: 0x8, addend: 0x0, symName: __ZTVNSt3__117__owns_two_statesIcEE, symObjAddr: 0x4C550, symBinAddr: 0x1F6B10, symSize: 0x0 }
  - { offset: 0x89122, size: 0x8, addend: 0x0, symName: __ZTVNSt3__117__repeat_one_loopIcEE, symObjAddr: 0x4C580, symBinAddr: 0x1F6B40, symSize: 0x0 }
  - { offset: 0x8914E, size: 0x8, addend: 0x0, symName: __ZTVNSt3__111__alternateIcEE, symObjAddr: 0x4C5C8, symBinAddr: 0x1F6B88, symSize: 0x0 }
  - { offset: 0x8917A, size: 0x8, addend: 0x0, symName: __ZTVNSt3__121__empty_non_own_stateIcEE, symObjAddr: 0x4C610, symBinAddr: 0x1F6BD0, symSize: 0x0 }
  - { offset: 0x891A6, size: 0x8, addend: 0x0, symName: __ZTVNSt3__111__match_anyIcEE, symObjAddr: 0x4C658, symBinAddr: 0x1F6C18, symSize: 0x0 }
  - { offset: 0x891D2, size: 0x8, addend: 0x0, symName: '__ZTVNSt3__110__function6__funcIZL24whisper_vad_init_contextP19whisper_vad_contextE3$_0FP11ggml_cgraphvEEE', symObjAddr: 0x4C6A0, symBinAddr: 0x1F6C60, symSize: 0x0 }
  - { offset: 0x89E90, size: 0x8, addend: 0x0, symName: __ZL11decode_utf8PKc20whisper_partial_utf8, symObjAddr: 0x35C20, symBinAddr: 0x36B40, symSize: 0x330 }
  - { offset: 0x89EBC, size: 0x8, addend: 0x0, symName: __ZZL11decode_utf8PKc20whisper_partial_utf8E6lookup, symObjAddr: 0x4D460, symBinAddr: 0x1CB6C0, symSize: 0x0 }
  - { offset: 0x8AC11, size: 0x8, addend: 0x0, symName: __ZL7g_state.0, symObjAddr: 0x4D648, symBinAddr: 0x1FB8E0, symSize: 0x0 }
  - { offset: 0x8AC1C, size: 0x8, addend: 0x0, symName: __ZL7g_state.1, symObjAddr: 0x53B340, symBinAddr: 0x292150, symSize: 0x0 }
  - { offset: 0x8ACAE, size: 0x8, addend: 0x0, symName: '__ZTVNSt3__110__function6__funcIZ18whisper_init_stateE3$_0FP11ggml_cgraphvEEE', symObjAddr: 0x4C730, symBinAddr: 0x1F6CF0, symSize: 0x0 }
  - { offset: 0x8ACBC, size: 0x8, addend: 0x0, symName: _whisper_init_state, symObjAddr: 0x280, symBinAddr: 0x11A0, symSize: 0x1E50 }
  - { offset: 0x9227C, size: 0x8, addend: 0x0, symName: '__ZTVNSt3__110__function6__funcIZ18whisper_init_stateE3$_1FP11ggml_cgraphvEEE', symObjAddr: 0x4C7B0, symBinAddr: 0x1F6D70, symSize: 0x0 }
  - { offset: 0x922B3, size: 0x8, addend: 0x0, symName: '__ZTVNSt3__110__function6__funcIZ18whisper_init_stateE3$_2FP11ggml_cgraphvEEE', symObjAddr: 0x4C830, symBinAddr: 0x1F6DF0, symSize: 0x0 }
  - { offset: 0x922EA, size: 0x8, addend: 0x0, symName: '__ZTVNSt3__110__function6__funcIZ18whisper_init_stateE3$_3FP11ggml_cgraphvEEE', symObjAddr: 0x4C8B0, symBinAddr: 0x1F6E70, symSize: 0x0 }
  - { offset: 0x92BD4, size: 0x8, addend: 0x0, symName: _whisper_init_from_buffer_with_params_no_state, symObjAddr: 0x5760, symBinAddr: 0x6680, symSize: 0x90 }
  - { offset: 0x94003, size: 0x8, addend: 0x0, symName: _whisper_full_with_state, symObjAddr: 0xE700, symBinAddr: 0xF620, symSize: 0x8AB0 }
  - { offset: 0xAB5FF, size: 0x8, addend: 0x0, symName: _whisper_vad_segments_from_probs, symObjAddr: 0xD700, symBinAddr: 0xE620, symSize: 0x960 }
  - { offset: 0xAD5F6, size: 0x8, addend: 0x0, symName: __ZNSt3__14pairIK10asr_systemNS_3mapI10asr_tensorPKcNS_4lessIS4_EENS_9allocatorINS0_IKS4_S6_EEEEEEED1Ev, symObjAddr: 0x0, symBinAddr: 0xF20, symSize: 0x30 }
  - { offset: 0xAD757, size: 0x8, addend: 0x0, symName: __ZNSt3__16__treeINS_12__value_typeI10asr_tensorPKcEENS_19__map_value_compareIS2_NS_4pairIKS2_S4_EENS_4lessIS2_EEEENS_9allocatorIS9_EEE14__tree_deleterclB9nqe220106EPNS_11__tree_nodeIS5_PvEE, symObjAddr: 0x1F9D0, symBinAddr: 0x208F0, symSize: 0x50 }
  - { offset: 0xAD83A, size: 0x8, addend: 0x0, symName: __ZNSt3__13mapI10asr_tensorPKcNS_4lessIS1_EENS_9allocatorINS_4pairIKS1_S3_EEEEED1B9nqe220106Ev, symObjAddr: 0x30, symBinAddr: 0xF50, symSize: 0x30 }
  - { offset: 0xADA63, size: 0x8, addend: 0x0, symName: __ZNSt3__13mapI10asr_systemNS0_I10asr_tensorPKcNS_4lessIS2_EENS_9allocatorINS_4pairIKS2_S4_EEEEEENS5_IS1_EENS7_INS8_IKS1_SC_EEEEED1B9nqe220106Ev, symObjAddr: 0x60, symBinAddr: 0xF80, symSize: 0x30 }
  - { offset: 0xADB9A, size: 0x8, addend: 0x0, symName: __ZNSt3__16__treeINS_12__value_typeI10asr_systemNS_3mapI10asr_tensorPKcNS_4lessIS4_EENS_9allocatorINS_4pairIKS4_S6_EEEEEEEENS_19__map_value_compareIS2_NSA_IKS2_SE_EENS7_IS2_EEEENS9_ISI_EEE14__tree_deleterclB9nqe220106EPNS_11__tree_nodeISF_PvEE, symObjAddr: 0x3A800, symBinAddr: 0x3B720, symSize: 0x60 }
  - { offset: 0xADF1E, size: 0x8, addend: 0x0, symName: __ZNSt3__13mapI10asr_tensor7ggml_opNS_4lessIS1_EENS_9allocatorINS_4pairIKS1_S2_EEEEED1B9nqe220106Ev, symObjAddr: 0x90, symBinAddr: 0xFB0, symSize: 0x30 }
  - { offset: 0xAE055, size: 0x8, addend: 0x0, symName: __ZNSt3__16__treeINS_12__value_typeI10asr_tensor7ggml_opEENS_19__map_value_compareIS2_NS_4pairIKS2_S3_EENS_4lessIS2_EEEENS_9allocatorIS8_EEE14__tree_deleterclB9nqe220106EPNS_11__tree_nodeIS4_PvEE, symObjAddr: 0x3A9A0, symBinAddr: 0x3B8C0, symSize: 0x50 }
  - { offset: 0xAE232, size: 0x8, addend: 0x0, symName: __ZNSt3__13mapI10vad_tensor7ggml_opNS_4lessIS1_EENS_9allocatorINS_4pairIKS1_S2_EEEEED1B9nqe220106Ev, symObjAddr: 0xC0, symBinAddr: 0xFE0, symSize: 0x30 }
  - { offset: 0xAE369, size: 0x8, addend: 0x0, symName: __ZNSt3__16__treeINS_12__value_typeI10vad_tensor7ggml_opEENS_19__map_value_compareIS2_NS_4pairIKS2_S3_EENS_4lessIS2_EEEENS_9allocatorIS8_EEE14__tree_deleterclB9nqe220106EPNS_11__tree_nodeIS4_PvEE, symObjAddr: 0x3AB30, symBinAddr: 0x3BA50, symSize: 0x50 }
  - { offset: 0xAE546, size: 0x8, addend: 0x0, symName: __ZNSt3__13mapI10vad_tensorPKcNS_4lessIS1_EENS_9allocatorINS_4pairIKS1_S3_EEEEED1B9nqe220106Ev, symObjAddr: 0xF0, symBinAddr: 0x1010, symSize: 0x30 }
  - { offset: 0xAE67D, size: 0x8, addend: 0x0, symName: __ZNSt3__16__treeINS_12__value_typeI10vad_tensorPKcEENS_19__map_value_compareIS2_NS_4pairIKS2_S4_EENS_4lessIS2_EEEENS_9allocatorIS9_EEE14__tree_deleterclB9nqe220106EPNS_11__tree_nodeIS5_PvEE, symObjAddr: 0x3ACC0, symBinAddr: 0x3BBE0, symSize: 0x50 }
  - { offset: 0xAE85A, size: 0x8, addend: 0x0, symName: __ZNSt3__13mapI7e_modelNS_12basic_stringIcNS_11char_traitsIcEENS_9allocatorIcEEEENS_4lessIS1_EENS5_INS_4pairIKS1_S7_EEEEED1B9nqe220106Ev, symObjAddr: 0x120, symBinAddr: 0x1040, symSize: 0x30 }
  - { offset: 0xAE991, size: 0x8, addend: 0x0, symName: __ZNSt3__16__treeINS_12__value_typeI7e_modelNS_12basic_stringIcNS_11char_traitsIcEENS_9allocatorIcEEEEEENS_19__map_value_compareIS2_NS_4pairIKS2_S8_EENS_4lessIS2_EEEENS6_ISD_EEE14__tree_deleterclB9nqe220106EPNS_11__tree_nodeIS9_PvEE, symObjAddr: 0x3B0A0, symBinAddr: 0x3BFC0, symSize: 0x60 }
  - { offset: 0xAEE52, size: 0x8, addend: 0x0, symName: __ZNSt3__112basic_stringIcNS_11char_traitsIcEENS_9allocatorIcEEEC1B9nqe220106ILi0EEEPKc, symObjAddr: 0x150, symBinAddr: 0x1070, symSize: 0x90 }
  - { offset: 0xAF198, size: 0x8, addend: 0x0, symName: __ZNSt3__112basic_stringIcNS_11char_traitsIcEENS_9allocatorIcEEE20__throw_length_errorB9nqe220106Ev, symObjAddr: 0x20B90, symBinAddr: 0x21AB0, symSize: 0x10 }
  - { offset: 0xAF1B0, size: 0x8, addend: 0x0, symName: __ZNSt3__125__throw_bad_function_callB9nqe220106Ev, symObjAddr: 0x20BA0, symBinAddr: 0x21AC0, symSize: 0x40 }
  - { offset: 0xAF2F5, size: 0x8, addend: 0x0, symName: __ZNSt3__14pairIKNS_12basic_stringIcNS_11char_traitsIcEENS_9allocatorIcEEEENS0_IiS6_EEED1Ev, symObjAddr: 0x1E0, symBinAddr: 0x1100, symSize: 0x40 }
  - { offset: 0xAF670, size: 0x8, addend: 0x0, symName: __ZNSt3__13mapINS_12basic_stringIcNS_11char_traitsIcEENS_9allocatorIcEEEENS_4pairIiS6_EENS_4lessIS6_EENS4_INS7_IKS6_S8_EEEEED1B9nqe220106Ev, symObjAddr: 0x220, symBinAddr: 0x1140, symSize: 0x30 }
  - { offset: 0xAF7A7, size: 0x8, addend: 0x0, symName: __ZNSt3__16__treeINS_12__value_typeINS_12basic_stringIcNS_11char_traitsIcEENS_9allocatorIcEEEENS_4pairIiS7_EEEENS_19__map_value_compareIS7_NS8_IKS7_S9_EENS_4lessIS7_EEEENS5_ISD_EEE14__tree_deleterclB9nqe220106EPNS_11__tree_nodeISA_PvEE, symObjAddr: 0x3B640, symBinAddr: 0x3C560, symSize: 0x70 }
  - { offset: 0xAFC89, size: 0x8, addend: 0x0, symName: __ZNSt3__13mapI30whisper_alignment_heads_preset14whisper_aheadsNS_4lessIS1_EENS_9allocatorINS_4pairIKS1_S2_EEEEED1B9nqe220106Ev, symObjAddr: 0x250, symBinAddr: 0x1170, symSize: 0x30 }
  - { offset: 0xAFDC0, size: 0x8, addend: 0x0, symName: __ZNSt3__16__treeINS_12__value_typeI30whisper_alignment_heads_preset14whisper_aheadsEENS_19__map_value_compareIS2_NS_4pairIKS2_S3_EENS_4lessIS2_EEEENS_9allocatorIS8_EEE14__tree_deleterclB9nqe220106EPNS_11__tree_nodeIS4_PvEE, symObjAddr: 0x3B800, symBinAddr: 0x3C720, symSize: 0x50 }
  - { offset: 0xB1B70, size: 0x8, addend: 0x0, symName: __ZN13whisper_stateC2Ev, symObjAddr: 0x1FA20, symBinAddr: 0x20940, symSize: 0x730 }
  - { offset: 0xB20B4, size: 0x8, addend: 0x0, symName: __ZL20whisper_backend_initRK22whisper_context_params, symObjAddr: 0x20D0, symBinAddr: 0x2FF0, symSize: 0x3A0 }
  - { offset: 0xB28FC, size: 0x8, addend: 0x0, symName: __ZL21whisper_kv_cache_initR16whisper_kv_cacheP12ggml_backend9ggml_typexxi, symObjAddr: 0x2760, symBinAddr: 0x3680, symSize: 0x250 }
  - { offset: 0xB31B3, size: 0x8, addend: 0x0, symName: __ZL20whisper_log_internal14ggml_log_levelPKcz, symObjAddr: 0x2470, symBinAddr: 0x3390, symSize: 0x150 }
  - { offset: 0xB32CF, size: 0x8, addend: 0x0, symName: _whisper_free_state, symObjAddr: 0x25C0, symBinAddr: 0x34E0, symSize: 0x1A0 }
  - { offset: 0xB35DD, size: 0x8, addend: 0x0, symName: __ZL28get_alignment_heads_by_layerRK22whisper_context_paramsiii, symObjAddr: 0x20710, symBinAddr: 0x21630, symSize: 0x1B0 }
  - { offset: 0xB3B35, size: 0x8, addend: 0x0, symName: __ZZNSt3__16vectorIP11ggml_tensorNS_9allocatorIS2_EEE12emplace_backIJS2_EEEvDpOT_ENKUlvE0_clEv, symObjAddr: 0x20A60, symBinAddr: 0x21980, symSize: 0x110 }
  - { offset: 0xB3EF1, size: 0x8, addend: 0x0, symName: __ZL19aheads_masks_nbytesR20whisper_aheads_masks, symObjAddr: 0x29B0, symBinAddr: 0x38D0, symSize: 0x70 }
  - { offset: 0xB3F7A, size: 0x8, addend: 0x0, symName: __ZNSt3__112basic_stringIcNS_11char_traitsIcEENS_9allocatorIcEEE25__init_copy_ctor_externalEPKcm, symObjAddr: 0x3B100, symBinAddr: 0x3C020, symSize: 0x80 }
  - { offset: 0xB4223, size: 0x8, addend: 0x0, symName: __ZNSt3__112basic_stringIcNS_11char_traitsIcEENS_9allocatorIcEEE20__throw_out_of_rangeB9nqe220106Ev, symObjAddr: 0x20B80, symBinAddr: 0x21AA0, symSize: 0x10 }
  - { offset: 0xB423B, size: 0x8, addend: 0x0, symName: __ZNSt3__112basic_stringIcNS_11char_traitsIcEENS_9allocatorIcEEE20__throw_length_errorB9nqe220106Ev, symObjAddr: 0x20B90, symBinAddr: 0x21AB0, symSize: 0x10 }
  - { offset: 0xB426A, size: 0x8, addend: 0x0, symName: __ZL24whisper_sched_graph_initR13whisper_schedNSt3__16vectorIP12ggml_backendNS1_9allocatorIS4_EEEEONS1_8functionIFP11ggml_cgraphvEEE, symObjAddr: 0x2A20, symBinAddr: 0x3940, symSize: 0x190 }
  - { offset: 0xB4901, size: 0x8, addend: 0x0, symName: __ZNSt3__16vectorIP12ggml_backendNS_9allocatorIS2_EEEC1B9nqe220106ERKS5_, symObjAddr: 0x2BB0, symBinAddr: 0x3AD0, symSize: 0x90 }
  - { offset: 0xB4D2A, size: 0x8, addend: 0x0, symName: __ZL18whisper_sched_sizeR13whisper_sched, symObjAddr: 0x2C40, symBinAddr: 0x3B60, symSize: 0x70 }
  - { offset: 0xB4DDB, size: 0x8, addend: 0x0, symName: __ZNSt3__16vectorIfNS_9allocatorIfEEE20__throw_length_errorB9nqe220106Ev, symObjAddr: 0x3A290, symBinAddr: 0x3B1B0, symSize: 0x10 }
  - { offset: 0xB4DF3, size: 0x8, addend: 0x0, symName: __ZNSt3__16__treeINS_12__value_typeI10asr_tensorPKcEENS_19__map_value_compareIS2_NS_4pairIKS2_S4_EENS_4lessIS2_EEEENS_9allocatorIS9_EEED1B9nqe220106Ev, symObjAddr: 0x3A2A0, symBinAddr: 0x3B1C0, symSize: 0x30 }
  - { offset: 0xB4DFE, size: 0x8, addend: 0x0, symName: __ZNSt3__16vectorIP12ggml_backendNS_9allocatorIS2_EEE20__throw_length_errorB9nqe220106Ev, symObjAddr: 0x203E0, symBinAddr: 0x21300, symSize: 0x10 }
  - { offset: 0xB4E16, size: 0x8, addend: 0x0, symName: __ZNSt3__120__throw_length_errorB9nqe220106EPKc, symObjAddr: 0x203F0, symBinAddr: 0x21310, symSize: 0x50 }
  - { offset: 0xB4E21, size: 0x8, addend: 0x0, symName: __ZNSt3__16vectorI18whisper_token_dataNS_9allocatorIS1_EEE20__throw_length_errorB9nqe220106Ev, symObjAddr: 0x36F70, symBinAddr: 0x37E90, symSize: 0x10 }
  - { offset: 0xB4E39, size: 0x8, addend: 0x0, symName: __ZNSt3__121discrete_distributionIiE10param_type6__initEv, symObjAddr: 0x36F80, symBinAddr: 0x37EA0, symSize: 0x1C0 }
  - { offset: 0xB4E44, size: 0x8, addend: 0x0, symName: __ZNSt3__16vectorI12whisper_pairIdiENS_9allocatorIS2_EEE20__throw_length_errorB9nqe220106Ev, symObjAddr: 0x37560, symBinAddr: 0x38480, symSize: 0x10 }
  - { offset: 0xB4E5C, size: 0x8, addend: 0x0, symName: __ZZNSt3__16vectorIZ23whisper_full_with_stateE14beam_candidateNS_9allocatorIS1_EEE12emplace_backIJS1_EEEvDpOT_ENKUlvE0_clEv, symObjAddr: 0x37570, symBinAddr: 0x38490, symSize: 0x2B0 }
  - { offset: 0xB515E, size: 0x8, addend: 0x0, symName: __ZZNSt3__16vectorIP12ggml_backendNS_9allocatorIS2_EEE12emplace_backIJRKS2_EEEvDpOT_ENKUlvE0_clEv, symObjAddr: 0x202D0, symBinAddr: 0x211F0, symSize: 0x110 }
  - { offset: 0xB5677, size: 0x8, addend: 0x0, symName: _whisper_vad_free, symObjAddr: 0x5E60, symBinAddr: 0x6D80, symSize: 0x100 }
  - { offset: 0xB5986, size: 0x8, addend: 0x0, symName: __ZN13whisper_stateD2Ev, symObjAddr: 0x220F0, symBinAddr: 0x23010, symSize: 0x3F0 }
  - { offset: 0xB8629, size: 0x8, addend: 0x0, symName: __ZNSt3__16__treeIiNS_4lessIiEENS_9allocatorIiEEE14__tree_deleterclB9nqe220106EPNS_11__tree_nodeIiPvEE, symObjAddr: 0x20280, symBinAddr: 0x211A0, symSize: 0x50 }
  - { offset: 0xB870C, size: 0x8, addend: 0x0, symName: __ZNSt3__16vectorI15whisper_kv_cellNS_9allocatorIS1_EEE6resizeEm, symObjAddr: 0x20470, symBinAddr: 0x21390, symSize: 0x280 }
  - { offset: 0xB9235, size: 0x8, addend: 0x0, symName: __ZNSt3__16vectorIhNS_9allocatorIhEEE20__throw_length_errorB9nqe220106Ev, symObjAddr: 0x206F0, symBinAddr: 0x21610, symSize: 0x10 }
  - { offset: 0xB924D, size: 0x8, addend: 0x0, symName: __ZNSt3__16vectorI15whisper_kv_cellNS_9allocatorIS1_EEE20__throw_length_errorB9nqe220106Ev, symObjAddr: 0x20700, symBinAddr: 0x21620, symSize: 0x10 }
  - { offset: 0xB9396, size: 0x8, addend: 0x0, symName: _whisper_ctx_init_openvino_encoder_with_state, symObjAddr: 0x2CB0, symBinAddr: 0x3BD0, symSize: 0x10 }
  - { offset: 0xB93FD, size: 0x8, addend: 0x0, symName: _whisper_ctx_init_openvino_encoder, symObjAddr: 0x2CC0, symBinAddr: 0x3BE0, symSize: 0x10 }
  - { offset: 0xB9455, size: 0x8, addend: 0x0, symName: _whisper_context_default_params, symObjAddr: 0x2CD0, symBinAddr: 0x3BF0, symSize: 0x30 }
  - { offset: 0xB9530, size: 0x8, addend: 0x0, symName: _whisper_init_from_file_with_params_no_state, symObjAddr: 0x2D00, symBinAddr: 0x3C20, symSize: 0x190 }
  - { offset: 0xB97AC, size: 0x8, addend: 0x0, symName: __ZNSt3__114basic_ifstreamIcNS_11char_traitsIcEEEC1EPKcj, symObjAddr: 0x2E90, symBinAddr: 0x3DB0, symSize: 0x120 }
  - { offset: 0xB98ED, size: 0x8, addend: 0x0, symName: _whisper_init_with_params_no_state, symObjAddr: 0x2FB0, symBinAddr: 0x3ED0, symSize: 0x2760 }
  - { offset: 0xBF2F0, size: 0x8, addend: 0x0, symName: __ZNSt3__114basic_ifstreamIcNS_11char_traitsIcEEED1Ev, symObjAddr: 0x5710, symBinAddr: 0x6630, symSize: 0x50 }
  - { offset: 0xC164B, size: 0x8, addend: 0x0, symName: __ZNSt3__16vectorIfNS_9allocatorIfEEE6resizeEm, symObjAddr: 0x69D0, symBinAddr: 0x78F0, symSize: 0x150 }
  - { offset: 0xC1B61, size: 0x8, addend: 0x0, symName: __ZZNSt3__16__treeINS_12__value_typeINS_12basic_stringIcNS_11char_traitsIcEENS_9allocatorIcEEEEiEENS_19__map_value_compareIS7_NS_4pairIKS7_iEENS_4lessIS7_EEEENS5_ISC_EEE16__emplace_uniqueB9nqe220106IJRKNS_21piecewise_construct_tENS_5tupleIJRSB_EEENSM_IJEEEEEENSA_INS_15__tree_iteratorIS8_PNS_11__tree_nodeIS8_PvEElEEbEEDpOT_ENKUlSN_SL_OSO_OSP_E_clESN_SL_S10_S11_, symObjAddr: 0x21790, symBinAddr: 0x226B0, symSize: 0x190 }
  - { offset: 0xC2167, size: 0x8, addend: 0x0, symName: _whisper_lang_str, symObjAddr: 0x9260, symBinAddr: 0xA180, symSize: 0xA0 }
  - { offset: 0xC237F, size: 0x8, addend: 0x0, symName: __ZL14make_buft_listR22whisper_context_params, symObjAddr: 0xC1E0, symBinAddr: 0xD100, symSize: 0x240 }
  - { offset: 0xC2B30, size: 0x8, addend: 0x0, symName: __ZNSt3__16vectorI21whisper_layer_encoderNS_9allocatorIS1_EEE6resizeEm, symObjAddr: 0x20D00, symBinAddr: 0x21C20, symSize: 0x180 }
  - { offset: 0xC2FEB, size: 0x8, addend: 0x0, symName: __ZNSt3__16vectorI21whisper_layer_decoderNS_9allocatorIS1_EEE6resizeEm, symObjAddr: 0x20E80, symBinAddr: 0x21DA0, symSize: 0x1B0 }
  - { offset: 0xC34BB, size: 0x8, addend: 0x0, symName: '__ZZL18whisper_model_loadP20whisper_model_loaderR15whisper_contextENK3$_1clE10asr_tensor10asr_systemP11ggml_tensori', symObjAddr: 0x21030, symBinAddr: 0x21F50, symSize: 0x750 }
  - { offset: 0xC4A8C, size: 0x8, addend: 0x0, symName: __ZZNSt3__16vectorIP19ggml_backend_bufferNS_9allocatorIS2_EEE12emplace_backIJRS2_EEEvDpOT_ENKUlvE0_clEv, symObjAddr: 0x3B9E0, symBinAddr: 0x3C900, symSize: 0x110 }
  - { offset: 0xC4E3B, size: 0x8, addend: 0x0, symName: __ZZNSt3__16__treeINS_12__value_typeINS_12basic_stringIcNS_11char_traitsIcEENS_9allocatorIcEEEEP11ggml_tensorEENS_19__map_value_compareIS7_NS_4pairIKS7_S9_EENS_4lessIS7_EEEENS5_ISE_EEE16__emplace_uniqueB9nqe220106IJRKNS_21piecewise_construct_tENS_5tupleIJOS7_EEENSO_IJEEEEEENSC_INS_15__tree_iteratorISA_PNS_11__tree_nodeISA_PvEElEEbEEDpOT_ENKUlRSD_SN_OSQ_OSR_E_clES12_SN_S13_S14_, symObjAddr: 0x3B8A0, symBinAddr: 0x3C7C0, symSize: 0x140 }
  - { offset: 0xC5374, size: 0x8, addend: 0x0, symName: __ZNSt3__16vectorIcNS_9allocatorIcEEE6resizeEm, symObjAddr: 0xCB10, symBinAddr: 0xDA30, symSize: 0x100 }
  - { offset: 0xC580D, size: 0x8, addend: 0x0, symName: __ZNSt3__16__treeINS_12__value_typeIP24ggml_backend_buffer_typeP12ggml_contextEENS_19__map_value_compareIS3_NS_4pairIKS3_S5_EENS_4lessIS3_EEEENS_9allocatorISA_EEE14__tree_deleterclB9nqe220106EPNS_11__tree_nodeIS6_PvEE, symObjAddr: 0x3B850, symBinAddr: 0x3C770, symSize: 0x50 }
  - { offset: 0xC58F0, size: 0x8, addend: 0x0, symName: __ZNSt3__16vectorIcNS_9allocatorIcEEE20__throw_length_errorB9nqe220106Ev, symObjAddr: 0x21780, symBinAddr: 0x226A0, symSize: 0x10 }
  - { offset: 0xC5908, size: 0x8, addend: 0x0, symName: __ZZNSt3__16__treeINS_12__value_typeINS_12basic_stringIcNS_11char_traitsIcEENS_9allocatorIcEEEEiEENS_19__map_value_compareIS7_NS_4pairIKS7_iEENS_4lessIS7_EEEENS5_ISC_EEE16__emplace_uniqueB9nqe220106IJRKNS_21piecewise_construct_tENS_5tupleIJRSB_EEENSM_IJEEEEEENSA_INS_15__tree_iteratorIS8_PNS_11__tree_nodeIS8_PvEElEEbEEDpOT_ENKUlSN_SL_OSO_OSP_E_clESN_SL_S10_S11_, symObjAddr: 0x21790, symBinAddr: 0x226B0, symSize: 0x190 }
  - { offset: 0xC5913, size: 0x8, addend: 0x0, symName: __ZNSt3__13mapIP24ggml_backend_buffer_typeP12ggml_contextNS_4lessIS2_EENS_9allocatorINS_4pairIKS2_S4_EEEEED1B9nqe220106Ev, symObjAddr: 0xCC10, symBinAddr: 0xDB30, symSize: 0x30 }
  - { offset: 0xC5A42, size: 0x8, addend: 0x0, symName: __ZNSt3__16__treeINS_12__value_typeIiNS_12basic_stringIcNS_11char_traitsIcEENS_9allocatorIcEEEEEENS_19__map_value_compareIiNS_4pairIKiS7_EENS_4lessIiEEEENS5_ISC_EEE14__tree_deleterclB9nqe220106EPNS_11__tree_nodeIS8_PvEE, symObjAddr: 0x21F20, symBinAddr: 0x22E40, symSize: 0x60 }
  - { offset: 0xC5CC8, size: 0x8, addend: 0x0, symName: __ZNSt3__16__treeINS_12__value_typeINS_12basic_stringIcNS_11char_traitsIcEENS_9allocatorIcEEEEiEENS_19__map_value_compareIS7_NS_4pairIKS7_iEENS_4lessIS7_EEEENS5_ISC_EEE14__tree_deleterclB9nqe220106EPNS_11__tree_nodeIS8_PvEE, symObjAddr: 0x21F80, symBinAddr: 0x22EA0, symSize: 0x60 }
  - { offset: 0xC5F4E, size: 0x8, addend: 0x0, symName: __ZN13whisper_modelD2Ev, symObjAddr: 0x21FE0, symBinAddr: 0x22F00, symSize: 0xB0 }
  - { offset: 0xC6681, size: 0x8, addend: 0x0, symName: _whisper_init_from_file_with_params, symObjAddr: 0x5800, symBinAddr: 0x6720, symSize: 0x70 }
  - { offset: 0xC66E6, size: 0x8, addend: 0x0, symName: _whisper_free, symObjAddr: 0x5870, symBinAddr: 0x6790, symSize: 0x100 }
  - { offset: 0xC6E53, size: 0x8, addend: 0x0, symName: _whisper_init_from_buffer_with_params, symObjAddr: 0x5970, symBinAddr: 0x6890, symSize: 0xC0 }
  - { offset: 0xC6F13, size: 0x8, addend: 0x0, symName: _whisper_init_with_params, symObjAddr: 0x5A30, symBinAddr: 0x6950, symSize: 0x70 }
  - { offset: 0xC6FC8, size: 0x8, addend: 0x0, symName: _whisper_init_from_file, symObjAddr: 0x5AA0, symBinAddr: 0x69C0, symSize: 0xA0 }
  - { offset: 0xC70B5, size: 0x8, addend: 0x0, symName: _whisper_init_from_buffer, symObjAddr: 0x5B40, symBinAddr: 0x6A60, symSize: 0x100 }
  - { offset: 0xC7205, size: 0x8, addend: 0x0, symName: _whisper_init, symObjAddr: 0x5C40, symBinAddr: 0x6B60, symSize: 0xA0 }
  - { offset: 0xC72B2, size: 0x8, addend: 0x0, symName: _whisper_init_from_file_no_state, symObjAddr: 0x5CE0, symBinAddr: 0x6C00, symSize: 0x60 }
  - { offset: 0xC7316, size: 0x8, addend: 0x0, symName: _whisper_init_from_buffer_no_state, symObjAddr: 0x5D40, symBinAddr: 0x6C60, symSize: 0xC0 }
  - { offset: 0xC73E9, size: 0x8, addend: 0x0, symName: _whisper_init_no_state, symObjAddr: 0x5E00, symBinAddr: 0x6D20, symSize: 0x60 }
  - { offset: 0xC7470, size: 0x8, addend: 0x0, symName: __ZN19whisper_vad_contextD2Ev, symObjAddr: 0x313E0, symBinAddr: 0x32300, symSize: 0x110 }
  - { offset: 0xC7FF3, size: 0x8, addend: 0x0, symName: _whisper_free_context_params, symObjAddr: 0x5F60, symBinAddr: 0x6E80, symSize: 0x20 }
  - { offset: 0xC801A, size: 0x8, addend: 0x0, symName: _whisper_free_params, symObjAddr: 0x5F80, symBinAddr: 0x6EA0, symSize: 0x20 }
  - { offset: 0xC8860, size: 0x8, addend: 0x0, symName: _whisper_pcm_to_mel_with_state, symObjAddr: 0x5FA0, symBinAddr: 0x6EC0, symSize: 0x980 }
  - { offset: 0xC9795, size: 0x8, addend: 0x0, symName: __ZNSt3__16threadC2B9nqe220106IRFviPKfRKNS_6vectorIfNS_9allocatorIfEEEEiiiiRK15whisper_filtersR11whisper_melEJiRS3_NS_17reference_wrapperIS8_EExRKiSL_SL_NSI_ISB_EENSI_ISD_EEELi0EEEOT_DpOT0_, symObjAddr: 0x239D0, symBinAddr: 0x248F0, symSize: 0x130 }
  - { offset: 0xC9E72, size: 0x8, addend: 0x0, symName: __ZL33log_mel_spectrogram_worker_threadiPKfRKNSt3__16vectorIfNS1_9allocatorIfEEEEiiiiRK15whisper_filtersR11whisper_mel, symObjAddr: 0x224E0, symBinAddr: 0x23400, symSize: 0x9F0 }
  - { offset: 0xCA638, size: 0x8, addend: 0x0, symName: __ZNSt3__16vectorINS_6threadENS_9allocatorIS1_EEE20__throw_length_errorB9nqe220106Ev, symObjAddr: 0x3BB70, symBinAddr: 0x3CA90, symSize: 0x10 }
  - { offset: 0xCA650, size: 0x8, addend: 0x0, symName: __ZZNSt3__16vectorIiNS_9allocatorIiEEE12emplace_backIJRKiEEEvDpOT_ENKUlvE0_clEv, symObjAddr: 0x3BB80, symBinAddr: 0x3CAA0, symSize: 0x110 }
  - { offset: 0xCA65B, size: 0x8, addend: 0x0, symName: __ZNSt3__128__exception_guard_exceptionsINS_6vectorINS_6threadENS_9allocatorIS2_EEE16__destroy_vectorEED1B9nqe220106Ev, symObjAddr: 0x3BB00, symBinAddr: 0x3CA20, symSize: 0x70 }
  - { offset: 0xCA7E8, size: 0x8, addend: 0x0, symName: __ZNSt3__16vectorINS_6threadENS_9allocatorIS1_EEED1B9nqe220106Ev, symObjAddr: 0x1A570, symBinAddr: 0x1B490, symSize: 0x70 }
  - { offset: 0xCA965, size: 0x8, addend: 0x0, symName: _whisper_pcm_to_mel, symObjAddr: 0x6920, symBinAddr: 0x7840, symSize: 0x20 }
  - { offset: 0xCA9F4, size: 0x8, addend: 0x0, symName: _whisper_set_mel_with_state, symObjAddr: 0x6940, symBinAddr: 0x7860, symSize: 0x90 }
  - { offset: 0xCAB2A, size: 0x8, addend: 0x0, symName: _whisper_set_mel, symObjAddr: 0x6B20, symBinAddr: 0x7A40, symSize: 0x90 }
  - { offset: 0xCAC14, size: 0x8, addend: 0x0, symName: _whisper_encode_with_state, symObjAddr: 0x6BB0, symBinAddr: 0x7AD0, symSize: 0x40 }
  - { offset: 0xCACA1, size: 0x8, addend: 0x0, symName: __ZL23whisper_encode_internalR15whisper_contextR13whisper_stateiiPFbPvES3_, symObjAddr: 0x6BF0, symBinAddr: 0x7B10, symSize: 0x740 }
  - { offset: 0xCB175, size: 0x8, addend: 0x0, symName: __ZL24whisper_build_graph_convR15whisper_contextR13whisper_state, symObjAddr: 0x23C30, symBinAddr: 0x24B50, symSize: 0x1C0 }
  - { offset: 0xCB4D2, size: 0x8, addend: 0x0, symName: __ZL25ggml_graph_compute_helperP18ggml_backend_schedP11ggml_cgraphib, symObjAddr: 0xD540, symBinAddr: 0xE460, symSize: 0xF0 }
  - { offset: 0xCB693, size: 0x8, addend: 0x0, symName: __ZL25whisper_build_graph_crossR15whisper_contextR13whisper_state, symObjAddr: 0x24430, symBinAddr: 0x25350, symSize: 0x380 }
  - { offset: 0xCBB37, size: 0x8, addend: 0x0, symName: _whisper_encode, symObjAddr: 0x7330, symBinAddr: 0x8250, symSize: 0x50 }
  - { offset: 0xCBC2F, size: 0x8, addend: 0x0, symName: _whisper_decode_with_state, symObjAddr: 0x7380, symBinAddr: 0x82A0, symSize: 0x160 }
  - { offset: 0xCBD67, size: 0x8, addend: 0x0, symName: __ZL23whisper_kv_cache_seq_rmR16whisper_kv_cacheiii, symObjAddr: 0x74E0, symBinAddr: 0x8400, symSize: 0x220 }
  - { offset: 0xCC2B9, size: 0x8, addend: 0x0, symName: __ZL23whisper_decode_internalR15whisper_contextR13whisper_stateRK13whisper_batchibPFbPvES6_, symObjAddr: 0x7700, symBinAddr: 0x8620, symSize: 0x7D0 }
  - { offset: 0xCD887, size: 0x8, addend: 0x0, symName: __ZL27whisper_build_graph_decoderR15whisper_contextR13whisper_stateRK13whisper_batchbb, symObjAddr: 0x24B20, symBinAddr: 0x25A40, symSize: 0xDC0 }
  - { offset: 0xCEC14, size: 0x8, addend: 0x0, symName: _whisper_decode, symObjAddr: 0x7ED0, symBinAddr: 0x8DF0, symSize: 0x40 }
  - { offset: 0xD024E, size: 0x8, addend: 0x0, symName: _whisper_tokenize, symObjAddr: 0x7F10, symBinAddr: 0x8E30, symSize: 0xF20 }
  - { offset: 0xD4067, size: 0x8, addend: 0x0, symName: __ZNSt3__111basic_regexIcNS_12regex_traitsIcEEEC2B9nqe220106INS_11char_traitsIcEENS_9allocatorIcEEEERKNS_12basic_stringIcT_T0_EENS_15regex_constants18syntax_option_typeE, symObjAddr: 0x25930, symBinAddr: 0x26850, symSize: 0xD0 }
  - { offset: 0xD4289, size: 0x8, addend: 0x0, symName: __ZNKSt3__111basic_regexIcNS_12regex_traitsIcEEE8__searchINS_9allocatorINS_9sub_matchIPKcEEEEEEbS8_S8_RNS_13match_resultsIS8_T_EENS_15regex_constants15match_flag_typeE, symObjAddr: 0x2E5B0, symBinAddr: 0x2F4D0, symSize: 0x340 }
  - { offset: 0xD4874, size: 0x8, addend: 0x0, symName: __ZNSt3__16vectorINS_9sub_matchINS_11__wrap_iterIPKcEEEENS_9allocatorIS6_EEE6resizeEm, symObjAddr: 0x30E30, symBinAddr: 0x31D50, symSize: 0x1A0 }
  - { offset: 0xD4E85, size: 0x8, addend: 0x0, symName: __ZNSt3__16vectorINS_12basic_stringIcNS_11char_traitsIcEENS_9allocatorIcEEEENS4_IS6_EEE20__throw_length_errorB9nqe220106Ev, symObjAddr: 0x2CA30, symBinAddr: 0x2D950, symSize: 0x10 }
  - { offset: 0xD4E9D, size: 0x8, addend: 0x0, symName: __ZNSt3__119__throw_regex_errorB9nqe220106ILNS_15regex_constants10error_typeE2EEEvv, symObjAddr: 0x2CA40, symBinAddr: 0x2D960, symSize: 0x50 }
  - { offset: 0xD4EA8, size: 0x8, addend: 0x0, symName: __ZNSt3__16vectorIiNS_9allocatorIiEEE20__throw_length_errorB9nqe220106Ev, symObjAddr: 0x3BC90, symBinAddr: 0x3CBB0, symSize: 0x10 }
  - { offset: 0xD4EC0, size: 0x8, addend: 0x0, symName: '__ZNSt3__110__function6__funcIZ18whisper_init_stateE3$_0FP11ggml_cgraphvEED1Ev', symObjAddr: 0x3BCA0, symBinAddr: 0x3CBC0, symSize: 0x10 }
  - { offset: 0xD4ECB, size: 0x8, addend: 0x0, symName: __ZNSt3__111basic_regexIcNS_12regex_traitsIcEEED1Ev, symObjAddr: 0x258E0, symBinAddr: 0x26800, symSize: 0x50 }
  - { offset: 0xD4FD8, size: 0x8, addend: 0x0, symName: _whisper_tokenize.cold.1, symObjAddr: 0x42180, symBinAddr: 0x1BE1A0, symSize: 0x40 }
  - { offset: 0xD5209, size: 0x8, addend: 0x0, symName: _whisper_token_count, symObjAddr: 0x8E30, symBinAddr: 0x9D50, symSize: 0x20 }
  - { offset: 0xD52E8, size: 0x8, addend: 0x0, symName: _whisper_lang_max_id, symObjAddr: 0x8E50, symBinAddr: 0x9D70, symSize: 0x70 }
  - { offset: 0xD5306, size: 0x8, addend: 0x0, symName: _whisper_lang_max_id, symObjAddr: 0x8E50, symBinAddr: 0x9D70, symSize: 0x70 }
  - { offset: 0xD5336, size: 0x8, addend: 0x0, symName: _whisper_lang_max_id, symObjAddr: 0x8E50, symBinAddr: 0x9D70, symSize: 0x70 }
  - { offset: 0xD534C, size: 0x8, addend: 0x0, symName: _whisper_lang_max_id, symObjAddr: 0x8E50, symBinAddr: 0x9D70, symSize: 0x70 }
  - { offset: 0xD5706, size: 0x8, addend: 0x0, symName: _whisper_lang_id, symObjAddr: 0x8EC0, symBinAddr: 0x9DE0, symSize: 0x3A0 }
  - { offset: 0xD66BD, size: 0x8, addend: 0x0, symName: _whisper_lang_str_full, symObjAddr: 0x9300, symBinAddr: 0xA220, symSize: 0xA0 }
  - { offset: 0xD6DCC, size: 0x8, addend: 0x0, symName: _whisper_lang_auto_detect_with_state, symObjAddr: 0x93A0, symBinAddr: 0xA2C0, symSize: 0x440 }
  - { offset: 0xD7966, size: 0x8, addend: 0x0, symName: __ZZNSt3__16vectorI12whisper_pairIdiENS_9allocatorIS2_EEE12emplace_backIJRfRKiEEEvDpOT_ENKUlvE0_clEv, symObjAddr: 0x3C170, symBinAddr: 0x3D090, symSize: 0x120 }
  - { offset: 0xD7D54, size: 0x8, addend: 0x0, symName: _whisper_token_sot, symObjAddr: 0x97E0, symBinAddr: 0xA700, symSize: 0x10 }
  - { offset: 0xD7D71, size: 0x8, addend: 0x0, symName: _whisper_token_lang, symObjAddr: 0x97F0, symBinAddr: 0xA710, symSize: 0x10 }
  - { offset: 0xD7DB5, size: 0x8, addend: 0x0, symName: _whisper_lang_auto_detect, symObjAddr: 0x9800, symBinAddr: 0xA720, symSize: 0x20 }
  - { offset: 0xD7E42, size: 0x8, addend: 0x0, symName: _whisper_model_n_vocab, symObjAddr: 0x9820, symBinAddr: 0xA740, symSize: 0x10 }
  - { offset: 0xD7E6D, size: 0x8, addend: 0x0, symName: _whisper_model_n_audio_ctx, symObjAddr: 0x9830, symBinAddr: 0xA750, symSize: 0x10 }
  - { offset: 0xD7E98, size: 0x8, addend: 0x0, symName: _whisper_model_n_audio_state, symObjAddr: 0x9840, symBinAddr: 0xA760, symSize: 0x10 }
  - { offset: 0xD7EC3, size: 0x8, addend: 0x0, symName: _whisper_model_n_audio_head, symObjAddr: 0x9850, symBinAddr: 0xA770, symSize: 0x10 }
  - { offset: 0xD7EEE, size: 0x8, addend: 0x0, symName: _whisper_model_n_audio_layer, symObjAddr: 0x9860, symBinAddr: 0xA780, symSize: 0x10 }
  - { offset: 0xD7F19, size: 0x8, addend: 0x0, symName: _whisper_model_n_text_ctx, symObjAddr: 0x9870, symBinAddr: 0xA790, symSize: 0x10 }
  - { offset: 0xD7F44, size: 0x8, addend: 0x0, symName: _whisper_model_n_text_state, symObjAddr: 0x9880, symBinAddr: 0xA7A0, symSize: 0x10 }
  - { offset: 0xD7F6F, size: 0x8, addend: 0x0, symName: _whisper_model_n_text_head, symObjAddr: 0x9890, symBinAddr: 0xA7B0, symSize: 0x10 }
  - { offset: 0xD7F9A, size: 0x8, addend: 0x0, symName: _whisper_model_n_text_layer, symObjAddr: 0x98A0, symBinAddr: 0xA7C0, symSize: 0x10 }
  - { offset: 0xD7FC5, size: 0x8, addend: 0x0, symName: _whisper_model_n_mels, symObjAddr: 0x98B0, symBinAddr: 0xA7D0, symSize: 0x10 }
  - { offset: 0xD7FF0, size: 0x8, addend: 0x0, symName: _whisper_model_ftype, symObjAddr: 0x98C0, symBinAddr: 0xA7E0, symSize: 0x10 }
  - { offset: 0xD801B, size: 0x8, addend: 0x0, symName: _whisper_model_type, symObjAddr: 0x98D0, symBinAddr: 0xA7F0, symSize: 0x10 }
  - { offset: 0xD8046, size: 0x8, addend: 0x0, symName: _whisper_model_type_readable, symObjAddr: 0x98E0, symBinAddr: 0xA800, symSize: 0x30 }
  - { offset: 0xD8071, size: 0x8, addend: 0x0, symName: _whisper_n_len_from_state, symObjAddr: 0x9910, symBinAddr: 0xA830, symSize: 0x10 }
  - { offset: 0xD808E, size: 0x8, addend: 0x0, symName: _whisper_n_len, symObjAddr: 0x9920, symBinAddr: 0xA840, symSize: 0x20 }
  - { offset: 0xD80B9, size: 0x8, addend: 0x0, symName: _whisper_n_vocab, symObjAddr: 0x9940, symBinAddr: 0xA860, symSize: 0x10 }
  - { offset: 0xD80E4, size: 0x8, addend: 0x0, symName: _whisper_n_text_ctx, symObjAddr: 0x9950, symBinAddr: 0xA870, symSize: 0x10 }
  - { offset: 0xD8101, size: 0x8, addend: 0x0, symName: _whisper_n_audio_ctx, symObjAddr: 0x9960, symBinAddr: 0xA880, symSize: 0x10 }
  - { offset: 0xD811E, size: 0x8, addend: 0x0, symName: _whisper_is_multilingual, symObjAddr: 0x9970, symBinAddr: 0xA890, symSize: 0x20 }
  - { offset: 0xD815D, size: 0x8, addend: 0x0, symName: _whisper_get_logits, symObjAddr: 0x9990, symBinAddr: 0xA8B0, symSize: 0x20 }
  - { offset: 0xD81AB, size: 0x8, addend: 0x0, symName: _whisper_get_logits_from_state, symObjAddr: 0x99B0, symBinAddr: 0xA8D0, symSize: 0x10 }
  - { offset: 0xD8237, size: 0x8, addend: 0x0, symName: _whisper_token_to_str, symObjAddr: 0x99C0, symBinAddr: 0xA8E0, symSize: 0x60 }
  - { offset: 0xD839F, size: 0x8, addend: 0x0, symName: _whisper_token_eot, symObjAddr: 0x9A20, symBinAddr: 0xA940, symSize: 0x10 }
  - { offset: 0xD83BC, size: 0x8, addend: 0x0, symName: _whisper_token_solm, symObjAddr: 0x9A30, symBinAddr: 0xA950, symSize: 0x10 }
  - { offset: 0xD83E7, size: 0x8, addend: 0x0, symName: _whisper_token_prev, symObjAddr: 0x9A40, symBinAddr: 0xA960, symSize: 0x10 }
  - { offset: 0xD8404, size: 0x8, addend: 0x0, symName: _whisper_token_nosp, symObjAddr: 0x9A50, symBinAddr: 0xA970, symSize: 0x10 }
  - { offset: 0xD8421, size: 0x8, addend: 0x0, symName: _whisper_token_not, symObjAddr: 0x9A60, symBinAddr: 0xA980, symSize: 0x10 }
  - { offset: 0xD843E, size: 0x8, addend: 0x0, symName: _whisper_token_beg, symObjAddr: 0x9A70, symBinAddr: 0xA990, symSize: 0x10 }
  - { offset: 0xD845B, size: 0x8, addend: 0x0, symName: _whisper_token_translate, symObjAddr: 0x9A80, symBinAddr: 0xA9A0, symSize: 0x10 }
  - { offset: 0xD8478, size: 0x8, addend: 0x0, symName: _whisper_token_transcribe, symObjAddr: 0x9A90, symBinAddr: 0xA9B0, symSize: 0x10 }
  - { offset: 0xD8495, size: 0x8, addend: 0x0, symName: _whisper_get_timings, symObjAddr: 0x9AA0, symBinAddr: 0xA9C0, symSize: 0xC0 }
  - { offset: 0xD8557, size: 0x8, addend: 0x0, symName: _whisper_print_timings, symObjAddr: 0x9B60, symBinAddr: 0xAA80, symSize: 0x2C0 }
  - { offset: 0xD88F7, size: 0x8, addend: 0x0, symName: _whisper_reset_timings, symObjAddr: 0x9E20, symBinAddr: 0xAD40, symSize: 0x40 }
  - { offset: 0xD89AD, size: 0x8, addend: 0x0, symName: _whisper_print_system_info.cold.1, symObjAddr: 0x421C0, symBinAddr: 0x1BE1E0, symSize: 0x50 }
  - { offset: 0xD89F3, size: 0x8, addend: 0x0, symName: _whisper_vad_default_context_params, symObjAddr: 0xA1E0, symBinAddr: 0xB100, symSize: 0x10 }
  - { offset: 0xD8A20, size: 0x8, addend: 0x0, symName: _whisper_vad_default_params, symObjAddr: 0xA1F0, symBinAddr: 0xB110, symSize: 0x30 }
  - { offset: 0xD8A3F, size: 0x8, addend: 0x0, symName: _whisper_vad_init_from_file_with_params, symObjAddr: 0xA220, symBinAddr: 0xB140, symSize: 0x190 }
  - { offset: 0xD8CCA, size: 0x8, addend: 0x0, symName: _whisper_vad_init_with_params, symObjAddr: 0xA3B0, symBinAddr: 0xB2D0, symSize: 0x1E30 }
  - { offset: 0xDE5FB, size: 0x8, addend: 0x0, symName: '__ZZ28whisper_vad_init_with_paramsENK3$_1clE10vad_tensorP11ggml_tensor', symObjAddr: 0xC420, symBinAddr: 0xD340, symSize: 0x6F0 }
  - { offset: 0xE02D9, size: 0x8, addend: 0x0, symName: __ZZNSt3__16vectorINS_4pairIP19ggml_backend_deviceP24ggml_backend_buffer_typeEENS_9allocatorIS6_EEE12emplace_backIJRS3_RS5_EEEvDpOT_ENKUlvE0_clEv, symObjAddr: 0x31060, symBinAddr: 0x31F80, symSize: 0x120 }
  - { offset: 0xE0716, size: 0x8, addend: 0x0, symName: __ZZNSt3__16vectorINS_4pairIP19ggml_backend_deviceP24ggml_backend_buffer_typeEENS_9allocatorIS6_EEE12emplace_backIJRS3_S5_EEEvDpOT_ENKUlvE0_clEv, symObjAddr: 0x31180, symBinAddr: 0x320A0, symSize: 0x120 }
  - { offset: 0xE1B81, size: 0x8, addend: 0x0, symName: __ZNKSt3__13mapI10vad_tensorPKcNS_4lessIS1_EENS_9allocatorINS_4pairIKS1_S3_EEEEE2atERS8_, symObjAddr: 0x312A0, symBinAddr: 0x321C0, symSize: 0x50 }
  - { offset: 0xE1C91, size: 0x8, addend: 0x0, symName: __ZL6formatPKcz, symObjAddr: 0x21B20, symBinAddr: 0x22A40, symSize: 0x200 }
  - { offset: 0xE235D, size: 0x8, addend: 0x0, symName: __ZZNSt3__16vectorIP12ggml_contextNS_9allocatorIS2_EEE12emplace_backIJRS2_EEEvDpOT_ENKUlvE0_clEv, symObjAddr: 0x21E00, symBinAddr: 0x22D20, symSize: 0x110 }
  - { offset: 0xE26F4, size: 0x8, addend: 0x0, symName: __ZNSt3__16vectorINS_4pairIP19ggml_backend_deviceP24ggml_backend_buffer_typeEENS_9allocatorIS6_EEE20__throw_length_errorB9nqe220106Ev, symObjAddr: 0x21DF0, symBinAddr: 0x22D10, symSize: 0x10 }
  - { offset: 0xE270C, size: 0x8, addend: 0x0, symName: __ZZNSt3__16vectorIP12ggml_contextNS_9allocatorIS2_EEE12emplace_backIJRS2_EEEvDpOT_ENKUlvE0_clEv, symObjAddr: 0x21E00, symBinAddr: 0x22D20, symSize: 0x110 }
  - { offset: 0xE2717, size: 0x8, addend: 0x0, symName: '__ZZ28whisper_vad_init_with_paramsENK3$_1clE10vad_tensorP11ggml_tensor.cold.1', symObjAddr: 0x42210, symBinAddr: 0x1BE230, symSize: 0x20 }
  - { offset: 0xE2746, size: 0x8, addend: 0x0, symName: __ZNSt3__110unique_ptrI12ggml_context20ggml_context_deleterED1B9nqe220106Ev, symObjAddr: 0x21DC0, symBinAddr: 0x22CE0, symSize: 0x30 }
  - { offset: 0xE27F2, size: 0x8, addend: 0x0, symName: _whisper_vad_reset_state, symObjAddr: 0xCC40, symBinAddr: 0xDB60, symSize: 0x10 }
  - { offset: 0xE2A2D, size: 0x8, addend: 0x0, symName: _whisper_vad_detect_speech_no_reset, symObjAddr: 0xCC50, symBinAddr: 0xDB70, symSize: 0x3E0 }
  - { offset: 0xE3711, size: 0x8, addend: 0x0, symName: __ZL23whisper_vad_build_graphR19whisper_vad_context, symObjAddr: 0xD030, symBinAddr: 0xDF50, symSize: 0x510 }
  - { offset: 0xE4468, size: 0x8, addend: 0x0, symName: _whisper_vad_detect_speech, symObjAddr: 0xD630, symBinAddr: 0xE550, symSize: 0x40 }
  - { offset: 0xE44F9, size: 0x8, addend: 0x0, symName: _whisper_vad_segments_n_segments, symObjAddr: 0xD670, symBinAddr: 0xE590, symSize: 0x20 }
  - { offset: 0xE456B, size: 0x8, addend: 0x0, symName: _whisper_vad_segments_get_segment_t0, symObjAddr: 0xD690, symBinAddr: 0xE5B0, symSize: 0x20 }
  - { offset: 0xE45CC, size: 0x8, addend: 0x0, symName: _whisper_vad_segments_get_segment_t1, symObjAddr: 0xD6B0, symBinAddr: 0xE5D0, symSize: 0x20 }
  - { offset: 0xE462D, size: 0x8, addend: 0x0, symName: _whisper_vad_n_probs, symObjAddr: 0xD6D0, symBinAddr: 0xE5F0, symSize: 0x20 }
  - { offset: 0xE466C, size: 0x8, addend: 0x0, symName: _whisper_vad_probs, symObjAddr: 0xD6F0, symBinAddr: 0xE610, symSize: 0x10 }
  - { offset: 0xE4E58, size: 0x8, addend: 0x0, symName: __ZZNSt3__16vectorIZ31whisper_vad_segments_from_probsE16speech_segment_tNS_9allocatorIS1_EEE12emplace_backIJS1_EEEvDpOT_ENKUlvE0_clEv, symObjAddr: 0x3D7F0, symBinAddr: 0x3E710, symSize: 0x110 }
  - { offset: 0xE5171, size: 0x8, addend: 0x0, symName: __ZNSt3__16vectorI19whisper_vad_segmentNS_9allocatorIS1_EEE6resizeEm, symObjAddr: 0xE060, symBinAddr: 0xEF80, symSize: 0x140 }
  - { offset: 0xE5675, size: 0x8, addend: 0x0, symName: _whisper_vad_segments_from_samples, symObjAddr: 0xE1A0, symBinAddr: 0xF0C0, symSize: 0x90 }
  - { offset: 0xE5A3E, size: 0x8, addend: 0x0, symName: __ZNSt3__16vectorI19whisper_vad_segmentNS_9allocatorIS1_EEE20__throw_length_errorB9nqe220106Ev, symObjAddr: 0x3D900, symBinAddr: 0x3E820, symSize: 0x10 }
  - { offset: 0xE5A56, size: 0x8, addend: 0x0, symName: __ZNSt3__16vectorI15whisper_segmentNS_9allocatorIS1_EEE24__emplace_back_slow_pathIJS1_EEEPS1_DpOT_, symObjAddr: 0x3D910, symBinAddr: 0x3E830, symSize: 0x220 }
  - { offset: 0xE5A94, size: 0x8, addend: 0x0, symName: _whisper_vad_segments_from_samples, symObjAddr: 0xE1A0, symBinAddr: 0xF0C0, symSize: 0x90 }
  - { offset: 0xE5C03, size: 0x8, addend: 0x0, symName: _whisper_vad_free_segments, symObjAddr: 0xE230, symBinAddr: 0xF150, symSize: 0x40 }
  - { offset: 0xE5D80, size: 0x8, addend: 0x0, symName: _whisper_context_default_params_by_ref, symObjAddr: 0xE270, symBinAddr: 0xF190, symSize: 0x50 }
  - { offset: 0xE5DE6, size: 0x8, addend: 0x0, symName: _whisper_full_default_params_by_ref, symObjAddr: 0xE2C0, symBinAddr: 0xF1E0, symSize: 0x260 }
  - { offset: 0xE5E8E, size: 0x8, addend: 0x0, symName: _whisper_full_default_params, symObjAddr: 0xE520, symBinAddr: 0xF440, symSize: 0x170 }
  - { offset: 0xE5ED9, size: 0x8, addend: 0x0, symName: __ZNSt3__16vectorINS_12basic_stringIcNS_11char_traitsIcEENS_9allocatorIcEEEENS4_IS6_EEED1B9nqe220106Ev, symObjAddr: 0xE690, symBinAddr: 0xF5B0, symSize: 0x70 }
  - { offset: 0xEC151, size: 0x8, addend: 0x0, symName: __ZZNSt3__16vectorIfNS_9allocatorIfEEE12emplace_backIJRKfEEEvDpOT_ENKUlvE0_clEv, symObjAddr: 0x3DD20, symBinAddr: 0x3EC40, symSize: 0x110 }
  - { offset: 0xEC4C2, size: 0x8, addend: 0x0, symName: __ZNSt3__16vectorIiNS_9allocatorIiEEE18__assign_with_sizeB9nqe220106INS_17_ClassicAlgPolicyEPKiS7_EEvT0_T1_l, symObjAddr: 0x3DE30, symBinAddr: 0x3ED50, symSize: 0x200 }
  - { offset: 0xECCD9, size: 0x8, addend: 0x0, symName: __ZZNSt3__16vectorIiNS_9allocatorIiEEE12emplace_backIJRKiEEEvDpOT_ENKUlvE0_clEv, symObjAddr: 0x3BB80, symBinAddr: 0x3CAA0, symSize: 0x110 }
  - { offset: 0xED059, size: 0x8, addend: 0x0, symName: __ZZNSt3__16vectorIiNS_9allocatorIiEEE12emplace_backIJiEEEvDpOT_ENKUlvE0_clEv, symObjAddr: 0x3E030, symBinAddr: 0x3EF50, symSize: 0x110 }
  - { offset: 0xED3D6, size: 0x8, addend: 0x0, symName: __ZL29whisper_grammar_advance_stackRKNSt3__16vectorINS0_I23whisper_grammar_elementNS_9allocatorIS1_EEEENS2_IS4_EEEERKNS0_IPKS1_NS2_ISA_EEEERNS0_ISC_NS2_ISC_EEEE, symObjAddr: 0x314F0, symBinAddr: 0x32410, symSize: 0x3C0 }
  - { offset: 0xEE604, size: 0x8, addend: 0x0, symName: __ZNSt3__16vectorIiNS_9allocatorIiEEE18__insert_with_sizeB9nqe220106INS_17_ClassicAlgPolicyENS_11__wrap_iterIPiEES8_EES8_NS6_IPKiEET0_T1_l, symObjAddr: 0x3E2E0, symBinAddr: 0x3F200, symSize: 0x420 }
  - { offset: 0xEF482, size: 0x8, addend: 0x0, symName: __ZL22whisper_process_logitsR15whisper_contextR13whisper_stateR15whisper_decoder19whisper_full_paramsf, symObjAddr: 0x172E0, symBinAddr: 0x18200, symSize: 0x1D50 }
  - { offset: 0xF2F16, size: 0x8, addend: 0x0, symName: '__ZZ23whisper_full_with_stateENK3$_0clEv', symObjAddr: 0x19030, symBinAddr: 0x19F50, symSize: 0x1540 }
  - { offset: 0xF5956, size: 0x8, addend: 0x0, symName: __ZNSt3__16vectorINS0_I23whisper_grammar_elementNS_9allocatorIS1_EEEENS2_IS4_EEE18__assign_with_sizeB9nqe220106INS_17_ClassicAlgPolicyEPS4_S9_EEvT0_T1_l, symObjAddr: 0x37DC0, symBinAddr: 0x38CE0, symSize: 0x280 }
  - { offset: 0xF63E5, size: 0x8, addend: 0x0, symName: __ZNSt3__16vectorINS0_IPK23whisper_grammar_elementNS_9allocatorIS3_EEEENS4_IS6_EEE18__assign_with_sizeB9nqe220106INS_17_ClassicAlgPolicyEPS6_SB_EEvT0_T1_l, symObjAddr: 0x38170, symBinAddr: 0x39090, symSize: 0x280 }
  - { offset: 0xF6E74, size: 0x8, addend: 0x0, symName: __ZNSt3__16vectorI18whisper_token_dataNS_9allocatorIS1_EEE6resizeEm, symObjAddr: 0x1A5E0, symBinAddr: 0x1B500, symSize: 0x180 }
  - { offset: 0xF730C, size: 0x8, addend: 0x0, symName: __ZNSt3__16__treeINS_12__value_typeIiiEENS_19__map_value_compareIiNS_4pairIKiiEENS_4lessIiEEEENS_9allocatorIS6_EEE14__tree_deleterclB9nqe220106EPNS_11__tree_nodeIS2_PvEE, symObjAddr: 0x38550, symBinAddr: 0x39470, symSize: 0x50 }
  - { offset: 0xF7432, size: 0x8, addend: 0x0, symName: __ZNSt3__16vectorI15whisper_segmentNS_9allocatorIS1_EEE24__emplace_back_slow_pathIJS1_EEEPS1_DpOT_, symObjAddr: 0x3D910, symBinAddr: 0x3E830, symSize: 0x220 }
  - { offset: 0xF7D37, size: 0x8, addend: 0x0, symName: __ZL42whisper_exp_compute_token_level_timestampsR15whisper_contextR13whisper_stateiff, symObjAddr: 0x1A900, symBinAddr: 0x1B820, symSize: 0xCE0 }
  - { offset: 0xF89B2, size: 0x8, addend: 0x0, symName: __ZL20whisper_wrap_segmentR15whisper_contextR13whisper_stateib, symObjAddr: 0x1B5E0, symBinAddr: 0x1C500, symSize: 0x5D0 }
  - { offset: 0xFA272, size: 0x8, addend: 0x0, symName: __ZZNSt3__16vectorI18whisper_token_dataNS_9allocatorIS1_EEE12emplace_backIJRKS1_EEEvDpOT_ENKUlvE0_clEv, symObjAddr: 0x3E700, symBinAddr: 0x3F620, symSize: 0x120 }
  - { offset: 0xFA5C3, size: 0x8, addend: 0x0, symName: __ZL12to_timestampxb, symObjAddr: 0x1A760, symBinAddr: 0x1B680, symSize: 0x160 }
  - { offset: 0xFAA85, size: 0x8, addend: 0x0, symName: __ZNSt3__116allocator_traitsINS_9allocatorIZ23whisper_full_with_stateE14beam_candidateEEE7destroyB9nqe220106IS2_Li0EEEvRS3_PT_, symObjAddr: 0x37830, symBinAddr: 0x38750, symSize: 0xE0 }
  - { offset: 0xFB188, size: 0x8, addend: 0x0, symName: __ZNSt3__16vectorINS0_IZ23whisper_full_with_stateE14beam_candidateNS_9allocatorIS1_EEEENS2_IS4_EEE16__destroy_vectorclB9nqe220106Ev, symObjAddr: 0x3E140, symBinAddr: 0x3F060, symSize: 0x1A0 }
  - { offset: 0xFBA7E, size: 0x8, addend: 0x0, symName: __ZNSt3__16vectorI23whisper_grammar_elementNS_9allocatorIS1_EEE20__throw_length_errorB9nqe220106Ev, symObjAddr: 0x31A10, symBinAddr: 0x32930, symSize: 0x10 }
  - { offset: 0xFBA96, size: 0x8, addend: 0x0, symName: __ZZNSt3__16vectorIPK23whisper_grammar_elementNS_9allocatorIS3_EEE12emplace_backIJRKS3_EEEvDpOT_ENKUlvE0_clEv, symObjAddr: 0x31A20, symBinAddr: 0x32940, symSize: 0x110 }
  - { offset: 0xFBAA1, size: 0x8, addend: 0x0, symName: __ZNSt3__16vectorIPK23whisper_grammar_elementNS_9allocatorIS3_EEE20__throw_length_errorB9nqe220106Ev, symObjAddr: 0x31B30, symBinAddr: 0x32A50, symSize: 0x10 }
  - { offset: 0xFBAB9, size: 0x8, addend: 0x0, symName: __ZZNSt3__16vectorINS0_IPK23whisper_grammar_elementNS_9allocatorIS3_EEEENS4_IS6_EEE12emplace_backIJEEEvDpOT_ENKUlvE0_clEv, symObjAddr: 0x31B40, symBinAddr: 0x32A60, symSize: 0x100 }
  - { offset: 0xFBACC, size: 0x8, addend: 0x0, symName: __ZNSt3__16vectorINS0_I23whisper_grammar_elementNS_9allocatorIS1_EEEENS2_IS4_EEE20__throw_length_errorB9nqe220106Ev, symObjAddr: 0x31A00, symBinAddr: 0x32920, symSize: 0x10 }
  - { offset: 0xFBAE4, size: 0x8, addend: 0x0, symName: __ZNSt3__16vectorI23whisper_grammar_elementNS_9allocatorIS1_EEE20__throw_length_errorB9nqe220106Ev, symObjAddr: 0x31A10, symBinAddr: 0x32930, symSize: 0x10 }
  - { offset: 0xFBAEF, size: 0x8, addend: 0x0, symName: __ZNSt3__16vectorINS0_IPK23whisper_grammar_elementNS_9allocatorIS3_EEEENS4_IS6_EEE20__throw_length_errorB9nqe220106Ev, symObjAddr: 0x31CA0, symBinAddr: 0x32BC0, symSize: 0x10 }
  - { offset: 0xFBB07, size: 0x8, addend: 0x0, symName: __ZNSt3__16vectorINS0_IPK23whisper_grammar_elementNS_9allocatorIS3_EEEENS4_IS6_EEE24__emplace_back_slow_pathIJRKS6_EEEPS6_DpOT_, symObjAddr: 0x31CB0, symBinAddr: 0x32BD0, symSize: 0x1A0 }
  - { offset: 0xFBB12, size: 0x8, addend: 0x0, symName: __ZNSt3__16vectorIZ23whisper_full_with_stateE14beam_candidateNS_9allocatorIS1_EEE20__throw_length_errorB9nqe220106Ev, symObjAddr: 0x37820, symBinAddr: 0x38740, symSize: 0x10 }
  - { offset: 0xFBB2A, size: 0x8, addend: 0x0, symName: __ZNSt3__116allocator_traitsINS_9allocatorIZ23whisper_full_with_stateE14beam_candidateEEE7destroyB9nqe220106IS2_Li0EEEvRS3_PT_, symObjAddr: 0x37830, symBinAddr: 0x38750, symSize: 0xE0 }
  - { offset: 0xFBB35, size: 0x8, addend: 0x0, symName: __ZN15whisper_segmentD1Ev, symObjAddr: 0x1A8C0, symBinAddr: 0x1B7E0, symSize: 0x40 }
  - { offset: 0xFBD7D, size: 0x8, addend: 0x0, symName: __ZNSt3__110unique_ptrI12ggml_backend20ggml_backend_deleterED1B9nqe220106Ev, symObjAddr: 0x39EB0, symBinAddr: 0x3ADD0, symSize: 0x30 }
  - { offset: 0xFBE13, size: 0x8, addend: 0x0, symName: __ZNSt3__128__exception_guard_exceptionsINS_6vectorINS1_I23whisper_grammar_elementNS_9allocatorIS2_EEEENS3_IS5_EEE16__destroy_vectorEED1B9nqe220106Ev, symObjAddr: 0x31990, symBinAddr: 0x328B0, symSize: 0x70 }
  - { offset: 0xFC07D, size: 0x8, addend: 0x0, symName: '__ZNSt3__110unique_ptrINS_5tupleIJNS0_INS_15__thread_structENS_14default_deleteIS2_EEEEZ23whisper_full_with_stateE3$_2EEENS3_IS7_EEED1B9nqe220106Ev', symObjAddr: 0x41C20, symBinAddr: 0x42B40, symSize: 0x50 }
  - { offset: 0xFC243, size: 0x8, addend: 0x0, symName: __ZNSt3__110unique_ptrINS_15__thread_structENS_14default_deleteIS1_EEED1B9nqe220106Ev, symObjAddr: 0x23BF0, symBinAddr: 0x24B10, symSize: 0x40 }
  - { offset: 0xFC2DA, size: 0x8, addend: 0x0, symName: '__ZNSt3__110unique_ptrINS_5tupleIJNS0_INS_15__thread_structENS_14default_deleteIS2_EEEEZ23whisper_full_with_stateE3$_0EEENS3_IS7_EEED1B9nqe220106Ev', symObjAddr: 0x3E8A0, symBinAddr: 0x3F7C0, symSize: 0x50 }
  - { offset: 0xFC4A0, size: 0x8, addend: 0x0, symName: __ZNSt3__13mapIiiNS_4lessIiEENS_9allocatorINS_4pairIKiiEEEEED1B9nqe220106Ev, symObjAddr: 0x38520, symBinAddr: 0x39440, symSize: 0x30 }
  - { offset: 0xFC5CF, size: 0x8, addend: 0x0, symName: __ZNSt3__16vectorINS0_IPK23whisper_grammar_elementNS_9allocatorIS3_EEEENS4_IS6_EEED1B9nqe220106Ev, symObjAddr: 0x318B0, symBinAddr: 0x327D0, symSize: 0x70 }
  - { offset: 0xFC841, size: 0x8, addend: 0x0, symName: _whisper_full_with_state.cold.3, symObjAddr: 0x422D0, symBinAddr: 0x1BE2F0, symSize: 0x50 }
  - { offset: 0xFCAC1, size: 0x8, addend: 0x0, symName: _whisper_full_with_state.cold.2, symObjAddr: 0x42280, symBinAddr: 0x1BE2A0, symSize: 0x50 }
  - { offset: 0xFCD58, size: 0x8, addend: 0x0, symName: __ZNSt3__128__exception_guard_exceptionsINS_6vectorINS1_IPK23whisper_grammar_elementNS_9allocatorIS4_EEEENS5_IS7_EEE16__destroy_vectorEED1B9nqe220106Ev, symObjAddr: 0x37C00, symBinAddr: 0x38B20, symSize: 0x70 }
  - { offset: 0xFCFC2, size: 0x8, addend: 0x0, symName: __ZNSt3__16vectorINS0_I23whisper_grammar_elementNS_9allocatorIS1_EEEENS2_IS4_EEED1B9nqe220106Ev, symObjAddr: 0x31920, symBinAddr: 0x32840, symSize: 0x70 }
  - { offset: 0xFD234, size: 0x8, addend: 0x0, symName: _whisper_full_with_state.cold.1, symObjAddr: 0x42230, symBinAddr: 0x1BE250, symSize: 0x50 }
  - { offset: 0xFD5B8, size: 0x8, addend: 0x0, symName: __ZNSt3__16vectorIZ23whisper_full_with_stateE14beam_candidateNS_9allocatorIS1_EEED1B9nqe220106Ev, symObjAddr: 0x1BBB0, symBinAddr: 0x1CAD0, symSize: 0x70 }
  - { offset: 0xFD6DA, size: 0x8, addend: 0x0, symName: __ZN15whisper_grammaraSEOS_, symObjAddr: 0x171B0, symBinAddr: 0x180D0, symSize: 0x130 }
  - { offset: 0xFE74C, size: 0x8, addend: 0x0, symName: __ZNSt3__111basic_regexIcNS_12regex_traitsIcEEEC2B9nqe220106EPKcNS_15regex_constants18syntax_option_typeE, symObjAddr: 0x31E50, symBinAddr: 0x32D70, symSize: 0xC0 }
  - { offset: 0xFE930, size: 0x8, addend: 0x0, symName: __ZZNSt3__16vectorI25whisper_grammar_candidateNS_9allocatorIS1_EEE12emplace_backIJS1_EEEvDpOT_ENKUlvE0_clEv, symObjAddr: 0x362E0, symBinAddr: 0x37200, symSize: 0x110 }
  - { offset: 0xFEC8C, size: 0x8, addend: 0x0, symName: __ZZNSt3__16vectorINS_4pairINS0_IjNS_9allocatorIjEEEE20whisper_partial_utf8EENS2_IS6_EEE12emplace_backIJS6_EEEvDpOT_ENKUlvE0_clEv, symObjAddr: 0x360B0, symBinAddr: 0x36FD0, symSize: 0x110 }
  - { offset: 0xFF096, size: 0x8, addend: 0x0, symName: __ZL33whisper_grammar_reject_candidatesRKNSt3__16vectorINS0_I23whisper_grammar_elementNS_9allocatorIS1_EEEENS2_IS4_EEEERKNS0_INS0_IPKS1_NS2_ISA_EEEENS2_ISC_EEEERKNS0_I25whisper_grammar_candidateNS2_ISH_EEEE, symObjAddr: 0x35F50, symBinAddr: 0x36E70, symSize: 0xF0 }
  - { offset: 0xFF41F, size: 0x8, addend: 0x0, symName: __ZL22whisper_process_logitsR15whisper_contextR13whisper_stateR15whisper_decoder19whisper_full_paramsf.cold.1, symObjAddr: 0x42320, symBinAddr: 0x1BE340, symSize: 0x30 }
  - { offset: 0xFF437, size: 0x8, addend: 0x0, symName: __ZNSt3__16vectorINS_4pairINS0_IjNS_9allocatorIjEEEE20whisper_partial_utf8EENS2_IS6_EEED1B9nqe220106Ev, symObjAddr: 0x36040, symBinAddr: 0x36F60, symSize: 0x70 }
  - { offset: 0x1002F4, size: 0x8, addend: 0x0, symName: __ZNSt3__16vectorI12whisper_pairIdiENS_9allocatorIS2_EEE6resizeEm, symObjAddr: 0x373F0, symBinAddr: 0x38310, symSize: 0x170 }
  - { offset: 0x1008B5, size: 0x8, addend: 0x0, symName: __ZNSt3__121discrete_distributionIiE10param_type6__initEv, symObjAddr: 0x36F80, symBinAddr: 0x37EA0, symSize: 0x1C0 }
  - { offset: 0x100DD8, size: 0x8, addend: 0x0, symName: __ZNSt3__121discrete_distributionIiEclINS_23mersenne_twister_engineIjLm32ELm624ELm397ELm31ELj2567483615ELm11ELj4294967295ELm7ELj2636928640ELm15ELj4022730752ELm18ELj1812433253EEEEEiRT_RKNS1_10param_typeE, symObjAddr: 0x37220, symBinAddr: 0x38140, symSize: 0x1D0 }
  - { offset: 0x1010D3, size: 0x8, addend: 0x0, symName: __ZZNSt3__16vectorI18whisper_token_dataNS_9allocatorIS1_EEE12emplace_backIJS1_EEEvDpOT_ENKUlvE0_clEv, symObjAddr: 0x36E50, symBinAddr: 0x37D70, symSize: 0x120 }
  - { offset: 0x101424, size: 0x8, addend: 0x0, symName: __ZN15whisper_grammarC2ERKS_, symObjAddr: 0x37910, symBinAddr: 0x38830, symSize: 0x1A0 }
  - { offset: 0x1019FE, size: 0x8, addend: 0x0, symName: __ZZNSt3__16vectorIZ23whisper_full_with_stateE14beam_candidateNS_9allocatorIS1_EEE12emplace_backIJS1_EEEvDpOT_ENKUlvE0_clEv, symObjAddr: 0x37570, symBinAddr: 0x38490, symSize: 0x2B0 }
  - { offset: 0x102231, size: 0x8, addend: 0x0, symName: __ZNSt3__16vectorIdNS_9allocatorIdEEE20__throw_length_errorB9nqe220106Ev, symObjAddr: 0x37140, symBinAddr: 0x38060, symSize: 0x10 }
  - { offset: 0x102249, size: 0x8, addend: 0x0, symName: __ZNSt3__16vectorIdNS_9allocatorIdEEE13shrink_to_fitEv, symObjAddr: 0x37150, symBinAddr: 0x38070, symSize: 0xD0 }
  - { offset: 0x102254, size: 0x8, addend: 0x0, symName: __ZZ23whisper_full_with_stateEN14beam_candidateD1Ev, symObjAddr: 0x36D70, symBinAddr: 0x37C90, symSize: 0xE0 }
  - { offset: 0x102D3F, size: 0x8, addend: 0x0, symName: __ZN15whisper_segmentC2ERKS_, symObjAddr: 0x385A0, symBinAddr: 0x394C0, symSize: 0x130 }
  - { offset: 0x10330B, size: 0x8, addend: 0x0, symName: __ZNSt3__16vectorI18whisper_token_dataNS_9allocatorIS1_EEE18__insert_with_sizeB9nqe220106INS_17_ClassicAlgPolicyENS_11__wrap_iterIPS1_EES9_EES9_NS7_IPKS1_EET0_T1_l, symObjAddr: 0x386D0, symBinAddr: 0x395F0, symSize: 0x430 }
  - { offset: 0x104065, size: 0x8, addend: 0x0, symName: _whisper_full, symObjAddr: 0x1BC20, symBinAddr: 0x1CB40, symSize: 0x190 }
  - { offset: 0x104714, size: 0x8, addend: 0x0, symName: __ZL11whisper_vadP15whisper_contextP13whisper_state19whisper_full_paramsPKfiRNSt3__16vectorIfNS6_9allocatorIfEEEE, symObjAddr: 0x1BDB0, symBinAddr: 0x1CCD0, symSize: 0xB70 }
  - { offset: 0x106C17, size: 0x8, addend: 0x0, symName: __ZZNSt3__16vectorI16vad_time_mappingNS_9allocatorIS1_EEE12emplace_backIJRKS1_EEEvDpOT_ENKUlvE0_clEv, symObjAddr: 0x38B20, symBinAddr: 0x39A40, symSize: 0x110 }
  - { offset: 0x106F9D, size: 0x8, addend: 0x0, symName: __ZZNSt3__16vectorIN13whisper_state16vad_segment_infoENS_9allocatorIS2_EEE12emplace_backIJRKS2_EEEvDpOT_ENKUlvE0_clEv, symObjAddr: 0x38C30, symBinAddr: 0x39B50, symSize: 0x110 }
  - { offset: 0x107323, size: 0x8, addend: 0x0, symName: __ZZNSt3__16vectorI16vad_time_mappingNS_9allocatorIS1_EEE12emplace_backIJS1_EEEvDpOT_ENKUlvE0_clEv, symObjAddr: 0x38D40, symBinAddr: 0x39C60, symSize: 0x110 }
  - { offset: 0x10769E, size: 0x8, addend: 0x0, symName: __ZNSt3__16vectorIN13whisper_state16vad_segment_infoENS_9allocatorIS2_EEE20__throw_length_errorB9nqe220106Ev, symObjAddr: 0x38B00, symBinAddr: 0x39A20, symSize: 0x10 }
  - { offset: 0x1076B6, size: 0x8, addend: 0x0, symName: __ZNSt3__16vectorI16vad_time_mappingNS_9allocatorIS1_EEE20__throw_length_errorB9nqe220106Ev, symObjAddr: 0x38B10, symBinAddr: 0x39A30, symSize: 0x10 }
  - { offset: 0x1076C1, size: 0x8, addend: 0x0, symName: __ZNSt3__16vectorI16vad_time_mappingNS_9allocatorIS1_EEE20__throw_length_errorB9nqe220106Ev, symObjAddr: 0x38B10, symBinAddr: 0x39A30, symSize: 0x10 }
  - { offset: 0x1076D9, size: 0x8, addend: 0x0, symName: __ZZNSt3__16vectorI16vad_time_mappingNS_9allocatorIS1_EEE12emplace_backIJRKS1_EEEvDpOT_ENKUlvE0_clEv, symObjAddr: 0x38B20, symBinAddr: 0x39A40, symSize: 0x110 }
  - { offset: 0x107B55, size: 0x8, addend: 0x0, symName: _whisper_full_parallel, symObjAddr: 0x1C920, symBinAddr: 0x1D840, symSize: 0xAD0 }
  - { offset: 0x109378, size: 0x8, addend: 0x0, symName: __ZNSt3__16threadC2B9nqe220106IRFiP15whisper_contextP13whisper_state19whisper_full_paramsPKfiEJRS3_RS5_S6_S8_RKiELi0EEEOT_DpOT0_, symObjAddr: 0x41D90, symBinAddr: 0x42CB0, symSize: 0x120 }
  - { offset: 0x1098D1, size: 0x8, addend: 0x0, symName: __ZZNSt3__16vectorIP13whisper_stateNS_9allocatorIS2_EEE12emplace_backIJS2_EEEvDpOT_ENKUlvE0_clEv, symObjAddr: 0x41C70, symBinAddr: 0x42B90, symSize: 0x110 }
  - { offset: 0x109C4E, size: 0x8, addend: 0x0, symName: _whisper_full_n_segments_from_state, symObjAddr: 0x1D3F0, symBinAddr: 0x1E310, symSize: 0x20 }
  - { offset: 0x109C9C, size: 0x8, addend: 0x0, symName: _whisper_full_n_segments, symObjAddr: 0x1D410, symBinAddr: 0x1E330, symSize: 0x30 }
  - { offset: 0x109CEA, size: 0x8, addend: 0x0, symName: _whisper_full_lang_id_from_state, symObjAddr: 0x1D440, symBinAddr: 0x1E360, symSize: 0x10 }
  - { offset: 0x109D15, size: 0x8, addend: 0x0, symName: _whisper_full_lang_id, symObjAddr: 0x1D450, symBinAddr: 0x1E370, symSize: 0x20 }
  - { offset: 0x109E9E, size: 0x8, addend: 0x0, symName: _whisper_full_get_segment_t0_from_state, symObjAddr: 0x1D470, symBinAddr: 0x1E390, symSize: 0xF0 }
  - { offset: 0x10A1D5, size: 0x8, addend: 0x0, symName: _whisper_full_get_segment_t1_from_state, symObjAddr: 0x1D560, symBinAddr: 0x1E480, symSize: 0x1B0 }
  - { offset: 0x10A783, size: 0x8, addend: 0x0, symName: _whisper_full_get_segment_t0, symObjAddr: 0x1D710, symBinAddr: 0x1E630, symSize: 0x100 }
  - { offset: 0x10AAB2, size: 0x8, addend: 0x0, symName: _whisper_full_get_segment_t1, symObjAddr: 0x1D810, symBinAddr: 0x1E730, symSize: 0x20 }
  - { offset: 0x10AB05, size: 0x8, addend: 0x0, symName: _whisper_full_get_segment_speaker_turn_next_from_state, symObjAddr: 0x1D830, symBinAddr: 0x1E750, symSize: 0x20 }
  - { offset: 0x10AB6A, size: 0x8, addend: 0x0, symName: _whisper_full_get_segment_speaker_turn_next, symObjAddr: 0x1D850, symBinAddr: 0x1E770, symSize: 0x30 }
  - { offset: 0x10ABCF, size: 0x8, addend: 0x0, symName: _whisper_full_get_segment_text_from_state, symObjAddr: 0x1D880, symBinAddr: 0x1E7A0, symSize: 0x30 }
  - { offset: 0x10ACDC, size: 0x8, addend: 0x0, symName: _whisper_full_get_segment_text, symObjAddr: 0x1D8B0, symBinAddr: 0x1E7D0, symSize: 0x40 }
  - { offset: 0x10ADE9, size: 0x8, addend: 0x0, symName: _whisper_full_n_tokens_from_state, symObjAddr: 0x1D8F0, symBinAddr: 0x1E810, symSize: 0x30 }
  - { offset: 0x10AE74, size: 0x8, addend: 0x0, symName: _whisper_full_n_tokens, symObjAddr: 0x1D920, symBinAddr: 0x1E840, symSize: 0x40 }
  - { offset: 0x10AEFF, size: 0x8, addend: 0x0, symName: _whisper_full_get_token_text_from_state, symObjAddr: 0x1D960, symBinAddr: 0x1E880, symSize: 0xF0 }
  - { offset: 0x10B3FD, size: 0x8, addend: 0x0, symName: _whisper_full_get_token_text, symObjAddr: 0x1DA50, symBinAddr: 0x1E970, symSize: 0x100 }
  - { offset: 0x10B8AC, size: 0x8, addend: 0x0, symName: _whisper_full_get_token_id_from_state, symObjAddr: 0x1DB50, symBinAddr: 0x1EA70, symSize: 0x30 }
  - { offset: 0x10B94B, size: 0x8, addend: 0x0, symName: _whisper_full_get_token_id, symObjAddr: 0x1DB80, symBinAddr: 0x1EAA0, symSize: 0x30 }
  - { offset: 0x10B9EA, size: 0x8, addend: 0x0, symName: _whisper_full_get_token_data_from_state, symObjAddr: 0x1DBB0, symBinAddr: 0x1EAD0, symSize: 0x50 }
  - { offset: 0x10BA8D, size: 0x8, addend: 0x0, symName: _whisper_full_get_token_data, symObjAddr: 0x1DC00, symBinAddr: 0x1EB20, symSize: 0x50 }
  - { offset: 0x10BBBE, size: 0x8, addend: 0x0, symName: _whisper_full_get_token_t0_from_state, symObjAddr: 0x1DC50, symBinAddr: 0x1EB70, symSize: 0x140 }
  - { offset: 0x10BD36, size: 0x8, addend: 0x0, symName: _whisper_full_get_token_t0, symObjAddr: 0x1DD90, symBinAddr: 0x1ECB0, symSize: 0x140 }
  - { offset: 0x10BEB7, size: 0x8, addend: 0x0, symName: _whisper_full_get_token_t1_from_state, symObjAddr: 0x1DED0, symBinAddr: 0x1EDF0, symSize: 0x240 }
  - { offset: 0x10C0CA, size: 0x8, addend: 0x0, symName: _whisper_full_get_token_t1, symObjAddr: 0x1E110, symBinAddr: 0x1F030, symSize: 0x20 }
  - { offset: 0x10C134, size: 0x8, addend: 0x0, symName: _whisper_full_n_vad_segments_from_state, symObjAddr: 0x1E130, symBinAddr: 0x1F050, symSize: 0x20 }
  - { offset: 0x10C182, size: 0x8, addend: 0x0, symName: _whisper_full_n_vad_segments, symObjAddr: 0x1E150, symBinAddr: 0x1F070, symSize: 0x20 }
  - { offset: 0x10C1F2, size: 0x8, addend: 0x0, symName: _whisper_full_get_vad_segment_t0_from_state, symObjAddr: 0x1E170, symBinAddr: 0x1F090, symSize: 0x20 }
  - { offset: 0x10C257, size: 0x8, addend: 0x0, symName: _whisper_full_get_vad_segment_t0, symObjAddr: 0x1E190, symBinAddr: 0x1F0B0, symSize: 0x20 }
  - { offset: 0x10C2BA, size: 0x8, addend: 0x0, symName: _whisper_full_get_vad_segment_t1_from_state, symObjAddr: 0x1E1B0, symBinAddr: 0x1F0D0, symSize: 0x20 }
  - { offset: 0x10C31F, size: 0x8, addend: 0x0, symName: _whisper_full_get_vad_segment_t1, symObjAddr: 0x1E1D0, symBinAddr: 0x1F0F0, symSize: 0x20 }
  - { offset: 0x10C384, size: 0x8, addend: 0x0, symName: _whisper_full_get_token_p_from_state, symObjAddr: 0x1E1F0, symBinAddr: 0x1F110, symSize: 0x30 }
  - { offset: 0x10C428, size: 0x8, addend: 0x0, symName: _whisper_full_get_token_p, symObjAddr: 0x1E220, symBinAddr: 0x1F140, symSize: 0x40 }
  - { offset: 0x10C4CC, size: 0x8, addend: 0x0, symName: _whisper_full_get_segment_no_speech_prob, symObjAddr: 0x1E260, symBinAddr: 0x1F180, symSize: 0x30 }
  - { offset: 0x10C531, size: 0x8, addend: 0x0, symName: _whisper_full_get_segment_no_speech_prob_from_state, symObjAddr: 0x1E290, symBinAddr: 0x1F1B0, symSize: 0x20 }
  - { offset: 0x10C596, size: 0x8, addend: 0x0, symName: _whisper_bench_memcpy, symObjAddr: 0x1E2B0, symBinAddr: 0x1F1D0, symSize: 0x20 }
  - { offset: 0x10C9B0, size: 0x8, addend: 0x0, symName: _whisper_bench_memcpy_str.cold.1, symObjAddr: 0x42350, symBinAddr: 0x1BE370, symSize: 0x50 }
  - { offset: 0x10C9F6, size: 0x8, addend: 0x0, symName: '__ZNSt3__110unique_ptrINS_5tupleIJNS0_INS_15__thread_structENS_14default_deleteIS2_EEEEZ24whisper_bench_memcpy_strE3$_0iEEENS3_IS7_EEED1B9nqe220106Ev', symObjAddr: 0x42130, symBinAddr: 0x43050, symSize: 0x50 }
  - { offset: 0x10CBBC, size: 0x8, addend: 0x0, symName: _whisper_bench_ggml_mul_mat, symObjAddr: 0x1EFF0, symBinAddr: 0x1FF10, symSize: 0x20 }
  - { offset: 0x10D021, size: 0x8, addend: 0x0, symName: _whisper_bench_ggml_mul_mat_str.cold.1, symObjAddr: 0x423A0, symBinAddr: 0x1BE3C0, symSize: 0x50 }
  - { offset: 0x10D067, size: 0x8, addend: 0x0, symName: _whisper_log_set, symObjAddr: 0x1F820, symBinAddr: 0x20740, symSize: 0x30 }
  - { offset: 0x10D0B6, size: 0x8, addend: 0x0, symName: __ZL28whisper_log_callback_default14ggml_log_levelPKcPv, symObjAddr: 0x1F850, symBinAddr: 0x20770, symSize: 0x30 }
  - { offset: 0x10D11C, size: 0x8, addend: 0x0, symName: _whisper_version, symObjAddr: 0x1F880, symBinAddr: 0x207A0, symSize: 0x10 }
  - { offset: 0x10D517, size: 0x8, addend: 0x0, symName: __ZNSt3__16__treeINS_12__value_typeI10asr_tensorPKcEENS_19__map_value_compareIS2_NS_4pairIKS2_S4_EENS_4lessIS2_EEEENS_9allocatorIS9_EEE21__construct_from_treeB9nqe220106IZNSF_21__copy_construct_treeB9nqe220106EPNS_11__tree_nodeIS5_PvEEEUlRKS9_E_EESK_SK_T_, symObjAddr: 0x1F890, symBinAddr: 0x207B0, symSize: 0xD0 }
  - { offset: 0x10D974, size: 0x8, addend: 0x0, symName: __ZNSt3__110unique_ptrINS_11__tree_nodeINS_12__value_typeI10asr_tensorPKcEEPvEENS_6__treeIS6_NS_19__map_value_compareIS3_NS_4pairIKS3_S5_EENS_4lessIS3_EEEENS_9allocatorISD_EEE14__tree_deleterEED1B9nqe220106Ev, symObjAddr: 0x1F960, symBinAddr: 0x20880, symSize: 0x30 }
  - { offset: 0x10DC9A, size: 0x8, addend: 0x0, symName: __ZN15whisper_decoderD2Ev, symObjAddr: 0x20150, symBinAddr: 0x21070, symSize: 0x130 }
  - { offset: 0x10E95A, size: 0x8, addend: 0x0, symName: __ZNSt12length_errorC1B9nqe220106EPKc, symObjAddr: 0x20440, symBinAddr: 0x21360, symSize: 0x30 }
  - { offset: 0x10F024, size: 0x8, addend: 0x0, symName: __ZNSt3__16vectorI15whisper_kv_cellNS_9allocatorIS1_EEE20__throw_length_errorB9nqe220106Ev, symObjAddr: 0x20700, symBinAddr: 0x21620, symSize: 0x10 }
  - { offset: 0x10F03C, size: 0x8, addend: 0x0, symName: __ZL28get_alignment_heads_by_layerRK22whisper_context_paramsiii, symObjAddr: 0x20710, symBinAddr: 0x21630, symSize: 0x1B0 }
  - { offset: 0x10F273, size: 0x8, addend: 0x0, symName: __ZZNSt3__16vectorIjNS_9allocatorIjEEE12emplace_backIJjEEEvDpOT_ENKUlvE0_clEv, symObjAddr: 0x20940, symBinAddr: 0x21860, symSize: 0x110 }
  - { offset: 0x10F5E8, size: 0x8, addend: 0x0, symName: __ZNSt12out_of_rangeC1B9nqe220106EPKc, symObjAddr: 0x20910, symBinAddr: 0x21830, symSize: 0x30 }
  - { offset: 0x10F823, size: 0x8, addend: 0x0, symName: __ZNSt3__16vectorIjNS_9allocatorIjEEE20__throw_length_errorB9nqe220106Ev, symObjAddr: 0x20A50, symBinAddr: 0x21970, symSize: 0x10 }
  - { offset: 0x10F83B, size: 0x8, addend: 0x0, symName: __ZZNSt3__16vectorIP11ggml_tensorNS_9allocatorIS2_EEE12emplace_backIJS2_EEEvDpOT_ENKUlvE0_clEv, symObjAddr: 0x20A60, symBinAddr: 0x21980, symSize: 0x110 }
  - { offset: 0x10FA5D, size: 0x8, addend: 0x0, symName: __ZNSt3__16vectorIP11ggml_tensorNS_9allocatorIS2_EEE20__throw_length_errorB9nqe220106Ev, symObjAddr: 0x20B70, symBinAddr: 0x21A90, symSize: 0x10 }
  - { offset: 0x10FA75, size: 0x8, addend: 0x0, symName: __ZNSt3__112basic_stringIcNS_11char_traitsIcEENS_9allocatorIcEEE20__throw_out_of_rangeB9nqe220106Ev, symObjAddr: 0x20B80, symBinAddr: 0x21AA0, symSize: 0x10 }
  - { offset: 0x10FAD4, size: 0x8, addend: 0x0, symName: __ZNSt3__117bad_function_callD1Ev, symObjAddr: 0x20BE0, symBinAddr: 0x21B00, symSize: 0x10 }
  - { offset: 0x10FB2D, size: 0x8, addend: 0x0, symName: __ZNSt3__117bad_function_callD0Ev, symObjAddr: 0x20BF0, symBinAddr: 0x21B10, symSize: 0x20 }
  - { offset: 0x10FBF0, size: 0x8, addend: 0x0, symName: '__ZZ43whisper_init_from_file_with_params_no_stateEN3$_08__invokeEPvS0_m', symObjAddr: 0x20C10, symBinAddr: 0x21B30, symSize: 0x20 }
  - { offset: 0x10FCDF, size: 0x8, addend: 0x0, symName: '__ZZ43whisper_init_from_file_with_params_no_stateEN3$_18__invokeEPv', symObjAddr: 0x20C30, symBinAddr: 0x21B50, symSize: 0x20 }
  - { offset: 0x10FDCC, size: 0x8, addend: 0x0, symName: '__ZZ43whisper_init_from_file_with_params_no_stateEN3$_28__invokeEPv', symObjAddr: 0x20C50, symBinAddr: 0x21B70, symSize: 0x40 }
  - { offset: 0x10FEE7, size: 0x8, addend: 0x0, symName: '__ZZ45whisper_init_from_buffer_with_params_no_stateEN3$_08__invokeEPvS0_m', symObjAddr: 0x20C90, symBinAddr: 0x21BB0, symSize: 0x40 }
  - { offset: 0x10FFB6, size: 0x8, addend: 0x0, symName: '__ZZ45whisper_init_from_buffer_with_params_no_stateEN3$_18__invokeEPv', symObjAddr: 0x20CD0, symBinAddr: 0x21BF0, symSize: 0x20 }
  - { offset: 0x10FFF4, size: 0x8, addend: 0x0, symName: '__ZZ45whisper_init_from_buffer_with_params_no_stateEN3$_28__invokeEPv', symObjAddr: 0x20CF0, symBinAddr: 0x21C10, symSize: 0x10 }
  - { offset: 0x110482, size: 0x8, addend: 0x0, symName: __ZNSt3__16vectorI21whisper_layer_encoderNS_9allocatorIS1_EEE20__throw_length_errorB9nqe220106Ev, symObjAddr: 0x21B00, symBinAddr: 0x22A20, symSize: 0x10 }
  - { offset: 0x11049A, size: 0x8, addend: 0x0, symName: __ZNSt3__16vectorI21whisper_layer_decoderNS_9allocatorIS1_EEE20__throw_length_errorB9nqe220106Ev, symObjAddr: 0x21B10, symBinAddr: 0x22A30, symSize: 0x10 }
  - { offset: 0x110912, size: 0x8, addend: 0x0, symName: __ZNSt3__16vectorI21whisper_layer_decoderNS_9allocatorIS1_EEE20__throw_length_errorB9nqe220106Ev, symObjAddr: 0x21B10, symBinAddr: 0x22A30, symSize: 0x10 }
  - { offset: 0x11092A, size: 0x8, addend: 0x0, symName: __ZL6formatPKcz, symObjAddr: 0x21B20, symBinAddr: 0x22A40, symSize: 0x200 }
  - { offset: 0x110EB2, size: 0x8, addend: 0x0, symName: __ZNKSt3__13mapI10asr_systemNS0_I10asr_tensorPKcNS_4lessIS2_EENS_9allocatorINS_4pairIKS2_S4_EEEEEENS5_IS1_EENS7_INS8_IKS1_SC_EEEEE2atERSE_, symObjAddr: 0x21D20, symBinAddr: 0x22C40, symSize: 0x50 }
  - { offset: 0x110FC2, size: 0x8, addend: 0x0, symName: __ZNKSt3__13mapI10asr_tensorPKcNS_4lessIS1_EENS_9allocatorINS_4pairIKS1_S3_EEEEE2atERS8_, symObjAddr: 0x21D70, symBinAddr: 0x22C90, symSize: 0x50 }
  - { offset: 0x1110D2, size: 0x8, addend: 0x0, symName: '__ZZL18whisper_model_loadP20whisper_model_loaderR15whisper_contextENK3$_1clE10asr_tensor10asr_systemP11ggml_tensori.cold.1', symObjAddr: 0x423F0, symBinAddr: 0x1BE410, symSize: 0x20 }
  - { offset: 0x11158E, size: 0x8, addend: 0x0, symName: __ZNSt3__110unique_ptrINS_11__tree_nodeINS_12__value_typeINS_12basic_stringIcNS_11char_traitsIcEENS_9allocatorIcEEEEiEEPvEENS_22__tree_node_destructorINS6_ISB_EEEEED1B9nqe220106Ev, symObjAddr: 0x21920, symBinAddr: 0x22840, symSize: 0x50 }
  - { offset: 0x111BC4, size: 0x8, addend: 0x0, symName: __ZNSt3__16vectorIP12ggml_contextNS_9allocatorIS2_EEE20__throw_length_errorB9nqe220106Ev, symObjAddr: 0x21F10, symBinAddr: 0x22E30, symSize: 0x10 }
  - { offset: 0x111BDC, size: 0x8, addend: 0x0, symName: __ZNSt3__16__treeINS_12__value_typeIiNS_12basic_stringIcNS_11char_traitsIcEENS_9allocatorIcEEEEEENS_19__map_value_compareIiNS_4pairIKiS7_EENS_4lessIiEEEENS5_ISC_EEE14__tree_deleterclB9nqe220106EPNS_11__tree_nodeIS8_PvEE, symObjAddr: 0x21F20, symBinAddr: 0x22E40, symSize: 0x60 }
  - { offset: 0x11205D, size: 0x8, addend: 0x0, symName: __ZNSt3__16__treeINS_12__value_typeINS_12basic_stringIcNS_11char_traitsIcEENS_9allocatorIcEEEEP11ggml_tensorEENS_19__map_value_compareIS7_NS_4pairIKS7_S9_EENS_4lessIS7_EEEENS5_ISE_EEE14__tree_deleterclB9nqe220106EPNS_11__tree_nodeISA_PvEE, symObjAddr: 0x22090, symBinAddr: 0x22FB0, symSize: 0x60 }
  - { offset: 0x11271F, size: 0x8, addend: 0x0, symName: __ZL3fftPfiS_, symObjAddr: 0x22ED0, symBinAddr: 0x23DF0, symSize: 0xB00 }
  - { offset: 0x113082, size: 0x8, addend: 0x0, symName: __ZNSt3__110unique_ptrINS_5tupleIJNS0_INS_15__thread_structENS_14default_deleteIS2_EEEEPFviPKfRKNS_6vectorIfNS_9allocatorIfEEEEiiiiRK15whisper_filtersR11whisper_melEiS7_NS_17reference_wrapperISC_EExiiiNSL_ISF_EENSL_ISH_EEEEENS3_ISP_EEED1B9nqe220106Ev, symObjAddr: 0x23BA0, symBinAddr: 0x24AC0, symSize: 0x50 }
  - { offset: 0x11361D, size: 0x8, addend: 0x0, symName: __ZL27whisper_build_graph_encoderR15whisper_contextR13whisper_state.cold.1, symObjAddr: 0x42410, symBinAddr: 0x1BE430, symSize: 0x30 }
  - { offset: 0x113679, size: 0x8, addend: 0x0, symName: __ZL27whisper_build_graph_decoderR15whisper_contextR13whisper_stateRK13whisper_batchbb.cold.1, symObjAddr: 0x42440, symBinAddr: 0x1BE460, symSize: 0x30 }
  - { offset: 0x11372B, size: 0x8, addend: 0x0, symName: __ZNSt3__111basic_regexIcNS_12regex_traitsIcEEE7__parseINS_11__wrap_iterIPKcEEEET_S9_S9_, symObjAddr: 0x25A40, symBinAddr: 0x26960, symSize: 0x1D0 }
  - { offset: 0x113C9F, size: 0x8, addend: 0x0, symName: __ZNSt3__110shared_ptrINS_13__empty_stateIcEEED1B9nqe220106Ev, symObjAddr: 0x25A00, symBinAddr: 0x26920, symSize: 0x40 }
  - { offset: 0x1141C9, size: 0x8, addend: 0x0, symName: __ZNSt3__111basic_regexIcNS_12regex_traitsIcEEE13__parse_egrepINS_11__wrap_iterIPKcEEEET_S9_S9_, symObjAddr: 0x26370, symBinAddr: 0x27290, symSize: 0x1E0 }
  - { offset: 0x1148AB, size: 0x8, addend: 0x0, symName: __ZNSt3__111basic_regexIcNS_12regex_traitsIcEEE24__parse_extended_reg_expINS_11__wrap_iterIPKcEEEET_S9_S9_, symObjAddr: 0x26000, symBinAddr: 0x26F20, symSize: 0x190 }
  - { offset: 0x114D53, size: 0x8, addend: 0x0, symName: __ZNSt3__111basic_regexIcNS_12regex_traitsIcEEE21__parse_basic_reg_expINS_11__wrap_iterIPKcEEEET_S9_S9_, symObjAddr: 0x25EC0, symBinAddr: 0x26DE0, symSize: 0x140 }
  - { offset: 0x1151F0, size: 0x8, addend: 0x0, symName: __ZNSt3__111basic_regexIcNS_12regex_traitsIcEEE12__parse_grepINS_11__wrap_iterIPKcEEEET_S9_S9_, symObjAddr: 0x26190, symBinAddr: 0x270B0, symSize: 0x1E0 }
  - { offset: 0x1158D2, size: 0x8, addend: 0x0, symName: __ZNSt3__111basic_regexIcNS_12regex_traitsIcEEE16__parse_ecma_expINS_11__wrap_iterIPKcEEEET_S9_S9_, symObjAddr: 0x25C60, symBinAddr: 0x26B80, symSize: 0x260 }
  - { offset: 0x11623B, size: 0x8, addend: 0x0, symName: __ZNSt3__111basic_regexIcNS_12regex_traitsIcEEE17__parse_assertionINS_11__wrap_iterIPKcEEEET_S9_S9_, symObjAddr: 0x26770, symBinAddr: 0x27690, symSize: 0x2D0 }
  - { offset: 0x1169F5, size: 0x8, addend: 0x0, symName: __ZNSt3__111basic_regexIcNS_12regex_traitsIcEEE12__parse_atomINS_11__wrap_iterIPKcEEEET_S9_S9_, symObjAddr: 0x26A40, symBinAddr: 0x27960, symSize: 0x2A0 }
  - { offset: 0x116EB4, size: 0x8, addend: 0x0, symName: __ZNSt3__111basic_regexIcNS_12regex_traitsIcEEE23__parse_ERE_dupl_symbolINS_11__wrap_iterIPKcEEEET_S9_S9_PNS_16__owns_one_stateIcEEjj, symObjAddr: 0x26CE0, symBinAddr: 0x27C00, symSize: 0x3F0 }
  - { offset: 0x117837, size: 0x8, addend: 0x0, symName: __ZNSt3__111basic_regexIcNS_12regex_traitsIcEEE18__parse_nondupl_REINS_11__wrap_iterIPKcEEEET_S9_S9_, symObjAddr: 0x2D990, symBinAddr: 0x2E8B0, symSize: 0x2D0 }
  - { offset: 0x11817A, size: 0x8, addend: 0x0, symName: __ZNSt3__111basic_regexIcNS_12regex_traitsIcEEE22__parse_RE_dupl_symbolINS_11__wrap_iterIPKcEEEET_S9_S9_PNS_16__owns_one_stateIcEEjj, symObjAddr: 0x2DC60, symBinAddr: 0x2EB80, symSize: 0x260 }
  - { offset: 0x118A0E, size: 0x8, addend: 0x0, symName: __ZNSt3__111basic_regexIcNS_12regex_traitsIcEEE22__parse_ERE_expressionINS_11__wrap_iterIPKcEEEET_S9_S9_, symObjAddr: 0x2DFC0, symBinAddr: 0x2EEE0, symSize: 0x240 }
  - { offset: 0x118FFD, size: 0x8, addend: 0x0, symName: __ZNSt3__111__end_stateIcED1Ev, symObjAddr: 0x265A0, symBinAddr: 0x274C0, symSize: 0x10 }
  - { offset: 0x119029, size: 0x8, addend: 0x0, symName: __ZNSt3__111__end_stateIcED0Ev, symObjAddr: 0x265B0, symBinAddr: 0x274D0, symSize: 0x10 }
  - { offset: 0x11904A, size: 0x8, addend: 0x0, symName: __ZNKSt3__111__end_stateIcE6__execERNS_7__stateIcEE, symObjAddr: 0x265C0, symBinAddr: 0x274E0, symSize: 0x10 }
  - { offset: 0x11907E, size: 0x8, addend: 0x0, symName: __ZNKSt3__16__nodeIcE12__exec_splitEbRNS_7__stateIcEE, symObjAddr: 0x265D0, symBinAddr: 0x274F0, symSize: 0x10 }
  - { offset: 0x1190C5, size: 0x8, addend: 0x0, symName: __ZNKSt3__16__nodeIcE6__execERNS_7__stateIcEE, symObjAddr: 0x265E0, symBinAddr: 0x27500, symSize: 0x10 }
  - { offset: 0x119111, size: 0x8, addend: 0x0, symName: __ZNSt3__120__shared_ptr_pointerIPNS_13__empty_stateIcEENS_10shared_ptrIS2_E27__shared_ptr_default_deleteIS2_S2_EENS_9allocatorIS2_EEED1Ev, symObjAddr: 0x265F0, symBinAddr: 0x27510, symSize: 0x10 }
  - { offset: 0x11916C, size: 0x8, addend: 0x0, symName: __ZNSt3__120__shared_ptr_pointerIPNS_13__empty_stateIcEENS_10shared_ptrIS2_E27__shared_ptr_default_deleteIS2_S2_EENS_9allocatorIS2_EEED0Ev, symObjAddr: 0x26600, symBinAddr: 0x27520, symSize: 0x20 }
  - { offset: 0x1191D5, size: 0x8, addend: 0x0, symName: __ZNSt3__120__shared_ptr_pointerIPNS_13__empty_stateIcEENS_10shared_ptrIS2_E27__shared_ptr_default_deleteIS2_S2_EENS_9allocatorIS2_EEE16__on_zero_sharedEv, symObjAddr: 0x26620, symBinAddr: 0x27540, symSize: 0x20 }
  - { offset: 0x11926C, size: 0x8, addend: 0x0, symName: __ZNKSt3__120__shared_ptr_pointerIPNS_13__empty_stateIcEENS_10shared_ptrIS2_E27__shared_ptr_default_deleteIS2_S2_EENS_9allocatorIS2_EEE13__get_deleterERKSt9type_info, symObjAddr: 0x26640, symBinAddr: 0x27560, symSize: 0x20 }
  - { offset: 0x119337, size: 0x8, addend: 0x0, symName: __ZNSt3__120__shared_ptr_pointerIPNS_13__empty_stateIcEENS_10shared_ptrIS2_E27__shared_ptr_default_deleteIS2_S2_EENS_9allocatorIS2_EEE21__on_zero_shared_weakEv, symObjAddr: 0x26660, symBinAddr: 0x27580, symSize: 0x10 }
  - { offset: 0x1193D0, size: 0x8, addend: 0x0, symName: __ZNSt3__113__empty_stateIcED1Ev, symObjAddr: 0x26670, symBinAddr: 0x27590, symSize: 0x30 }
  - { offset: 0x119441, size: 0x8, addend: 0x0, symName: __ZNSt3__113__empty_stateIcED0Ev, symObjAddr: 0x266A0, symBinAddr: 0x275C0, symSize: 0x40 }
  - { offset: 0x119467, size: 0x8, addend: 0x0, symName: __ZNSt3__113__empty_stateIcED0Ev, symObjAddr: 0x266A0, symBinAddr: 0x275C0, symSize: 0x40 }
  - { offset: 0x119487, size: 0x8, addend: 0x0, symName: __ZNSt3__113__empty_stateIcED0Ev, symObjAddr: 0x266A0, symBinAddr: 0x275C0, symSize: 0x40 }
  - { offset: 0x1194A7, size: 0x8, addend: 0x0, symName: __ZNSt3__113__empty_stateIcED0Ev, symObjAddr: 0x266A0, symBinAddr: 0x275C0, symSize: 0x40 }
  - { offset: 0x1194EF, size: 0x8, addend: 0x0, symName: __ZNKSt3__113__empty_stateIcE6__execERNS_7__stateIcEE, symObjAddr: 0x266E0, symBinAddr: 0x27600, symSize: 0x20 }
  - { offset: 0x119542, size: 0x8, addend: 0x0, symName: __ZNSt3__116__owns_one_stateIcED1Ev, symObjAddr: 0x26700, symBinAddr: 0x27620, symSize: 0x30 }
  - { offset: 0x1195AC, size: 0x8, addend: 0x0, symName: __ZNSt3__116__owns_one_stateIcED0Ev, symObjAddr: 0x26730, symBinAddr: 0x27650, symSize: 0x40 }
  - { offset: 0x1195DA, size: 0x8, addend: 0x0, symName: __ZNSt3__116__owns_one_stateIcED0Ev, symObjAddr: 0x26730, symBinAddr: 0x27650, symSize: 0x40 }
  - { offset: 0x1195FA, size: 0x8, addend: 0x0, symName: __ZNSt3__116__owns_one_stateIcED0Ev, symObjAddr: 0x26730, symBinAddr: 0x27650, symSize: 0x40 }
  - { offset: 0x11970D, size: 0x8, addend: 0x0, symName: __ZNSt3__111basic_regexIcNS_12regex_traitsIcEEEC1B9nqe220106Ev, symObjAddr: 0x270D0, symBinAddr: 0x27FF0, symSize: 0x60 }
  - { offset: 0x1197E0, size: 0x8, addend: 0x0, symName: __ZNSt3__111basic_regexIcNS_12regex_traitsIcEEE16__push_lookaheadERKS3_bj, symObjAddr: 0x27130, symBinAddr: 0x28050, symSize: 0xB0 }
  - { offset: 0x119BAF, size: 0x8, addend: 0x0, symName: __ZNSt3__111basic_regexIcNS_12regex_traitsIcEEE19__parse_atom_escapeINS_11__wrap_iterIPKcEEEET_S9_S9_, symObjAddr: 0x28930, symBinAddr: 0x29850, symSize: 0x100 }
  - { offset: 0x119E76, size: 0x8, addend: 0x0, symName: __ZNSt3__111basic_regexIcNS_12regex_traitsIcEEE26__parse_bracket_expressionINS_11__wrap_iterIPKcEEEET_S9_S9_, symObjAddr: 0x28A30, symBinAddr: 0x29950, symSize: 0x150 }
  - { offset: 0x11A1BA, size: 0x8, addend: 0x0, symName: __ZNSt3__111basic_regexIcNS_12regex_traitsIcEEE25__parse_pattern_characterINS_11__wrap_iterIPKcEEEET_S9_S9_, symObjAddr: 0x28BD0, symBinAddr: 0x29AF0, symSize: 0x1B0 }
  - { offset: 0x11A3BD, size: 0x8, addend: 0x0, symName: __ZNSt3__111basic_regexIcNS_12regex_traitsIcEEE11__push_loopEmmPNS_16__owns_one_stateIcEEmmb, symObjAddr: 0x2D160, symBinAddr: 0x2E080, symSize: 0x150 }
  - { offset: 0x11A9ED, size: 0x8, addend: 0x0, symName: __ZNSt3__120__l_anchor_multilineIcED1Ev, symObjAddr: 0x27230, symBinAddr: 0x28150, symSize: 0x30 }
  - { offset: 0x11AA7B, size: 0x8, addend: 0x0, symName: __ZNSt3__120__l_anchor_multilineIcED0Ev, symObjAddr: 0x27260, symBinAddr: 0x28180, symSize: 0x40 }
  - { offset: 0x11AAAC, size: 0x8, addend: 0x0, symName: __ZNSt3__120__l_anchor_multilineIcED0Ev, symObjAddr: 0x27260, symBinAddr: 0x28180, symSize: 0x40 }
  - { offset: 0x11AACC, size: 0x8, addend: 0x0, symName: __ZNSt3__120__l_anchor_multilineIcED0Ev, symObjAddr: 0x27260, symBinAddr: 0x28180, symSize: 0x40 }
  - { offset: 0x11AAEC, size: 0x8, addend: 0x0, symName: __ZNSt3__120__l_anchor_multilineIcED0Ev, symObjAddr: 0x27260, symBinAddr: 0x28180, symSize: 0x40 }
  - { offset: 0x11AB18, size: 0x8, addend: 0x0, symName: __ZNKSt3__120__l_anchor_multilineIcE6__execERNS_7__stateIcEE, symObjAddr: 0x272A0, symBinAddr: 0x281C0, symSize: 0x60 }
  - { offset: 0x11AB7D, size: 0x8, addend: 0x0, symName: __ZNSt3__120__r_anchor_multilineIcED1Ev, symObjAddr: 0x27300, symBinAddr: 0x28220, symSize: 0x30 }
  - { offset: 0x11AC0B, size: 0x8, addend: 0x0, symName: __ZNSt3__120__r_anchor_multilineIcED0Ev, symObjAddr: 0x27330, symBinAddr: 0x28250, symSize: 0x40 }
  - { offset: 0x11AC3C, size: 0x8, addend: 0x0, symName: __ZNSt3__120__r_anchor_multilineIcED0Ev, symObjAddr: 0x27330, symBinAddr: 0x28250, symSize: 0x40 }
  - { offset: 0x11AC5C, size: 0x8, addend: 0x0, symName: __ZNSt3__120__r_anchor_multilineIcED0Ev, symObjAddr: 0x27330, symBinAddr: 0x28250, symSize: 0x40 }
  - { offset: 0x11AC7C, size: 0x8, addend: 0x0, symName: __ZNSt3__120__r_anchor_multilineIcED0Ev, symObjAddr: 0x27330, symBinAddr: 0x28250, symSize: 0x40 }
  - { offset: 0x11ACA8, size: 0x8, addend: 0x0, symName: __ZNKSt3__120__r_anchor_multilineIcE6__execERNS_7__stateIcEE, symObjAddr: 0x27370, symBinAddr: 0x28290, symSize: 0x60 }
  - { offset: 0x11AD37, size: 0x8, addend: 0x0, symName: __ZNSt3__115__word_boundaryIcNS_12regex_traitsIcEEED1Ev, symObjAddr: 0x273D0, symBinAddr: 0x282F0, symSize: 0x50 }
  - { offset: 0x11AE03, size: 0x8, addend: 0x0, symName: __ZNSt3__115__word_boundaryIcNS_12regex_traitsIcEEED0Ev, symObjAddr: 0x27420, symBinAddr: 0x28340, symSize: 0x50 }
  - { offset: 0x11AF34, size: 0x8, addend: 0x0, symName: __ZNKSt3__115__word_boundaryIcNS_12regex_traitsIcEEE6__execERNS_7__stateIcEE, symObjAddr: 0x27470, symBinAddr: 0x28390, symSize: 0x100 }
  - { offset: 0x11B12A, size: 0x8, addend: 0x0, symName: __ZNSt3__111__lookaheadIcNS_12regex_traitsIcEEED1Ev, symObjAddr: 0x27570, symBinAddr: 0x28490, symSize: 0x90 }
  - { offset: 0x11B2EB, size: 0x8, addend: 0x0, symName: __ZNSt3__111__lookaheadIcNS_12regex_traitsIcEEED0Ev, symObjAddr: 0x27600, symBinAddr: 0x28520, symSize: 0x90 }
  - { offset: 0x11B578, size: 0x8, addend: 0x0, symName: __ZNKSt3__111__lookaheadIcNS_12regex_traitsIcEEE6__execERNS_7__stateIcEE, symObjAddr: 0x27690, symBinAddr: 0x285B0, symSize: 0x1A0 }
  - { offset: 0x11BB7B, size: 0x8, addend: 0x0, symName: __ZNSt3__16vectorINS_9sub_matchIPKcEENS_9allocatorIS4_EEE6assignEmRKS4_, symObjAddr: 0x27CD0, symBinAddr: 0x28BF0, symSize: 0x290 }
  - { offset: 0x11C1BF, size: 0x8, addend: 0x0, symName: __ZNSt3__16vectorINS_9sub_matchIPKcEENS_9allocatorIS4_EEE20__throw_length_errorB9nqe220106Ev, symObjAddr: 0x27F60, symBinAddr: 0x28E80, symSize: 0x10 }
  - { offset: 0x11C1CA, size: 0x8, addend: 0x0, symName: __ZNKSt3__111basic_regexIcNS_12regex_traitsIcEEE21__match_at_start_ecmaINS_9allocatorINS_9sub_matchIPKcEEEEEEbS8_S8_RNS_13match_resultsIS8_T_EENS_15regex_constants15match_flag_typeEb, symObjAddr: 0x27830, symBinAddr: 0x28750, symSize: 0x4A0 }
  - { offset: 0x11DA32, size: 0x8, addend: 0x0, symName: __ZNSt3__16vectorINS_7__stateIcEENS_9allocatorIS2_EEE24__emplace_back_slow_pathIJS2_EEEPS2_DpOT_, symObjAddr: 0x283B0, symBinAddr: 0x292D0, symSize: 0x1D0 }
  - { offset: 0x11E0EC, size: 0x8, addend: 0x0, symName: __ZNSt3__16vectorINS_9sub_matchIPKcEENS_9allocatorIS4_EEE6resizeEmRKS4_, symObjAddr: 0x27FB0, symBinAddr: 0x28ED0, symSize: 0x1A0 }
  - { offset: 0x11E689, size: 0x8, addend: 0x0, symName: __ZNSt3__16vectorINS_4pairImPKcEENS_9allocatorIS4_EEE6resizeEm, symObjAddr: 0x28150, symBinAddr: 0x29070, symSize: 0x140 }
  - { offset: 0x11EBE3, size: 0x8, addend: 0x0, symName: __ZNSt3__119__throw_regex_errorB9nqe220106ILNS_15regex_constants10error_typeE12EEEvv, symObjAddr: 0x28290, symBinAddr: 0x291B0, symSize: 0x50 }
  - { offset: 0x11EBEE, size: 0x8, addend: 0x0, symName: __ZNSt3__17__stateIcEC2ERKS1_, symObjAddr: 0x28790, symBinAddr: 0x296B0, symSize: 0x1A0 }
  - { offset: 0x11F25A, size: 0x8, addend: 0x0, symName: __ZNSt3__17__stateIcED1Ev, symObjAddr: 0x27F70, symBinAddr: 0x28E90, symSize: 0x40 }
  - { offset: 0x11F4BE, size: 0x8, addend: 0x0, symName: __ZNSt3__16vectorINS_7__stateIcEENS_9allocatorIS2_EEED1B9nqe220106Ev, symObjAddr: 0x28330, symBinAddr: 0x29250, symSize: 0x80 }
  - { offset: 0x11FB5E, size: 0x8, addend: 0x0, symName: __ZNSt3__16vectorINS_9sub_matchIPKcEENS_9allocatorIS4_EEE20__throw_length_errorB9nqe220106Ev, symObjAddr: 0x27F60, symBinAddr: 0x28E80, symSize: 0x10 }
  - { offset: 0x11FB76, size: 0x8, addend: 0x0, symName: __ZNSt3__17__stateIcED1Ev, symObjAddr: 0x27F70, symBinAddr: 0x28E90, symSize: 0x40 }
  - { offset: 0x1201C3, size: 0x8, addend: 0x0, symName: __ZNSt3__16vectorINS_4pairImPKcEENS_9allocatorIS4_EEE20__throw_length_errorB9nqe220106Ev, symObjAddr: 0x28780, symBinAddr: 0x296A0, symSize: 0x10 }
  - { offset: 0x1201DB, size: 0x8, addend: 0x0, symName: __ZNSt3__17__stateIcEC2ERKS1_, symObjAddr: 0x28790, symBinAddr: 0x296B0, symSize: 0x1A0 }
  - { offset: 0x120384, size: 0x8, addend: 0x0, symName: __ZNSt3__16vectorINS_7__stateIcEENS_9allocatorIS2_EEE26__swap_out_circular_bufferERNS_14__split_bufferIS2_RS4_EE, symObjAddr: 0x28580, symBinAddr: 0x294A0, symSize: 0x170 }
  - { offset: 0x120930, size: 0x8, addend: 0x0, symName: __ZNSt3__16vectorINS_7__stateIcEENS_9allocatorIS2_EEE20__throw_length_errorB9nqe220106Ev, symObjAddr: 0x28770, symBinAddr: 0x29690, symSize: 0x10 }
  - { offset: 0x120948, size: 0x8, addend: 0x0, symName: __ZNSt3__16vectorINS_4pairImPKcEENS_9allocatorIS4_EEE20__throw_length_errorB9nqe220106Ev, symObjAddr: 0x28780, symBinAddr: 0x296A0, symSize: 0x10 }
  - { offset: 0x120953, size: 0x8, addend: 0x0, symName: __ZNSt3__114__split_bufferINS_7__stateIcEERNS_9allocatorIS2_EEED1Ev, symObjAddr: 0x286F0, symBinAddr: 0x29610, symSize: 0x80 }
  - { offset: 0x12110C, size: 0x8, addend: 0x0, symName: __ZNSt3__111basic_regexIcNS_12regex_traitsIcEEE11__push_charEc, symObjAddr: 0x29550, symBinAddr: 0x2A470, symSize: 0x130 }
  - { offset: 0x1214F2, size: 0x8, addend: 0x0, symName: __ZNSt3__111basic_regexIcNS_12regex_traitsIcEEE15__push_back_refEi, symObjAddr: 0x296D0, symBinAddr: 0x2A5F0, symSize: 0xD0 }
  - { offset: 0x121775, size: 0x8, addend: 0x0, symName: __ZNSt3__111basic_regexIcNS_12regex_traitsIcEEE30__parse_character_class_escapeINS_11__wrap_iterIPKcEEEET_S9_S9_, symObjAddr: 0x28E40, symBinAddr: 0x29D60, symSize: 0x2E0 }
  - { offset: 0x121D86, size: 0x8, addend: 0x0, symName: __ZNSt3__111basic_regexIcNS_12regex_traitsIcEEE24__parse_character_escapeINS_11__wrap_iterIPKcEEEET_S9_S9_PNS_12basic_stringIcNS_11char_traitsIcEENS_9allocatorIcEEEE, symObjAddr: 0x29120, symBinAddr: 0x2A040, symSize: 0x430 }
  - { offset: 0x122427, size: 0x8, addend: 0x0, symName: __ZNSt3__120__bracket_expressionIcNS_12regex_traitsIcEEEC2B9nqe220106ERKS2_PNS_6__nodeIcEEbbb, symObjAddr: 0x29EA0, symBinAddr: 0x2ADC0, symSize: 0x1A0 }
  - { offset: 0x122B62, size: 0x8, addend: 0x0, symName: __ZNSt3__120__bracket_expressionIcNS_12regex_traitsIcEEE10__add_charB9nqe220106Ec, symObjAddr: 0x29DC0, symBinAddr: 0x2ACE0, symSize: 0xE0 }
  - { offset: 0x122EB2, size: 0x8, addend: 0x0, symName: __ZNSt3__111basic_regexIcNS_12regex_traitsIcEEE23__parse_expression_termINS_11__wrap_iterIPKcEEEET_S9_S9_PNS_20__bracket_expressionIcS2_EE, symObjAddr: 0x2B1B0, symBinAddr: 0x2C0D0, symSize: 0x420 }
  - { offset: 0x123DFD, size: 0x8, addend: 0x0, symName: __ZNSt3__123__match_any_but_newlineIcED1Ev, symObjAddr: 0x28D80, symBinAddr: 0x29CA0, symSize: 0x30 }
  - { offset: 0x123E8B, size: 0x8, addend: 0x0, symName: __ZNSt3__123__match_any_but_newlineIcED0Ev, symObjAddr: 0x28DB0, symBinAddr: 0x29CD0, symSize: 0x40 }
  - { offset: 0x123EBC, size: 0x8, addend: 0x0, symName: __ZNSt3__123__match_any_but_newlineIcED0Ev, symObjAddr: 0x28DB0, symBinAddr: 0x29CD0, symSize: 0x40 }
  - { offset: 0x123EDC, size: 0x8, addend: 0x0, symName: __ZNSt3__123__match_any_but_newlineIcED0Ev, symObjAddr: 0x28DB0, symBinAddr: 0x29CD0, symSize: 0x40 }
  - { offset: 0x123EFC, size: 0x8, addend: 0x0, symName: __ZNSt3__123__match_any_but_newlineIcED0Ev, symObjAddr: 0x28DB0, symBinAddr: 0x29CD0, symSize: 0x40 }
  - { offset: 0x12429D, size: 0x8, addend: 0x0, symName: __ZNSt3__118__match_char_icaseIcNS_12regex_traitsIcEEED1Ev, symObjAddr: 0x297A0, symBinAddr: 0x2A6C0, symSize: 0x50 }
  - { offset: 0x124369, size: 0x8, addend: 0x0, symName: __ZNSt3__118__match_char_icaseIcNS_12regex_traitsIcEEED0Ev, symObjAddr: 0x297F0, symBinAddr: 0x2A710, symSize: 0x50 }
  - { offset: 0x12443E, size: 0x8, addend: 0x0, symName: __ZNKSt3__118__match_char_icaseIcNS_12regex_traitsIcEEE6__execERNS_7__stateIcEE, symObjAddr: 0x29840, symBinAddr: 0x2A760, symSize: 0x50 }
  - { offset: 0x1244FE, size: 0x8, addend: 0x0, symName: __ZNSt3__120__match_char_collateIcNS_12regex_traitsIcEEED1Ev, symObjAddr: 0x29890, symBinAddr: 0x2A7B0, symSize: 0x50 }
  - { offset: 0x1245CA, size: 0x8, addend: 0x0, symName: __ZNSt3__120__match_char_collateIcNS_12regex_traitsIcEEED0Ev, symObjAddr: 0x298E0, symBinAddr: 0x2A800, symSize: 0x50 }
  - { offset: 0x12469F, size: 0x8, addend: 0x0, symName: __ZNKSt3__120__match_char_collateIcNS_12regex_traitsIcEEE6__execERNS_7__stateIcEE, symObjAddr: 0x29930, symBinAddr: 0x2A850, symSize: 0x40 }
  - { offset: 0x12470F, size: 0x8, addend: 0x0, symName: __ZNSt3__112__match_charIcED1Ev, symObjAddr: 0x29970, symBinAddr: 0x2A890, symSize: 0x30 }
  - { offset: 0x12479D, size: 0x8, addend: 0x0, symName: __ZNSt3__112__match_charIcED0Ev, symObjAddr: 0x299A0, symBinAddr: 0x2A8C0, symSize: 0x40 }
  - { offset: 0x1247CE, size: 0x8, addend: 0x0, symName: __ZNSt3__112__match_charIcED0Ev, symObjAddr: 0x299A0, symBinAddr: 0x2A8C0, symSize: 0x40 }
  - { offset: 0x1247EE, size: 0x8, addend: 0x0, symName: __ZNSt3__112__match_charIcED0Ev, symObjAddr: 0x299A0, symBinAddr: 0x2A8C0, symSize: 0x40 }
  - { offset: 0x12480E, size: 0x8, addend: 0x0, symName: __ZNSt3__112__match_charIcED0Ev, symObjAddr: 0x299A0, symBinAddr: 0x2A8C0, symSize: 0x40 }
  - { offset: 0x12483A, size: 0x8, addend: 0x0, symName: __ZNKSt3__112__match_charIcE6__execERNS_7__stateIcEE, symObjAddr: 0x299E0, symBinAddr: 0x2A900, symSize: 0x40 }
  - { offset: 0x1248AA, size: 0x8, addend: 0x0, symName: __ZNSt3__116__back_ref_icaseIcNS_12regex_traitsIcEEED1Ev, symObjAddr: 0x29A20, symBinAddr: 0x2A940, symSize: 0x50 }
  - { offset: 0x124976, size: 0x8, addend: 0x0, symName: __ZNSt3__116__back_ref_icaseIcNS_12regex_traitsIcEEED0Ev, symObjAddr: 0x29A70, symBinAddr: 0x2A990, symSize: 0x50 }
  - { offset: 0x124A4B, size: 0x8, addend: 0x0, symName: __ZNKSt3__116__back_ref_icaseIcNS_12regex_traitsIcEEE6__execERNS_7__stateIcEE, symObjAddr: 0x29AC0, symBinAddr: 0x2A9E0, symSize: 0xC0 }
  - { offset: 0x124BCB, size: 0x8, addend: 0x0, symName: __ZNSt3__118__back_ref_collateIcNS_12regex_traitsIcEEED1Ev, symObjAddr: 0x29B80, symBinAddr: 0x2AAA0, symSize: 0x50 }
  - { offset: 0x124C97, size: 0x8, addend: 0x0, symName: __ZNSt3__118__back_ref_collateIcNS_12regex_traitsIcEEED0Ev, symObjAddr: 0x29BD0, symBinAddr: 0x2AAF0, symSize: 0x50 }
  - { offset: 0x124D6C, size: 0x8, addend: 0x0, symName: __ZNKSt3__118__back_ref_collateIcNS_12regex_traitsIcEEE6__execERNS_7__stateIcEE, symObjAddr: 0x29C20, symBinAddr: 0x2AB40, symSize: 0x80 }
  - { offset: 0x124E4E, size: 0x8, addend: 0x0, symName: __ZNSt3__110__back_refIcED1Ev, symObjAddr: 0x29CA0, symBinAddr: 0x2ABC0, symSize: 0x30 }
  - { offset: 0x124EDC, size: 0x8, addend: 0x0, symName: __ZNSt3__110__back_refIcED0Ev, symObjAddr: 0x29CD0, symBinAddr: 0x2ABF0, symSize: 0x40 }
  - { offset: 0x124F0D, size: 0x8, addend: 0x0, symName: __ZNSt3__110__back_refIcED0Ev, symObjAddr: 0x29CD0, symBinAddr: 0x2ABF0, symSize: 0x40 }
  - { offset: 0x124F2D, size: 0x8, addend: 0x0, symName: __ZNSt3__110__back_refIcED0Ev, symObjAddr: 0x29CD0, symBinAddr: 0x2ABF0, symSize: 0x40 }
  - { offset: 0x124F4D, size: 0x8, addend: 0x0, symName: __ZNSt3__110__back_refIcED0Ev, symObjAddr: 0x29CD0, symBinAddr: 0x2ABF0, symSize: 0x40 }
  - { offset: 0x124F7F, size: 0x8, addend: 0x0, symName: __ZNKSt3__110__back_refIcE6__execERNS_7__stateIcEE, symObjAddr: 0x29D10, symBinAddr: 0x2AC30, symSize: 0xB0 }
  - { offset: 0x1253CB, size: 0x8, addend: 0x0, symName: __ZZNSt3__16vectorIcNS_9allocatorIcEEE12emplace_backIJcEEEvDpOT_ENKUlvE0_clEv, symObjAddr: 0x2AFA0, symBinAddr: 0x2BEC0, symSize: 0xE0 }
  - { offset: 0x12576D, size: 0x8, addend: 0x0, symName: __ZZNSt3__16vectorIcNS_9allocatorIcEEE12emplace_backIJRKcEEEvDpOT_ENKUlvE0_clEv, symObjAddr: 0x2B080, symBinAddr: 0x2BFA0, symSize: 0xE0 }
  - { offset: 0x125C26, size: 0x8, addend: 0x0, symName: __ZNSt3__16vectorINS_4pairINS_12basic_stringIcNS_11char_traitsIcEENS_9allocatorIcEEEES7_EENS5_IS8_EEED1B9nqe220106Ev, symObjAddr: 0x2A040, symBinAddr: 0x2AF60, symSize: 0x90 }
  - { offset: 0x12615B, size: 0x8, addend: 0x0, symName: __ZNSt3__120__bracket_expressionIcNS_12regex_traitsIcEEED1Ev, symObjAddr: 0x2A0D0, symBinAddr: 0x2AFF0, symSize: 0x10 }
  - { offset: 0x126193, size: 0x8, addend: 0x0, symName: __ZNSt3__120__bracket_expressionIcNS_12regex_traitsIcEEED2Ev, symObjAddr: 0x2A9E0, symBinAddr: 0x2B900, symSize: 0x150 }
  - { offset: 0x126BB9, size: 0x8, addend: 0x0, symName: __ZNSt3__120__bracket_expressionIcNS_12regex_traitsIcEEED0Ev, symObjAddr: 0x2A0E0, symBinAddr: 0x2B000, symSize: 0x20 }
  - { offset: 0x1270CB, size: 0x8, addend: 0x0, symName: __ZNKSt3__120__bracket_expressionIcNS_12regex_traitsIcEEE6__execERNS_7__stateIcEE, symObjAddr: 0x2A100, symBinAddr: 0x2B020, symSize: 0x8A0 }
  - { offset: 0x128D73, size: 0x8, addend: 0x0, symName: __ZNKSt3__112regex_traitsIcE20__lookup_collatenameIPcEENS_12basic_stringIcNS_11char_traitsIcEENS_9allocatorIcEEEET_SA_c, symObjAddr: 0x2AC30, symBinAddr: 0x2BB50, symSize: 0x210 }
  - { offset: 0x1299F7, size: 0x8, addend: 0x0, symName: __ZNKSt3__112regex_traitsIcE9transformIPcEENS_12basic_stringIcNS_11char_traitsIcEENS_9allocatorIcEEEET_SA_, symObjAddr: 0x2AB30, symBinAddr: 0x2BA50, symSize: 0x100 }
  - { offset: 0x12A0DC, size: 0x8, addend: 0x0, symName: __ZNKSt3__112regex_traitsIcE19__transform_primaryIPcEENS_12basic_stringIcNS_11char_traitsIcEENS_9allocatorIcEEEET_SA_c, symObjAddr: 0x2AE40, symBinAddr: 0x2BD60, symSize: 0x160 }
  - { offset: 0x12A8EB, size: 0x8, addend: 0x0, symName: __ZNSt3__14pairINS_12basic_stringIcNS_11char_traitsIcEENS_9allocatorIcEEEES6_ED1Ev, symObjAddr: 0x2A9A0, symBinAddr: 0x2B8C0, symSize: 0x40 }
  - { offset: 0x12AC01, size: 0x8, addend: 0x0, symName: __ZNSt3__111basic_regexIcNS_12regex_traitsIcEEE25__parse_equivalence_classINS_11__wrap_iterIPKcEEEET_S9_S9_PNS_20__bracket_expressionIcS2_EE, symObjAddr: 0x2B5D0, symBinAddr: 0x2C4F0, symSize: 0x240 }
  - { offset: 0x12B92E, size: 0x8, addend: 0x0, symName: __ZNSt3__111basic_regexIcNS_12regex_traitsIcEEE24__parse_collating_symbolINS_11__wrap_iterIPKcEEEET_S9_S9_RNS_12basic_stringIcNS_11char_traitsIcEENS_9allocatorIcEEEE, symObjAddr: 0x2B8A0, symBinAddr: 0x2C7C0, symSize: 0xD0 }
  - { offset: 0x12BD94, size: 0x8, addend: 0x0, symName: __ZNSt3__111basic_regexIcNS_12regex_traitsIcEEE18__parse_awk_escapeINS_11__wrap_iterIPKcEEEET_S9_S9_PNS_12basic_stringIcNS_11char_traitsIcEENS_9allocatorIcEEEE, symObjAddr: 0x2BB10, symBinAddr: 0x2CA30, symSize: 0x2E0 }
  - { offset: 0x12BF12, size: 0x8, addend: 0x0, symName: __ZNSt3__111basic_regexIcNS_12regex_traitsIcEEE23__parse_character_classINS_11__wrap_iterIPKcEEEET_S9_S9_PNS_20__bracket_expressionIcS2_EE, symObjAddr: 0x2B810, symBinAddr: 0x2C730, symSize: 0x90 }
  - { offset: 0x12C27B, size: 0x8, addend: 0x0, symName: __ZNSt3__111basic_regexIcNS_12regex_traitsIcEEE20__parse_class_escapeINS_11__wrap_iterIPKcEEEET_S9_S9_RNS_12basic_stringIcNS_11char_traitsIcEENS_9allocatorIcEEEEPNS_20__bracket_expressionIcS2_EE, symObjAddr: 0x2B970, symBinAddr: 0x2C890, symSize: 0x1A0 }
  - { offset: 0x12C471, size: 0x8, addend: 0x0, symName: __ZNSt3__120__bracket_expressionIcNS_12regex_traitsIcEEE13__add_digraphB9nqe220106Ecc, symObjAddr: 0x2C380, symBinAddr: 0x2D2A0, symSize: 0x130 }
  - { offset: 0x12C8D6, size: 0x8, addend: 0x0, symName: __ZNSt3__120__bracket_expressionIcNS_12regex_traitsIcEEE11__add_rangeB9nqe220106ENS_12basic_stringIcNS_11char_traitsIcEENS_9allocatorIcEEEES9_, symObjAddr: 0x2BDF0, symBinAddr: 0x2CD10, symSize: 0x590 }
  - { offset: 0x12E676, size: 0x8, addend: 0x0, symName: __ZNKSt3__112regex_traitsIcE20__lookup_collatenameINS_11__wrap_iterIPKcEEEENS_12basic_stringIcNS_11char_traitsIcEENS_9allocatorIcEEEET_SD_c, symObjAddr: 0x2C500, symBinAddr: 0x2D420, symSize: 0x210 }
  - { offset: 0x12F30F, size: 0x8, addend: 0x0, symName: __ZNKSt3__112regex_traitsIcE19__transform_primaryINS_11__wrap_iterIPcEEEENS_12basic_stringIcNS_11char_traitsIcEENS_9allocatorIcEEEET_SC_c, symObjAddr: 0x2C710, symBinAddr: 0x2D630, symSize: 0x160 }
  - { offset: 0x12FB33, size: 0x8, addend: 0x0, symName: __ZNSt3__16vectorINS_12basic_stringIcNS_11char_traitsIcEENS_9allocatorIcEEEENS4_IS6_EEE24__emplace_back_slow_pathIJRKS6_EEEPS6_DpOT_, symObjAddr: 0x2C870, symBinAddr: 0x2D790, symSize: 0x160 }
  - { offset: 0x130005, size: 0x8, addend: 0x0, symName: __ZNKSt3__112regex_traitsIcE18__lookup_classnameINS_11__wrap_iterIPKcEEEEjT_S7_bc, symObjAddr: 0x2CA90, symBinAddr: 0x2D9B0, symSize: 0x110 }
  - { offset: 0x130800, size: 0x8, addend: 0x0, symName: __ZNSt3__120__bracket_expressionIcNS_12regex_traitsIcEEE14__add_neg_charB9nqe220106Ec, symObjAddr: 0x2CBA0, symBinAddr: 0x2DAC0, symSize: 0xE0 }
  - { offset: 0x130E56, size: 0x8, addend: 0x0, symName: __ZNKSt3__112regex_traitsIcE9transformINS_11__wrap_iterIPcEEEENS_12basic_stringIcNS_11char_traitsIcEENS_9allocatorIcEEEET_SC_, symObjAddr: 0x2CC80, symBinAddr: 0x2DBA0, symSize: 0x100 }
  - { offset: 0x13157D, size: 0x8, addend: 0x0, symName: __ZZNSt3__16vectorINS_4pairINS_12basic_stringIcNS_11char_traitsIcEENS_9allocatorIcEEEES7_EENS5_IS8_EEE12emplace_backIJS8_EEEvDpOT_ENKUlvE0_clEv, symObjAddr: 0x2CDD0, symBinAddr: 0x2DCF0, symSize: 0x140 }
  - { offset: 0x131BCE, size: 0x8, addend: 0x0, symName: __ZZNSt3__16vectorINS_4pairIccEENS_9allocatorIS2_EEE12emplace_backIJS2_EEEvDpOT_ENKUlvE0_clEv, symObjAddr: 0x2CF20, symBinAddr: 0x2DE40, symSize: 0xF0 }
  - { offset: 0x1320CE, size: 0x8, addend: 0x0, symName: __ZNSt3__114__split_bufferINS_12basic_stringIcNS_11char_traitsIcEENS_9allocatorIcEEEERNS4_IS6_EEED1Ev, symObjAddr: 0x2C9D0, symBinAddr: 0x2D8F0, symSize: 0x60 }
  - { offset: 0x132541, size: 0x8, addend: 0x0, symName: __ZNSt3__16vectorINS_4pairINS_12basic_stringIcNS_11char_traitsIcEENS_9allocatorIcEEEES7_EENS5_IS8_EEE20__throw_length_errorB9nqe220106Ev, symObjAddr: 0x2CF10, symBinAddr: 0x2DE30, symSize: 0x10 }
  - { offset: 0x132559, size: 0x8, addend: 0x0, symName: __ZZNSt3__16vectorINS_4pairIccEENS_9allocatorIS2_EEE12emplace_backIJS2_EEEvDpOT_ENKUlvE0_clEv, symObjAddr: 0x2CF20, symBinAddr: 0x2DE40, symSize: 0xF0 }
  - { offset: 0x13272D, size: 0x8, addend: 0x0, symName: __ZNSt3__16vectorINS_4pairIccEENS_9allocatorIS2_EEE20__throw_length_errorB9nqe220106Ev, symObjAddr: 0x2D010, symBinAddr: 0x2DF30, symSize: 0x10 }
  - { offset: 0x132745, size: 0x8, addend: 0x0, symName: __ZNSt3__128__begin_marked_subexpressionIcED1Ev, symObjAddr: 0x2D020, symBinAddr: 0x2DF40, symSize: 0x30 }
  - { offset: 0x13276D, size: 0x8, addend: 0x0, symName: __ZNSt3__128__begin_marked_subexpressionIcED1Ev, symObjAddr: 0x2D020, symBinAddr: 0x2DF40, symSize: 0x30 }
  - { offset: 0x1327FB, size: 0x8, addend: 0x0, symName: __ZNSt3__128__begin_marked_subexpressionIcED0Ev, symObjAddr: 0x2D050, symBinAddr: 0x2DF70, symSize: 0x40 }
  - { offset: 0x13282C, size: 0x8, addend: 0x0, symName: __ZNSt3__128__begin_marked_subexpressionIcED0Ev, symObjAddr: 0x2D050, symBinAddr: 0x2DF70, symSize: 0x40 }
  - { offset: 0x13284C, size: 0x8, addend: 0x0, symName: __ZNSt3__128__begin_marked_subexpressionIcED0Ev, symObjAddr: 0x2D050, symBinAddr: 0x2DF70, symSize: 0x40 }
  - { offset: 0x13286C, size: 0x8, addend: 0x0, symName: __ZNSt3__128__begin_marked_subexpressionIcED0Ev, symObjAddr: 0x2D050, symBinAddr: 0x2DF70, symSize: 0x40 }
  - { offset: 0x132898, size: 0x8, addend: 0x0, symName: __ZNKSt3__128__begin_marked_subexpressionIcE6__execERNS_7__stateIcEE, symObjAddr: 0x2D090, symBinAddr: 0x2DFB0, symSize: 0x30 }
  - { offset: 0x132931, size: 0x8, addend: 0x0, symName: __ZNSt3__126__end_marked_subexpressionIcED1Ev, symObjAddr: 0x2D0C0, symBinAddr: 0x2DFE0, symSize: 0x30 }
  - { offset: 0x1329BF, size: 0x8, addend: 0x0, symName: __ZNSt3__126__end_marked_subexpressionIcED0Ev, symObjAddr: 0x2D0F0, symBinAddr: 0x2E010, symSize: 0x40 }
  - { offset: 0x1329F0, size: 0x8, addend: 0x0, symName: __ZNSt3__126__end_marked_subexpressionIcED0Ev, symObjAddr: 0x2D0F0, symBinAddr: 0x2E010, symSize: 0x40 }
  - { offset: 0x132A10, size: 0x8, addend: 0x0, symName: __ZNSt3__126__end_marked_subexpressionIcED0Ev, symObjAddr: 0x2D0F0, symBinAddr: 0x2E010, symSize: 0x40 }
  - { offset: 0x132A30, size: 0x8, addend: 0x0, symName: __ZNSt3__126__end_marked_subexpressionIcED0Ev, symObjAddr: 0x2D0F0, symBinAddr: 0x2E010, symSize: 0x40 }
  - { offset: 0x132A5C, size: 0x8, addend: 0x0, symName: __ZNKSt3__126__end_marked_subexpressionIcE6__execERNS_7__stateIcEE, symObjAddr: 0x2D130, symBinAddr: 0x2E050, symSize: 0x30 }
  - { offset: 0x132CF9, size: 0x8, addend: 0x0, symName: __ZNSt3__16__loopIcED0Ev, symObjAddr: 0x2D3A0, symBinAddr: 0x2E2C0, symSize: 0x60 }
  - { offset: 0x132DF2, size: 0x8, addend: 0x0, symName: __ZNSt3__16__loopIcED1Ev, symObjAddr: 0x2D350, symBinAddr: 0x2E270, symSize: 0x50 }
  - { offset: 0x132F23, size: 0x8, addend: 0x0, symName: __ZNKSt3__16__loopIcE6__execERNS_7__stateIcEE, symObjAddr: 0x2D400, symBinAddr: 0x2E320, symSize: 0x240 }
  - { offset: 0x13309B, size: 0x8, addend: 0x0, symName: __ZNKSt3__16__loopIcE12__exec_splitEbRNS_7__stateIcEE, symObjAddr: 0x2D640, symBinAddr: 0x2E560, symSize: 0xF0 }
  - { offset: 0x133193, size: 0x8, addend: 0x0, symName: __ZNSt3__117__owns_two_statesIcED1Ev, symObjAddr: 0x2D730, symBinAddr: 0x2E650, symSize: 0x50 }
  - { offset: 0x13322A, size: 0x8, addend: 0x0, symName: __ZNSt3__117__owns_two_statesIcED0Ev, symObjAddr: 0x2D780, symBinAddr: 0x2E6A0, symSize: 0x60 }
  - { offset: 0x1332CA, size: 0x8, addend: 0x0, symName: __ZNSt3__117__repeat_one_loopIcED1Ev, symObjAddr: 0x2D7E0, symBinAddr: 0x2E700, symSize: 0x10 }
  - { offset: 0x1332F6, size: 0x8, addend: 0x0, symName: __ZNSt3__117__repeat_one_loopIcED0Ev, symObjAddr: 0x2D7F0, symBinAddr: 0x2E710, symSize: 0x10 }
  - { offset: 0x133322, size: 0x8, addend: 0x0, symName: __ZNKSt3__117__repeat_one_loopIcE6__execERNS_7__stateIcEE, symObjAddr: 0x2D800, symBinAddr: 0x2E720, symSize: 0x20 }
  - { offset: 0x133392, size: 0x8, addend: 0x0, symName: __ZNSt3__111__alternateIcED1Ev, symObjAddr: 0x2D820, symBinAddr: 0x2E740, symSize: 0x50 }
  - { offset: 0x13344D, size: 0x8, addend: 0x0, symName: __ZNSt3__111__alternateIcED0Ev, symObjAddr: 0x2D870, symBinAddr: 0x2E790, symSize: 0x60 }
  - { offset: 0x13350F, size: 0x8, addend: 0x0, symName: __ZNKSt3__111__alternateIcE6__execERNS_7__stateIcEE, symObjAddr: 0x2D8D0, symBinAddr: 0x2E7F0, symSize: 0x10 }
  - { offset: 0x133543, size: 0x8, addend: 0x0, symName: __ZNKSt3__111__alternateIcE12__exec_splitEbRNS_7__stateIcEE, symObjAddr: 0x2D8E0, symBinAddr: 0x2E800, symSize: 0x20 }
  - { offset: 0x133592, size: 0x8, addend: 0x0, symName: __ZNSt3__121__empty_non_own_stateIcED1Ev, symObjAddr: 0x2D900, symBinAddr: 0x2E820, symSize: 0x10 }
  - { offset: 0x1335BE, size: 0x8, addend: 0x0, symName: __ZNSt3__121__empty_non_own_stateIcED0Ev, symObjAddr: 0x2D910, symBinAddr: 0x2E830, symSize: 0x10 }
  - { offset: 0x1335EA, size: 0x8, addend: 0x0, symName: __ZNKSt3__121__empty_non_own_stateIcE6__execERNS_7__stateIcEE, symObjAddr: 0x2D920, symBinAddr: 0x2E840, symSize: 0x20 }
  - { offset: 0x133926, size: 0x8, addend: 0x0, symName: __ZNSt3__111__match_anyIcED1Ev, symObjAddr: 0x2DEC0, symBinAddr: 0x2EDE0, symSize: 0x30 }
  - { offset: 0x1339B4, size: 0x8, addend: 0x0, symName: __ZNSt3__111__match_anyIcED0Ev, symObjAddr: 0x2DEF0, symBinAddr: 0x2EE10, symSize: 0x40 }
  - { offset: 0x1339E5, size: 0x8, addend: 0x0, symName: __ZNSt3__111__match_anyIcED0Ev, symObjAddr: 0x2DEF0, symBinAddr: 0x2EE10, symSize: 0x40 }
  - { offset: 0x133A05, size: 0x8, addend: 0x0, symName: __ZNSt3__111__match_anyIcED0Ev, symObjAddr: 0x2DEF0, symBinAddr: 0x2EE10, symSize: 0x40 }
  - { offset: 0x133A25, size: 0x8, addend: 0x0, symName: __ZNSt3__111__match_anyIcED0Ev, symObjAddr: 0x2DEF0, symBinAddr: 0x2EE10, symSize: 0x40 }
  - { offset: 0x133A51, size: 0x8, addend: 0x0, symName: __ZNKSt3__111__match_anyIcE6__execERNS_7__stateIcEE, symObjAddr: 0x2DF30, symBinAddr: 0x2EE50, symSize: 0x40 }
  - { offset: 0x133AA4, size: 0x8, addend: 0x0, symName: __ZNSt3__111basic_regexIcNS_12regex_traitsIcEEE15__test_back_refEc, symObjAddr: 0x2DF70, symBinAddr: 0x2EE90, symSize: 0x50 }
  - { offset: 0x133BDC, size: 0x8, addend: 0x0, symName: __ZNSt3__111basic_regexIcNS_12regex_traitsIcEEE20__parse_ORD_CHAR_EREINS_11__wrap_iterIPKcEEEET_S9_S9_, symObjAddr: 0x2E200, symBinAddr: 0x2F120, symSize: 0x1B0 }
  - { offset: 0x133C7C, size: 0x8, addend: 0x0, symName: __ZNSt3__111basic_regexIcNS_12regex_traitsIcEEE23__parse_QUOTED_CHAR_EREINS_11__wrap_iterIPKcEEEET_S9_S9_, symObjAddr: 0x2E3B0, symBinAddr: 0x2F2D0, symSize: 0x200 }
  - { offset: 0x133E82, size: 0x8, addend: 0x0, symName: __ZNKSt3__111basic_regexIcNS_12regex_traitsIcEEE27__match_at_start_posix_subsINS_9allocatorINS_9sub_matchIPKcEEEEEEbS8_S8_RNS_13match_resultsIS8_T_EENS_15regex_constants15match_flag_typeEb, symObjAddr: 0x2F3F0, symBinAddr: 0x30310, symSize: 0x660 }
  - { offset: 0x135B5B, size: 0x8, addend: 0x0, symName: __ZNKSt3__111basic_regexIcNS_12regex_traitsIcEEE29__match_at_start_posix_nosubsINS_9allocatorINS_9sub_matchIPKcEEEEEEbS8_S8_RNS_13match_resultsIS8_T_EENS_15regex_constants15match_flag_typeEb, symObjAddr: 0x2EA30, symBinAddr: 0x2F950, symSize: 0x9C0 }
  - { offset: 0x1379E8, size: 0x8, addend: 0x0, symName: __ZNSt3__113match_resultsINS_11__wrap_iterIPKcEENS_9allocatorINS_9sub_matchIS4_EEEEE8__assignB9nqe220106IS3_NS5_INS6_IS3_EEEEEEvS4_S4_RKNS0_IT_T0_EEb, symObjAddr: 0x2E8F0, symBinAddr: 0x2F810, symSize: 0x140 }
  - { offset: 0x13847E, size: 0x8, addend: 0x0, symName: __ZNSt3__15dequeINS_7__stateIcEENS_9allocatorIS2_EEE19__add_back_capacityEv, symObjAddr: 0x2FC10, symBinAddr: 0x30B30, symSize: 0x3B0 }
  - { offset: 0x1391F5, size: 0x8, addend: 0x0, symName: __ZNSt3__15dequeINS_7__stateIcEENS_9allocatorIS2_EEE20__add_front_capacityEv, symObjAddr: 0x304F0, symBinAddr: 0x31410, symSize: 0x3E0 }
  - { offset: 0x13A000, size: 0x8, addend: 0x0, symName: __ZNSt3__15dequeINS_7__stateIcEENS_9allocatorIS2_EEED1B9nqe220106Ev, symObjAddr: 0x2FBA0, symBinAddr: 0x30AC0, symSize: 0x70 }
  - { offset: 0x13A32B, size: 0x8, addend: 0x0, symName: __ZNSt3__16vectorINS_9sub_matchIPKcEENS_9allocatorIS4_EEE18__assign_with_sizeB9nqe220106INS_17_ClassicAlgPolicyEPS4_SA_EEvT0_T1_l, symObjAddr: 0x30AA0, symBinAddr: 0x319C0, symSize: 0x1E0 }
  - { offset: 0x13AB7F, size: 0x8, addend: 0x0, symName: __ZNSt3__16vectorINS_4pairImPKcEENS_9allocatorIS4_EEE18__assign_with_sizeB9nqe220106INS_17_ClassicAlgPolicyEPS4_SA_EEvT0_T1_l, symObjAddr: 0x30C80, symBinAddr: 0x31BA0, symSize: 0x1B0 }
  - { offset: 0x13B350, size: 0x8, addend: 0x0, symName: __ZNSt3__15dequeINS_7__stateIcEENS_9allocatorIS2_EEE5clearEv, symObjAddr: 0x2FA50, symBinAddr: 0x30970, symSize: 0x150 }
  - { offset: 0x13BD44, size: 0x8, addend: 0x0, symName: __ZNSt3__114__split_bufferIPNS_7__stateIcEENS_9allocatorIS3_EEE12emplace_backIJRS3_EEEvDpOT_, symObjAddr: 0x2FFC0, symBinAddr: 0x30EE0, symSize: 0x1B0 }
  - { offset: 0x13C20F, size: 0x8, addend: 0x0, symName: __ZNSt3__114__split_bufferIPNS_7__stateIcEENS_9allocatorIS3_EEE12emplace_backIJS3_EEEvDpOT_, symObjAddr: 0x30170, symBinAddr: 0x31090, symSize: 0x1B0 }
  - { offset: 0x13C6DA, size: 0x8, addend: 0x0, symName: __ZNSt3__114__split_bufferIPNS_7__stateIcEENS_9allocatorIS3_EEE13emplace_frontIJS3_EEEvDpOT_, symObjAddr: 0x30320, symBinAddr: 0x31240, symSize: 0x1D0 }
  - { offset: 0x13CC1D, size: 0x8, addend: 0x0, symName: __ZNSt3__114__split_bufferIPNS_7__stateIcEENS_9allocatorIS3_EEE13emplace_frontIJRS3_EEEvDpOT_, symObjAddr: 0x308D0, symBinAddr: 0x317F0, symSize: 0x1D0 }
  - { offset: 0x13D571, size: 0x8, addend: 0x0, symName: __ZNSt3__16vectorINS_9sub_matchINS_11__wrap_iterIPKcEEEENS_9allocatorIS6_EEE20__throw_length_errorB9nqe220106Ev, symObjAddr: 0x30FD0, symBinAddr: 0x31EF0, symSize: 0x10 }
  - { offset: 0x13D589, size: 0x8, addend: 0x0, symName: '__ZZ38whisper_vad_init_from_file_with_paramsEN3$_08__invokeEPvS0_m', symObjAddr: 0x30FE0, symBinAddr: 0x31F00, symSize: 0x20 }
  - { offset: 0x13D5F0, size: 0x8, addend: 0x0, symName: '__ZZ38whisper_vad_init_from_file_with_paramsEN3$_08__invokeEPvS0_m', symObjAddr: 0x30FE0, symBinAddr: 0x31F00, symSize: 0x20 }
  - { offset: 0x13D6B1, size: 0x8, addend: 0x0, symName: '__ZZ38whisper_vad_init_from_file_with_paramsEN3$_18__invokeEPv', symObjAddr: 0x31000, symBinAddr: 0x31F20, symSize: 0x20 }
  - { offset: 0x13D786, size: 0x8, addend: 0x0, symName: '__ZZ38whisper_vad_init_from_file_with_paramsEN3$_28__invokeEPv', symObjAddr: 0x31020, symBinAddr: 0x31F40, symSize: 0x40 }
  - { offset: 0x13DA36, size: 0x8, addend: 0x0, symName: '__ZNSt3__110__function6__funcIZL24whisper_vad_init_contextP19whisper_vad_contextE3$_0FP11ggml_cgraphvEED1Ev', symObjAddr: 0x312F0, symBinAddr: 0x32210, symSize: 0x10 }
  - { offset: 0x13DA5F, size: 0x8, addend: 0x0, symName: '__ZNSt3__110__function6__funcIZL24whisper_vad_init_contextP19whisper_vad_contextE3$_0FP11ggml_cgraphvEED0Ev', symObjAddr: 0x31300, symBinAddr: 0x32220, symSize: 0x10 }
  - { offset: 0x13DAD4, size: 0x8, addend: 0x0, symName: '__ZNKSt3__110__function6__funcIZL24whisper_vad_init_contextP19whisper_vad_contextE3$_0FP11ggml_cgraphvEE7__cloneEv', symObjAddr: 0x31310, symBinAddr: 0x32230, symSize: 0x30 }
  - { offset: 0x13DB37, size: 0x8, addend: 0x0, symName: '__ZNKSt3__110__function6__funcIZL24whisper_vad_init_contextP19whisper_vad_contextE3$_0FP11ggml_cgraphvEE7__cloneEPNS0_6__baseIS7_EE', symObjAddr: 0x31340, symBinAddr: 0x32260, symSize: 0x20 }
  - { offset: 0x13DBA6, size: 0x8, addend: 0x0, symName: '__ZNSt3__110__function6__funcIZL24whisper_vad_init_contextP19whisper_vad_contextE3$_0FP11ggml_cgraphvEE7destroyEv', symObjAddr: 0x31360, symBinAddr: 0x32280, symSize: 0x10 }
  - { offset: 0x13DBC9, size: 0x8, addend: 0x0, symName: '__ZNSt3__110__function6__funcIZL24whisper_vad_init_contextP19whisper_vad_contextE3$_0FP11ggml_cgraphvEE18destroy_deallocateEv', symObjAddr: 0x31370, symBinAddr: 0x32290, symSize: 0x20 }
  - { offset: 0x13DC45, size: 0x8, addend: 0x0, symName: '__ZNSt3__110__function6__funcIZL24whisper_vad_init_contextP19whisper_vad_contextE3$_0FP11ggml_cgraphvEEclEv', symObjAddr: 0x31390, symBinAddr: 0x322B0, symSize: 0x20 }
  - { offset: 0x13DCD3, size: 0x8, addend: 0x0, symName: '__ZNKSt3__110__function6__funcIZL24whisper_vad_init_contextP19whisper_vad_contextE3$_0FP11ggml_cgraphvEE6targetERKSt9type_info', symObjAddr: 0x313B0, symBinAddr: 0x322D0, symSize: 0x20 }
  - { offset: 0x13DD45, size: 0x8, addend: 0x0, symName: '__ZNKSt3__110__function6__funcIZL24whisper_vad_init_contextP19whisper_vad_contextE3$_0FP11ggml_cgraphvEE11target_typeEv', symObjAddr: 0x313D0, symBinAddr: 0x322F0, symSize: 0x10 }
  - { offset: 0x13E3DB, size: 0x8, addend: 0x0, symName: __ZZNSt3__16vectorIPK23whisper_grammar_elementNS_9allocatorIS3_EEE12emplace_backIJRKS3_EEEvDpOT_ENKUlvE0_clEv, symObjAddr: 0x31A20, symBinAddr: 0x32940, symSize: 0x110 }
  - { offset: 0x13E750, size: 0x8, addend: 0x0, symName: __ZNSt3__16vectorINS0_IPK23whisper_grammar_elementNS_9allocatorIS3_EEEENS4_IS6_EEE24__emplace_back_slow_pathIJRKS6_EEEPS6_DpOT_, symObjAddr: 0x31CB0, symBinAddr: 0x32BD0, symSize: 0x1A0 }
  - { offset: 0x13EF6F, size: 0x8, addend: 0x0, symName: __ZZNSt3__16vectorINS0_IPK23whisper_grammar_elementNS_9allocatorIS3_EEEENS4_IS6_EEE12emplace_backIJEEEvDpOT_ENKUlvE0_clEv, symObjAddr: 0x31B40, symBinAddr: 0x32A60, symSize: 0x100 }
  - { offset: 0x13F307, size: 0x8, addend: 0x0, symName: __ZNSt3__114__split_bufferINS_6vectorIPK23whisper_grammar_elementNS_9allocatorIS4_EEEERNS5_IS7_EEED1Ev, symObjAddr: 0x31C40, symBinAddr: 0x32B60, symSize: 0x60 }
  - { offset: 0x13F312, size: 0x8, addend: 0x0, symName: __ZL29whisper_grammar_advance_stackRKNSt3__16vectorINS0_I23whisper_grammar_elementNS_9allocatorIS1_EEEENS2_IS4_EEEERKNS0_IPKS1_NS2_ISA_EEEERNS0_ISC_NS2_ISC_EEEE.cold.1, symObjAddr: 0x42470, symBinAddr: 0x1BE490, symSize: 0x30 }
  - { offset: 0x13F51C, size: 0x8, addend: 0x0, symName: __ZNSt3__114__split_bufferINS_6vectorIPK23whisper_grammar_elementNS_9allocatorIS4_EEEERNS5_IS7_EEED1Ev, symObjAddr: 0x31C40, symBinAddr: 0x32B60, symSize: 0x60 }
  - { offset: 0x13F7A1, size: 0x8, addend: 0x0, symName: __ZNSt3__111basic_regexIcNS_12regex_traitsIcEEE7__parseIPKcEET_S7_S7_, symObjAddr: 0x31F10, symBinAddr: 0x32E30, symSize: 0x320 }
  - { offset: 0x1401B3, size: 0x8, addend: 0x0, symName: __ZNSt3__111basic_regexIcNS_12regex_traitsIcEEE13__parse_egrepIPKcEET_S7_S7_, symObjAddr: 0x328A0, symBinAddr: 0x337C0, symSize: 0x1E0 }
  - { offset: 0x1407C9, size: 0x8, addend: 0x0, symName: __ZNSt3__111basic_regexIcNS_12regex_traitsIcEEE24__parse_extended_reg_expIPKcEET_S7_S7_, symObjAddr: 0x32530, symBinAddr: 0x33450, symSize: 0x190 }
  - { offset: 0x140B8F, size: 0x8, addend: 0x0, symName: __ZNSt3__111basic_regexIcNS_12regex_traitsIcEEE21__parse_basic_reg_expIPKcEET_S7_S7_, symObjAddr: 0x323F0, symBinAddr: 0x33310, symSize: 0x140 }
  - { offset: 0x140EF3, size: 0x8, addend: 0x0, symName: __ZNSt3__111basic_regexIcNS_12regex_traitsIcEEE12__parse_grepIPKcEET_S7_S7_, symObjAddr: 0x326C0, symBinAddr: 0x335E0, symSize: 0x1E0 }
  - { offset: 0x141509, size: 0x8, addend: 0x0, symName: __ZNSt3__111basic_regexIcNS_12regex_traitsIcEEE19__parse_alternativeIPKcEET_S7_S7_, symObjAddr: 0x32A80, symBinAddr: 0x339A0, symSize: 0x90 }
  - { offset: 0x141666, size: 0x8, addend: 0x0, symName: __ZNSt3__111basic_regexIcNS_12regex_traitsIcEEE16__parse_ecma_expIPKcEET_S7_S7_, symObjAddr: 0x32230, symBinAddr: 0x33150, symSize: 0x1C0 }
  - { offset: 0x141B37, size: 0x8, addend: 0x0, symName: __ZNSt3__111basic_regexIcNS_12regex_traitsIcEEE12__parse_termIPKcEET_S7_S7_, symObjAddr: 0x32B10, symBinAddr: 0x33A30, symSize: 0x80 }
  - { offset: 0x141CA0, size: 0x8, addend: 0x0, symName: __ZNSt3__111basic_regexIcNS_12regex_traitsIcEEE18__parse_nondupl_REIPKcEET_S7_S7_, symObjAddr: 0x34F90, symBinAddr: 0x35EB0, symSize: 0x2D0 }
  - { offset: 0x142440, size: 0x8, addend: 0x0, symName: __ZNSt3__111basic_regexIcNS_12regex_traitsIcEEE22__parse_RE_dupl_symbolIPKcEET_S7_S7_PNS_16__owns_one_stateIcEEjj, symObjAddr: 0x35260, symBinAddr: 0x36180, symSize: 0x260 }
  - { offset: 0x142AE8, size: 0x8, addend: 0x0, symName: __ZNSt3__111basic_regexIcNS_12regex_traitsIcEEE22__parse_ERE_expressionIPKcEET_S7_S7_, symObjAddr: 0x354C0, symBinAddr: 0x363E0, symSize: 0x240 }
  - { offset: 0x143034, size: 0x8, addend: 0x0, symName: __ZNSt3__111basic_regexIcNS_12regex_traitsIcEEE23__parse_ERE_dupl_symbolIPKcEET_S7_S7_PNS_16__owns_one_stateIcEEjj, symObjAddr: 0x33100, symBinAddr: 0x34020, symSize: 0x3F0 }
  - { offset: 0x1435E9, size: 0x8, addend: 0x0, symName: __ZNSt3__111basic_regexIcNS_12regex_traitsIcEEE17__parse_assertionIPKcEET_S7_S7_, symObjAddr: 0x32B90, symBinAddr: 0x33AB0, symSize: 0x2D0 }
  - { offset: 0x143C0F, size: 0x8, addend: 0x0, symName: __ZNSt3__111basic_regexIcNS_12regex_traitsIcEEE12__parse_atomIPKcEET_S7_S7_, symObjAddr: 0x32E60, symBinAddr: 0x33D80, symSize: 0x2A0 }
  - { offset: 0x143FC1, size: 0x8, addend: 0x0, symName: __ZNSt3__111basic_regexIcNS_12regex_traitsIcEEE19__parse_atom_escapeIPKcEET_S7_S7_, symObjAddr: 0x334F0, symBinAddr: 0x34410, symSize: 0x100 }
  - { offset: 0x144166, size: 0x8, addend: 0x0, symName: __ZNSt3__111basic_regexIcNS_12regex_traitsIcEEE26__parse_bracket_expressionIPKcEET_S7_S7_, symObjAddr: 0x335F0, symBinAddr: 0x34510, symSize: 0x150 }
  - { offset: 0x144394, size: 0x8, addend: 0x0, symName: __ZNSt3__111basic_regexIcNS_12regex_traitsIcEEE25__parse_pattern_characterIPKcEET_S7_S7_, symObjAddr: 0x33740, symBinAddr: 0x34660, symSize: 0x1B0 }
  - { offset: 0x14448E, size: 0x8, addend: 0x0, symName: __ZNSt3__111basic_regexIcNS_12regex_traitsIcEEE30__parse_character_class_escapeIPKcEET_S7_S7_, symObjAddr: 0x338F0, symBinAddr: 0x34810, symSize: 0x2E0 }
  - { offset: 0x144A67, size: 0x8, addend: 0x0, symName: __ZNSt3__111basic_regexIcNS_12regex_traitsIcEEE24__parse_character_escapeIPKcEET_S7_S7_PNS_12basic_stringIcNS_11char_traitsIcEENS_9allocatorIcEEEE, symObjAddr: 0x33BD0, symBinAddr: 0x34AF0, symSize: 0x420 }
  - { offset: 0x144F36, size: 0x8, addend: 0x0, symName: __ZNSt3__111basic_regexIcNS_12regex_traitsIcEEE23__parse_expression_termIPKcEET_S7_S7_PNS_20__bracket_expressionIcS2_EE, symObjAddr: 0x33FF0, symBinAddr: 0x34F10, symSize: 0x500 }
  - { offset: 0x14638C, size: 0x8, addend: 0x0, symName: __ZNSt3__111basic_regexIcNS_12regex_traitsIcEEE25__parse_equivalence_classIPKcEET_S7_S7_PNS_20__bracket_expressionIcS2_EE, symObjAddr: 0x344F0, symBinAddr: 0x35410, symSize: 0x230 }
  - { offset: 0x147082, size: 0x8, addend: 0x0, symName: __ZNSt3__111basic_regexIcNS_12regex_traitsIcEEE18__parse_awk_escapeIPKcEET_S7_S7_PNS_12basic_stringIcNS_11char_traitsIcEENS_9allocatorIcEEEE, symObjAddr: 0x34990, symBinAddr: 0x358B0, symSize: 0x2E0 }
  - { offset: 0x147127, size: 0x8, addend: 0x0, symName: __ZNKSt3__112regex_traitsIcE20__lookup_collatenameIPKcEENS_12basic_stringIcNS_11char_traitsIcEENS_9allocatorIcEEEET_SB_c, symObjAddr: 0x34C70, symBinAddr: 0x35B90, symSize: 0x210 }
  - { offset: 0x147DAB, size: 0x8, addend: 0x0, symName: __ZNKSt3__112regex_traitsIcE18__lookup_classnameIPKcEEjT_S5_bc, symObjAddr: 0x34E80, symBinAddr: 0x35DA0, symSize: 0x110 }
  - { offset: 0x14856F, size: 0x8, addend: 0x0, symName: __ZNSt3__111basic_regexIcNS_12regex_traitsIcEEE24__parse_collating_symbolIPKcEET_S7_S7_RNS_12basic_stringIcNS_11char_traitsIcEENS_9allocatorIcEEEE, symObjAddr: 0x34720, symBinAddr: 0x35640, symSize: 0xD0 }
  - { offset: 0x14893C, size: 0x8, addend: 0x0, symName: __ZNSt3__111basic_regexIcNS_12regex_traitsIcEEE20__parse_class_escapeIPKcEET_S7_S7_RNS_12basic_stringIcNS_11char_traitsIcEENS_9allocatorIcEEEEPNS_20__bracket_expressionIcS2_EE, symObjAddr: 0x347F0, symBinAddr: 0x35710, symSize: 0x1A0 }
  - { offset: 0x148EDA, size: 0x8, addend: 0x0, symName: __ZNSt3__111basic_regexIcNS_12regex_traitsIcEEE20__parse_ORD_CHAR_EREIPKcEET_S7_S7_, symObjAddr: 0x35700, symBinAddr: 0x36620, symSize: 0x1B0 }
  - { offset: 0x148F3A, size: 0x8, addend: 0x0, symName: __ZNSt3__111basic_regexIcNS_12regex_traitsIcEEE23__parse_QUOTED_CHAR_EREIPKcEET_S7_S7_, symObjAddr: 0x358B0, symBinAddr: 0x367D0, symSize: 0x200 }
  - { offset: 0x149336, size: 0x8, addend: 0x0, symName: __ZZNSt3__16vectorIjNS_9allocatorIjEEE12emplace_backIJRKjEEEvDpOT_ENKUlvE0_clEv, symObjAddr: 0x361D0, symBinAddr: 0x370F0, symSize: 0x110 }
  - { offset: 0x149724, size: 0x8, addend: 0x0, symName: __ZL43whisper_grammar_reject_candidates_for_stackRKNSt3__16vectorINS0_I23whisper_grammar_elementNS_9allocatorIS1_EEEENS2_IS4_EEEERKNS0_IPKS1_NS2_ISA_EEEERKNS0_I25whisper_grammar_candidateNS2_ISF_EEEE, symObjAddr: 0x36400, symBinAddr: 0x37320, symSize: 0x860 }
  - { offset: 0x14B37E, size: 0x8, addend: 0x0, symName: __ZNSt3__16vectorINS_4pairINS0_IjNS_9allocatorIjEEEE20whisper_partial_utf8EENS2_IS6_EEE20__throw_length_errorB9nqe220106Ev, symObjAddr: 0x361C0, symBinAddr: 0x370E0, symSize: 0x10 }
  - { offset: 0x14B396, size: 0x8, addend: 0x0, symName: __ZZNSt3__16vectorIjNS_9allocatorIjEEE12emplace_backIJRKjEEEvDpOT_ENKUlvE0_clEv, symObjAddr: 0x361D0, symBinAddr: 0x370F0, symSize: 0x110 }
  - { offset: 0x14B564, size: 0x8, addend: 0x0, symName: __ZNSt3__16vectorI25whisper_grammar_candidateNS_9allocatorIS1_EEE20__throw_length_errorB9nqe220106Ev, symObjAddr: 0x363F0, symBinAddr: 0x37310, symSize: 0x10 }
  - { offset: 0x14B57C, size: 0x8, addend: 0x0, symName: __ZL43whisper_grammar_reject_candidates_for_stackRKNSt3__16vectorINS0_I23whisper_grammar_elementNS_9allocatorIS1_EEEENS2_IS4_EEEERKNS0_IPKS1_NS2_ISA_EEEERKNS0_I25whisper_grammar_candidateNS2_ISF_EEEE, symObjAddr: 0x36400, symBinAddr: 0x37320, symSize: 0x860 }
  - { offset: 0x14B816, size: 0x8, addend: 0x0, symName: __ZZNSt3__16vectorI25whisper_grammar_candidateNS_9allocatorIS1_EEE12emplace_backIJRKS1_EEEvDpOT_ENKUlvE0_clEv, symObjAddr: 0x36C60, symBinAddr: 0x37B80, symSize: 0x110 }
  - { offset: 0x14BE32, size: 0x8, addend: 0x0, symName: __ZNSt3__16vectorIdNS_9allocatorIdEEE13shrink_to_fitEv, symObjAddr: 0x37150, symBinAddr: 0x38070, symSize: 0xD0 }
  - { offset: 0x14C6E9, size: 0x8, addend: 0x0, symName: __ZNSt3__128__exception_guard_exceptionsINS_29_AllocatorDestroyRangeReverseINS_9allocatorINS_6vectorI23whisper_grammar_elementNS2_IS4_EEEEEEPS6_EEED1B9nqe220106Ev, symObjAddr: 0x37BB0, symBinAddr: 0x38AD0, symSize: 0x50 }
  - { offset: 0x14C70F, size: 0x8, addend: 0x0, symName: __ZNSt3__128__exception_guard_exceptionsINS_29_AllocatorDestroyRangeReverseINS_9allocatorINS_6vectorI23whisper_grammar_elementNS2_IS4_EEEEEEPS6_EEED1B9nqe220106Ev, symObjAddr: 0x37BB0, symBinAddr: 0x38AD0, symSize: 0x50 }
  - { offset: 0x14C908, size: 0x8, addend: 0x0, symName: __ZNSt3__128__exception_guard_exceptionsINS_29_AllocatorDestroyRangeReverseINS_9allocatorINS_6vectorIPK23whisper_grammar_elementNS2_IS6_EEEEEEPS8_EEED1B9nqe220106Ev, symObjAddr: 0x37D70, symBinAddr: 0x38C90, symSize: 0x50 }
  - { offset: 0x14C92E, size: 0x8, addend: 0x0, symName: __ZNSt3__128__exception_guard_exceptionsINS_29_AllocatorDestroyRangeReverseINS_9allocatorINS_6vectorIPK23whisper_grammar_elementNS2_IS6_EEEEEEPS8_EEED1B9nqe220106Ev, symObjAddr: 0x37D70, symBinAddr: 0x38C90, symSize: 0x50 }
  - { offset: 0x14CC1E, size: 0x8, addend: 0x0, symName: __ZNSt3__16vectorI23whisper_grammar_elementNS_9allocatorIS1_EEE18__assign_with_sizeB9nqe220106INS_17_ClassicAlgPolicyEPS1_S7_EEvT0_T1_l, symObjAddr: 0x38040, symBinAddr: 0x38F60, symSize: 0x130 }
  - { offset: 0x14D6A3, size: 0x8, addend: 0x0, symName: __ZNSt3__16vectorIPK23whisper_grammar_elementNS_9allocatorIS3_EEE18__assign_with_sizeB9nqe220106INS_17_ClassicAlgPolicyEPS3_S9_EEvT0_T1_l, symObjAddr: 0x383F0, symBinAddr: 0x39310, symSize: 0x130 }
  - { offset: 0x14E794, size: 0x8, addend: 0x0, symName: __ZL13median_filterP11ggml_tensorPKS_iiPv, symObjAddr: 0x39EE0, symBinAddr: 0x3AE00, symSize: 0x3B0 }
  - { offset: 0x14EFF4, size: 0x8, addend: 0x0, symName: __ZL13median_filterP11ggml_tensorPKS_iiPv.cold.1, symObjAddr: 0x424A0, symBinAddr: 0x1BE4C0, symSize: 0x30 }
  - { offset: 0x14F00C, size: 0x8, addend: 0x0, symName: __ZL13median_filterP11ggml_tensorPKS_iiPv.cold.4, symObjAddr: 0x42530, symBinAddr: 0x1BE550, symSize: 0x2D }
  - { offset: 0x14F024, size: 0x8, addend: 0x0, symName: __ZL13median_filterP11ggml_tensorPKS_iiPv.cold.2, symObjAddr: 0x424D0, symBinAddr: 0x1BE4F0, symSize: 0x30 }
  - { offset: 0x14F03C, size: 0x8, addend: 0x0, symName: __ZL13median_filterP11ggml_tensorPKS_iiPv.cold.3, symObjAddr: 0x42500, symBinAddr: 0x1BE520, symSize: 0x30 }
  - { offset: 0x14F054, size: 0x8, addend: 0x0, symName: __ZNSt3__16__treeINS_12__value_typeI10asr_tensorPKcEENS_19__map_value_compareIS2_NS_4pairIKS2_S4_EENS_4lessIS2_EEEENS_9allocatorIS9_EEED1B9nqe220106Ev, symObjAddr: 0x3A2A0, symBinAddr: 0x3B1C0, symSize: 0x30 }
  - { offset: 0x14F24F, size: 0x8, addend: 0x0, symName: __ZZNSt3__16__treeINS_12__value_typeI10asr_tensorPKcEENS_19__map_value_compareIS2_NS_4pairIKS2_S4_EENS_4lessIS2_EEEENS_9allocatorIS9_EEE21__insert_range_uniqueB9nqe220106IPKS9_SI_EEvT_T0_ENKUlRS8_RSH_E_clESL_SM_, symObjAddr: 0x3A2D0, symBinAddr: 0x3B1F0, symSize: 0x110 }
  - { offset: 0x14F7F1, size: 0x8, addend: 0x0, symName: __ZNSt3__16__treeINS_12__value_typeI10asr_systemNS_3mapI10asr_tensorPKcNS_4lessIS4_EENS_9allocatorINS_4pairIKS4_S6_EEEEEEEENS_19__map_value_compareIS2_NSA_IKS2_SE_EENS7_IS2_EEEENS9_ISI_EEED1B9nqe220106Ev, symObjAddr: 0x3A3E0, symBinAddr: 0x3B300, symSize: 0x30 }
  - { offset: 0x14FCC4, size: 0x8, addend: 0x0, symName: __ZNSt3__16__treeINS_12__value_typeI10asr_systemNS_3mapI10asr_tensorPKcNS_4lessIS4_EENS_9allocatorINS_4pairIKS4_S6_EEEEEEEENS_19__map_value_compareIS2_NSA_IKS2_SE_EENS7_IS2_EEEENS9_ISI_EEE21__insert_range_uniqueB9nqe220106IPKSI_SP_EEvT_T0_, symObjAddr: 0x3A410, symBinAddr: 0x3B330, symSize: 0x170 }
  - { offset: 0x1502F4, size: 0x8, addend: 0x0, symName: __ZZNSt3__16__treeINS_12__value_typeI10asr_systemNS_3mapI10asr_tensorPKcNS_4lessIS4_EENS_9allocatorINS_4pairIKS4_S6_EEEEEEEENS_19__map_value_compareIS2_NSA_IKS2_SE_EENS7_IS2_EEEENS9_ISI_EEE21__insert_range_uniqueB9nqe220106IPKSI_SP_EEvT_T0_ENKUlRSH_RSO_E_clESS_ST_, symObjAddr: 0x3A5D0, symBinAddr: 0x3B4F0, symSize: 0x230 }
  - { offset: 0x150D4F, size: 0x8, addend: 0x0, symName: __ZNSt3__110unique_ptrINS_11__tree_nodeINS_12__value_typeI10asr_systemNS_3mapI10asr_tensorPKcNS_4lessIS5_EENS_9allocatorINS_4pairIKS5_S7_EEEEEEEEPvEENS_22__tree_node_destructorINSA_ISI_EEEEED1B9nqe220106Ev, symObjAddr: 0x3A580, symBinAddr: 0x3B4A0, symSize: 0x50 }
  - { offset: 0x15118E, size: 0x8, addend: 0x0, symName: __ZNSt3__16__treeINS_12__value_typeI10asr_tensor7ggml_opEENS_19__map_value_compareIS2_NS_4pairIKS2_S3_EENS_4lessIS2_EEEENS_9allocatorIS8_EEED1B9nqe220106Ev, symObjAddr: 0x3A860, symBinAddr: 0x3B780, symSize: 0x30 }
  - { offset: 0x1514FB, size: 0x8, addend: 0x0, symName: __ZZNSt3__16__treeINS_12__value_typeI10asr_tensor7ggml_opEENS_19__map_value_compareIS2_NS_4pairIKS2_S3_EENS_4lessIS2_EEEENS_9allocatorIS8_EEE21__insert_range_uniqueB9nqe220106IPKS8_SH_EEvT_T0_ENKUlRS7_RSG_E_clESK_SL_, symObjAddr: 0x3A890, symBinAddr: 0x3B7B0, symSize: 0x110 }
  - { offset: 0x151AFB, size: 0x8, addend: 0x0, symName: __ZNSt3__16__treeINS_12__value_typeI10vad_tensor7ggml_opEENS_19__map_value_compareIS2_NS_4pairIKS2_S3_EENS_4lessIS2_EEEENS_9allocatorIS8_EEED1B9nqe220106Ev, symObjAddr: 0x3A9F0, symBinAddr: 0x3B910, symSize: 0x30 }
  - { offset: 0x151E9C, size: 0x8, addend: 0x0, symName: __ZZNSt3__16__treeINS_12__value_typeI10vad_tensor7ggml_opEENS_19__map_value_compareIS2_NS_4pairIKS2_S3_EENS_4lessIS2_EEEENS_9allocatorIS8_EEE21__insert_range_uniqueB9nqe220106IPKS8_SH_EEvT_T0_ENKUlRS7_RSG_E_clESK_SL_, symObjAddr: 0x3AA20, symBinAddr: 0x3B940, symSize: 0x110 }
  - { offset: 0x15249C, size: 0x8, addend: 0x0, symName: __ZNSt3__16__treeINS_12__value_typeI10vad_tensorPKcEENS_19__map_value_compareIS2_NS_4pairIKS2_S4_EENS_4lessIS2_EEEENS_9allocatorIS9_EEED1B9nqe220106Ev, symObjAddr: 0x3AB80, symBinAddr: 0x3BAA0, symSize: 0x30 }
  - { offset: 0x152809, size: 0x8, addend: 0x0, symName: __ZZNSt3__16__treeINS_12__value_typeI10vad_tensorPKcEENS_19__map_value_compareIS2_NS_4pairIKS2_S4_EENS_4lessIS2_EEEENS_9allocatorIS9_EEE21__insert_range_uniqueB9nqe220106IPKS9_SI_EEvT_T0_ENKUlRS8_RSH_E_clESL_SM_, symObjAddr: 0x3ABB0, symBinAddr: 0x3BAD0, symSize: 0x110 }
  - { offset: 0x152E09, size: 0x8, addend: 0x0, symName: __ZNSt3__16__treeINS_12__value_typeI7e_modelNS_12basic_stringIcNS_11char_traitsIcEENS_9allocatorIcEEEEEENS_19__map_value_compareIS2_NS_4pairIKS2_S8_EENS_4lessIS2_EEEENS6_ISD_EEED1B9nqe220106Ev, symObjAddr: 0x3AD10, symBinAddr: 0x3BC30, symSize: 0x30 }
  - { offset: 0x1531F2, size: 0x8, addend: 0x0, symName: __ZNSt3__16__treeINS_12__value_typeI7e_modelNS_12basic_stringIcNS_11char_traitsIcEENS_9allocatorIcEEEEEENS_19__map_value_compareIS2_NS_4pairIKS2_S8_EENS_4lessIS2_EEEENS6_ISD_EEE21__insert_range_uniqueB9nqe220106IPKSD_SL_EEvT_T0_, symObjAddr: 0x3AD40, symBinAddr: 0x3BC60, symSize: 0x140 }
  - { offset: 0x153758, size: 0x8, addend: 0x0, symName: __ZZNSt3__16__treeINS_12__value_typeI7e_modelNS_12basic_stringIcNS_11char_traitsIcEENS_9allocatorIcEEEEEENS_19__map_value_compareIS2_NS_4pairIKS2_S8_EENS_4lessIS2_EEEENS6_ISD_EEE21__insert_range_uniqueB9nqe220106IPKSD_SL_EEvT_T0_ENKUlRSC_RSK_E_clESO_SP_, symObjAddr: 0x3AED0, symBinAddr: 0x3BDF0, symSize: 0x1D0 }
  - { offset: 0x153FE6, size: 0x8, addend: 0x0, symName: __ZNSt3__110unique_ptrINS_11__tree_nodeINS_12__value_typeI7e_modelNS_12basic_stringIcNS_11char_traitsIcEENS_9allocatorIcEEEEEEPvEENS_22__tree_node_destructorINS7_ISC_EEEEED1B9nqe220106Ev, symObjAddr: 0x3AE80, symBinAddr: 0x3BDA0, symSize: 0x50 }
  - { offset: 0x154467, size: 0x8, addend: 0x0, symName: __ZNSt3__16__treeINS_12__value_typeINS_12basic_stringIcNS_11char_traitsIcEENS_9allocatorIcEEEENS_4pairIiS7_EEEENS_19__map_value_compareIS7_NS8_IKS7_S9_EENS_4lessIS7_EEEENS5_ISD_EEED1B9nqe220106Ev, symObjAddr: 0x3B180, symBinAddr: 0x3C0A0, symSize: 0x30 }
  - { offset: 0x154700, size: 0x8, addend: 0x0, symName: __ZNSt3__16__treeINS_12__value_typeINS_12basic_stringIcNS_11char_traitsIcEENS_9allocatorIcEEEENS_4pairIiS7_EEEENS_19__map_value_compareIS7_NS8_IKS7_S9_EENS_4lessIS7_EEEENS5_ISD_EEE21__insert_range_uniqueB9nqe220106IPKSD_SL_EEvT_T0_, symObjAddr: 0x3B1B0, symBinAddr: 0x3C0D0, symSize: 0x120 }
  - { offset: 0x154D6B, size: 0x8, addend: 0x0, symName: __ZNSt3__16__treeINS_12__value_typeINS_12basic_stringIcNS_11char_traitsIcEENS_9allocatorIcEEEENS_4pairIiS7_EEEENS_19__map_value_compareIS7_NS8_IKS7_S9_EENS_4lessIS7_EEEENS5_ISD_EEE16__construct_nodeIJRKSD_EEENS_10unique_ptrINS_11__tree_nodeISA_PvEENS_22__tree_node_destructorINS5_ISP_EEEEEEDpOT_, symObjAddr: 0x3B2D0, symBinAddr: 0x3C1F0, symSize: 0xF0 }
  - { offset: 0x1552E8, size: 0x8, addend: 0x0, symName: __ZZNSt3__16__treeINS_12__value_typeINS_12basic_stringIcNS_11char_traitsIcEENS_9allocatorIcEEEENS_4pairIiS7_EEEENS_19__map_value_compareIS7_NS8_IKS7_S9_EENS_4lessIS7_EEEENS5_ISD_EEE21__insert_range_uniqueB9nqe220106IPKSD_SL_EEvT_T0_ENKUlRSC_RSK_E_clESO_SP_, symObjAddr: 0x3B410, symBinAddr: 0x3C330, symSize: 0x230 }
  - { offset: 0x155D4C, size: 0x8, addend: 0x0, symName: __ZNSt3__110unique_ptrINS_11__tree_nodeINS_12__value_typeINS_12basic_stringIcNS_11char_traitsIcEENS_9allocatorIcEEEENS_4pairIiS8_EEEEPvEENS_22__tree_node_destructorINS6_ISD_EEEEED1B9nqe220106Ev, symObjAddr: 0x3B3C0, symBinAddr: 0x3C2E0, symSize: 0x50 }
  - { offset: 0x1561FA, size: 0x8, addend: 0x0, symName: __ZNSt3__16__treeINS_12__value_typeI30whisper_alignment_heads_preset14whisper_aheadsEENS_19__map_value_compareIS2_NS_4pairIKS2_S3_EENS_4lessIS2_EEEENS_9allocatorIS8_EEED1B9nqe220106Ev, symObjAddr: 0x3B6B0, symBinAddr: 0x3C5D0, symSize: 0x30 }
  - { offset: 0x15659B, size: 0x8, addend: 0x0, symName: __ZZNSt3__16__treeINS_12__value_typeI30whisper_alignment_heads_preset14whisper_aheadsEENS_19__map_value_compareIS2_NS_4pairIKS2_S3_EENS_4lessIS2_EEEENS_9allocatorIS8_EEE21__insert_range_uniqueB9nqe220106IPKS8_SH_EEvT_T0_ENKUlRS7_RSG_E_clESK_SL_, symObjAddr: 0x3B6E0, symBinAddr: 0x3C600, symSize: 0x120 }
  - { offset: 0x157179, size: 0x8, addend: 0x0, symName: __ZNSt3__16vectorIP19ggml_backend_bufferNS_9allocatorIS2_EEE20__throw_length_errorB9nqe220106Ev, symObjAddr: 0x3BAF0, symBinAddr: 0x3CA10, symSize: 0x10 }
  - { offset: 0x157191, size: 0x8, addend: 0x0, symName: __ZNSt3__128__exception_guard_exceptionsINS_6vectorINS_6threadENS_9allocatorIS2_EEE16__destroy_vectorEED1B9nqe220106Ev, symObjAddr: 0x3BB00, symBinAddr: 0x3CA20, symSize: 0x70 }
  - { offset: 0x1571B6, size: 0x8, addend: 0x0, symName: '__ZNSt3__110__function6__funcIZ18whisper_init_stateE3$_0FP11ggml_cgraphvEED1Ev', symObjAddr: 0x3BCA0, symBinAddr: 0x3CBC0, symSize: 0x10 }
  - { offset: 0x1571DF, size: 0x8, addend: 0x0, symName: '__ZNSt3__110__function6__funcIZ18whisper_init_stateE3$_0FP11ggml_cgraphvEED0Ev', symObjAddr: 0x3BCB0, symBinAddr: 0x3CBD0, symSize: 0x10 }
  - { offset: 0x157254, size: 0x8, addend: 0x0, symName: '__ZNKSt3__110__function6__funcIZ18whisper_init_stateE3$_0FP11ggml_cgraphvEE7__cloneEv', symObjAddr: 0x3BCC0, symBinAddr: 0x3CBE0, symSize: 0x30 }
  - { offset: 0x1572CB, size: 0x8, addend: 0x0, symName: '__ZNKSt3__110__function6__funcIZ18whisper_init_stateE3$_0FP11ggml_cgraphvEE7__cloneEPNS0_6__baseIS5_EE', symObjAddr: 0x3BCF0, symBinAddr: 0x3CC10, symSize: 0x20 }
  - { offset: 0x15734E, size: 0x8, addend: 0x0, symName: '__ZNSt3__110__function6__funcIZ18whisper_init_stateE3$_0FP11ggml_cgraphvEE7destroyEv', symObjAddr: 0x3BD10, symBinAddr: 0x3CC30, symSize: 0x10 }
  - { offset: 0x157371, size: 0x8, addend: 0x0, symName: '__ZNSt3__110__function6__funcIZ18whisper_init_stateE3$_0FP11ggml_cgraphvEE18destroy_deallocateEv', symObjAddr: 0x3BD20, symBinAddr: 0x3CC40, symSize: 0x20 }
  - { offset: 0x1573ED, size: 0x8, addend: 0x0, symName: '__ZNSt3__110__function6__funcIZ18whisper_init_stateE3$_0FP11ggml_cgraphvEEclEv', symObjAddr: 0x3BD40, symBinAddr: 0x3CC60, symSize: 0x20 }
  - { offset: 0x15747B, size: 0x8, addend: 0x0, symName: '__ZNKSt3__110__function6__funcIZ18whisper_init_stateE3$_0FP11ggml_cgraphvEE6targetERKSt9type_info', symObjAddr: 0x3BD60, symBinAddr: 0x3CC80, symSize: 0x20 }
  - { offset: 0x1574ED, size: 0x8, addend: 0x0, symName: '__ZNKSt3__110__function6__funcIZ18whisper_init_stateE3$_0FP11ggml_cgraphvEE11target_typeEv', symObjAddr: 0x3BD80, symBinAddr: 0x3CCA0, symSize: 0x10 }
  - { offset: 0x157510, size: 0x8, addend: 0x0, symName: '__ZNSt3__110__function6__funcIZ18whisper_init_stateE3$_1FP11ggml_cgraphvEED1Ev', symObjAddr: 0x3BD90, symBinAddr: 0x3CCB0, symSize: 0x10 }
  - { offset: 0x157539, size: 0x8, addend: 0x0, symName: '__ZNSt3__110__function6__funcIZ18whisper_init_stateE3$_1FP11ggml_cgraphvEED0Ev', symObjAddr: 0x3BDA0, symBinAddr: 0x3CCC0, symSize: 0x10 }
  - { offset: 0x1575AE, size: 0x8, addend: 0x0, symName: '__ZNKSt3__110__function6__funcIZ18whisper_init_stateE3$_1FP11ggml_cgraphvEE7__cloneEv', symObjAddr: 0x3BDB0, symBinAddr: 0x3CCD0, symSize: 0x30 }
  - { offset: 0x157625, size: 0x8, addend: 0x0, symName: '__ZNKSt3__110__function6__funcIZ18whisper_init_stateE3$_1FP11ggml_cgraphvEE7__cloneEPNS0_6__baseIS5_EE', symObjAddr: 0x3BDE0, symBinAddr: 0x3CD00, symSize: 0x20 }
  - { offset: 0x1576A8, size: 0x8, addend: 0x0, symName: '__ZNSt3__110__function6__funcIZ18whisper_init_stateE3$_1FP11ggml_cgraphvEE7destroyEv', symObjAddr: 0x3BE00, symBinAddr: 0x3CD20, symSize: 0x10 }
  - { offset: 0x1576CB, size: 0x8, addend: 0x0, symName: '__ZNSt3__110__function6__funcIZ18whisper_init_stateE3$_1FP11ggml_cgraphvEE18destroy_deallocateEv', symObjAddr: 0x3BE10, symBinAddr: 0x3CD30, symSize: 0x20 }
  - { offset: 0x157747, size: 0x8, addend: 0x0, symName: '__ZNSt3__110__function6__funcIZ18whisper_init_stateE3$_1FP11ggml_cgraphvEEclEv', symObjAddr: 0x3BE30, symBinAddr: 0x3CD50, symSize: 0x20 }
  - { offset: 0x1577D5, size: 0x8, addend: 0x0, symName: '__ZNKSt3__110__function6__funcIZ18whisper_init_stateE3$_1FP11ggml_cgraphvEE6targetERKSt9type_info', symObjAddr: 0x3BE50, symBinAddr: 0x3CD70, symSize: 0x20 }
  - { offset: 0x157847, size: 0x8, addend: 0x0, symName: '__ZNKSt3__110__function6__funcIZ18whisper_init_stateE3$_1FP11ggml_cgraphvEE11target_typeEv', symObjAddr: 0x3BE70, symBinAddr: 0x3CD90, symSize: 0x10 }
  - { offset: 0x15786A, size: 0x8, addend: 0x0, symName: '__ZNSt3__110__function6__funcIZ18whisper_init_stateE3$_2FP11ggml_cgraphvEED1Ev', symObjAddr: 0x3BE80, symBinAddr: 0x3CDA0, symSize: 0x10 }
  - { offset: 0x157893, size: 0x8, addend: 0x0, symName: '__ZNSt3__110__function6__funcIZ18whisper_init_stateE3$_2FP11ggml_cgraphvEED0Ev', symObjAddr: 0x3BE90, symBinAddr: 0x3CDB0, symSize: 0x10 }
  - { offset: 0x157908, size: 0x8, addend: 0x0, symName: '__ZNKSt3__110__function6__funcIZ18whisper_init_stateE3$_2FP11ggml_cgraphvEE7__cloneEv', symObjAddr: 0x3BEA0, symBinAddr: 0x3CDC0, symSize: 0x30 }
  - { offset: 0x15797F, size: 0x8, addend: 0x0, symName: '__ZNKSt3__110__function6__funcIZ18whisper_init_stateE3$_2FP11ggml_cgraphvEE7__cloneEPNS0_6__baseIS5_EE', symObjAddr: 0x3BED0, symBinAddr: 0x3CDF0, symSize: 0x20 }
  - { offset: 0x157A02, size: 0x8, addend: 0x0, symName: '__ZNSt3__110__function6__funcIZ18whisper_init_stateE3$_2FP11ggml_cgraphvEE7destroyEv', symObjAddr: 0x3BEF0, symBinAddr: 0x3CE10, symSize: 0x10 }
  - { offset: 0x157A25, size: 0x8, addend: 0x0, symName: '__ZNSt3__110__function6__funcIZ18whisper_init_stateE3$_2FP11ggml_cgraphvEE18destroy_deallocateEv', symObjAddr: 0x3BF00, symBinAddr: 0x3CE20, symSize: 0x20 }
  - { offset: 0x157AA1, size: 0x8, addend: 0x0, symName: '__ZNSt3__110__function6__funcIZ18whisper_init_stateE3$_2FP11ggml_cgraphvEEclEv', symObjAddr: 0x3BF20, symBinAddr: 0x3CE40, symSize: 0x20 }
  - { offset: 0x157B2F, size: 0x8, addend: 0x0, symName: '__ZNKSt3__110__function6__funcIZ18whisper_init_stateE3$_2FP11ggml_cgraphvEE6targetERKSt9type_info', symObjAddr: 0x3BF40, symBinAddr: 0x3CE60, symSize: 0x20 }
  - { offset: 0x157BA1, size: 0x8, addend: 0x0, symName: '__ZNKSt3__110__function6__funcIZ18whisper_init_stateE3$_2FP11ggml_cgraphvEE11target_typeEv', symObjAddr: 0x3BF60, symBinAddr: 0x3CE80, symSize: 0x10 }
  - { offset: 0x157BC4, size: 0x8, addend: 0x0, symName: '__ZNSt3__110__function6__funcIZ18whisper_init_stateE3$_3FP11ggml_cgraphvEED1Ev', symObjAddr: 0x3BF70, symBinAddr: 0x3CE90, symSize: 0x10 }
  - { offset: 0x157BED, size: 0x8, addend: 0x0, symName: '__ZNSt3__110__function6__funcIZ18whisper_init_stateE3$_3FP11ggml_cgraphvEED0Ev', symObjAddr: 0x3BF80, symBinAddr: 0x3CEA0, symSize: 0x10 }
  - { offset: 0x157C62, size: 0x8, addend: 0x0, symName: '__ZNKSt3__110__function6__funcIZ18whisper_init_stateE3$_3FP11ggml_cgraphvEE7__cloneEv', symObjAddr: 0x3BF90, symBinAddr: 0x3CEB0, symSize: 0x30 }
  - { offset: 0x157CD9, size: 0x8, addend: 0x0, symName: '__ZNKSt3__110__function6__funcIZ18whisper_init_stateE3$_3FP11ggml_cgraphvEE7__cloneEPNS0_6__baseIS5_EE', symObjAddr: 0x3BFC0, symBinAddr: 0x3CEE0, symSize: 0x20 }
  - { offset: 0x157D5C, size: 0x8, addend: 0x0, symName: '__ZNSt3__110__function6__funcIZ18whisper_init_stateE3$_3FP11ggml_cgraphvEE7destroyEv', symObjAddr: 0x3BFE0, symBinAddr: 0x3CF00, symSize: 0x10 }
  - { offset: 0x157D7F, size: 0x8, addend: 0x0, symName: '__ZNSt3__110__function6__funcIZ18whisper_init_stateE3$_3FP11ggml_cgraphvEE18destroy_deallocateEv', symObjAddr: 0x3BFF0, symBinAddr: 0x3CF10, symSize: 0x20 }
  - { offset: 0x157E22, size: 0x8, addend: 0x0, symName: '__ZNSt3__110__function6__funcIZ18whisper_init_stateE3$_3FP11ggml_cgraphvEEclEv', symObjAddr: 0x3C010, symBinAddr: 0x3CF30, symSize: 0x130 }
  - { offset: 0x157F51, size: 0x8, addend: 0x0, symName: '__ZNKSt3__110__function6__funcIZ18whisper_init_stateE3$_3FP11ggml_cgraphvEE6targetERKSt9type_info', symObjAddr: 0x3C140, symBinAddr: 0x3D060, symSize: 0x20 }
  - { offset: 0x157FC3, size: 0x8, addend: 0x0, symName: '__ZNKSt3__110__function6__funcIZ18whisper_init_stateE3$_3FP11ggml_cgraphvEE11target_typeEv', symObjAddr: 0x3C160, symBinAddr: 0x3D080, symSize: 0x10 }
  - { offset: 0x15810C, size: 0x8, addend: 0x0, symName: __ZNSt3__16vectorIZ31whisper_vad_segments_from_probsE16speech_segment_tNS_9allocatorIS1_EEE20__throw_length_errorB9nqe220106Ev, symObjAddr: 0x3D7E0, symBinAddr: 0x3E700, symSize: 0x10 }
  - { offset: 0x158124, size: 0x8, addend: 0x0, symName: __ZZNSt3__16vectorIZ31whisper_vad_segments_from_probsE16speech_segment_tNS_9allocatorIS1_EEE12emplace_backIJS1_EEEvDpOT_ENKUlvE0_clEv, symObjAddr: 0x3D7F0, symBinAddr: 0x3E710, symSize: 0x110 }
  - { offset: 0x158373, size: 0x8, addend: 0x0, symName: __ZNSt3__16vectorI15whisper_segmentNS_9allocatorIS1_EEE20__throw_length_errorB9nqe220106Ev, symObjAddr: 0x3DB30, symBinAddr: 0x3EA50, symSize: 0x10 }
  - { offset: 0x15838B, size: 0x8, addend: 0x0, symName: __ZNSt3__16vectorINS_12basic_stringIcNS_11char_traitsIcEENS_9allocatorIcEEEENS4_IS6_EEE16__init_with_sizeB9nqe220106IPKS6_SB_EEvT_T0_m, symObjAddr: 0x3DB40, symBinAddr: 0x3EA60, symSize: 0x130 }
  - { offset: 0x1584DB, size: 0x8, addend: 0x0, symName: __ZNSt3__16vectorINS_12basic_stringIcNS_11char_traitsIcEENS_9allocatorIcEEEENS4_IS6_EEE16__init_with_sizeB9nqe220106IPKS6_SB_EEvT_T0_m, symObjAddr: 0x3DB40, symBinAddr: 0x3EA60, symSize: 0x130 }
  - { offset: 0x158934, size: 0x8, addend: 0x0, symName: __ZNSt3__128__exception_guard_exceptionsINS_6vectorINS_12basic_stringIcNS_11char_traitsIcEENS_9allocatorIcEEEENS5_IS7_EEE16__destroy_vectorEED1B9nqe220106Ev, symObjAddr: 0x3DC70, symBinAddr: 0x3EB90, symSize: 0x70 }
  - { offset: 0x158B93, size: 0x8, addend: 0x0, symName: __ZNSt3__128__exception_guard_exceptionsINS_29_AllocatorDestroyRangeReverseINS_9allocatorINS_12basic_stringIcNS_11char_traitsIcEENS2_IcEEEEEEPS7_EEED1B9nqe220106Ev, symObjAddr: 0x3DCE0, symBinAddr: 0x3EC00, symSize: 0x40 }
  - { offset: 0x158BC1, size: 0x8, addend: 0x0, symName: __ZNSt3__128__exception_guard_exceptionsINS_29_AllocatorDestroyRangeReverseINS_9allocatorINS_12basic_stringIcNS_11char_traitsIcEENS2_IcEEEEEEPS7_EEED1B9nqe220106Ev, symObjAddr: 0x3DCE0, symBinAddr: 0x3EC00, symSize: 0x40 }
  - { offset: 0x1597C2, size: 0x8, addend: 0x0, symName: __ZNSt3__16vectorIP13whisper_stateNS_9allocatorIS2_EEE20__throw_length_errorB9nqe220106Ev, symObjAddr: 0x41D80, symBinAddr: 0x42CA0, symSize: 0x10 }
  - { offset: 0x1597DA, size: 0x8, addend: 0x0, symName: __ZNSt3__16threadC2B9nqe220106IRFiP15whisper_contextP13whisper_state19whisper_full_paramsPKfiEJRS3_RS5_S6_S8_RKiELi0EEEOT_DpOT0_, symObjAddr: 0x41D90, symBinAddr: 0x42CB0, symSize: 0x120 }
  - { offset: 0x159C31, size: 0x8, addend: 0x0, symName: __ZNSt3__110unique_ptrINS_5tupleIJNS0_INS_15__thread_structENS_14default_deleteIS2_EEEEPFiP15whisper_contextP13whisper_state19whisper_full_paramsPKfiES7_S9_SA_SC_iEEENS3_ISF_EEED1B9nqe220106Ev, symObjAddr: 0x41F60, symBinAddr: 0x42E80, symSize: 0x50 }
  - { offset: 0x15AEB4, size: 0x8, addend: 0x0, symName: __GLOBAL__sub_I_whisper.cpp, symObjAddr: 0x44A80, symBinAddr: 0x430A0, symSize: 0x4200 }
  - { offset: 0x16A8C4, size: 0x8, addend: 0x0, symName: __GLOBAL__sub_I_whisper.cpp.cold.1, symObjAddr: 0x48C80, symBinAddr: 0x1BE580, symSize: 0x2B }
  - { offset: 0x16CC60, size: 0x8, addend: 0x0, symName: __ZL21PARAKEET_TENSOR_NAMES, symObjAddr: 0x196CA0, symBinAddr: 0x292158, symSize: 0x0 }
  - { offset: 0x17210D, size: 0x8, addend: 0x0, symName: __ZNSt3__1L19piecewise_constructE, symObjAddr: 0x14C0C, symBinAddr: 0x1CBF98, symSize: 0x0 }
  - { offset: 0x18F7E2, size: 0x8, addend: 0x0, symName: __ZNSt3__114__thread_proxyB9nqe220106INS_5tupleIJNS_10unique_ptrINS_15__thread_structENS_14default_deleteIS3_EEEEPFv17mel_worker_paramsPKfRKNS_6vectorIfNS_9allocatorIfEEEERK16parakeet_filtersR12parakeet_melRK18parakeet_mel_cacheES7_S9_NS_17reference_wrapperISE_EENSQ_ISH_EENSQ_ISJ_EENSQ_ISM_EEEEEEEPvSW_, symObjAddr: 0xEA20, symBinAddr: 0x548C0, symSize: 0xA0 }
  - { offset: 0x191684, size: 0x8, addend: 0x0, symName: __ZL20PARAKEET_TENSOR_INFO, symObjAddr: 0x196CB8, symBinAddr: 0x292170, symSize: 0x0 }
  - { offset: 0x19189D, size: 0x8, addend: 0x0, symName: __ZL18PARAKEET_SPM_SPACE, symObjAddr: 0x196CD0, symBinAddr: 0x292188, symSize: 0x0 }
  - { offset: 0x191993, size: 0x8, addend: 0x0, symName: _parakeet_print_system_info, symObjAddr: 0x84A0, symBinAddr: 0x4F3E0, symSize: 0x150 }
  - { offset: 0x1919BB, size: 0x8, addend: 0x0, symName: __ZZ26parakeet_print_system_infoE1s, symObjAddr: 0x196CE8, symBinAddr: 0x2921A0, symSize: 0x0 }
  - { offset: 0x191DF4, size: 0x8, addend: 0x0, symName: '__ZTVNSt3__110__function6__funcIZL28parakeet_ensure_encode_schedR16parakeet_contextR14parakeet_stateiE3$_0FP11ggml_cgraphvEEE', symObjAddr: 0x148C8, symBinAddr: 0x1F7220, symSize: 0x0 }
  - { offset: 0x191E02, size: 0x8, addend: 0x0, symName: __ZL28parakeet_ensure_encode_schedR16parakeet_contextR14parakeet_statei, symObjAddr: 0x8DD0, symBinAddr: 0x4FD10, symSize: 0x230 }
  - { offset: 0x194118, size: 0x8, addend: 0x0, symName: __ZL7g_state.0, symObjAddr: 0x14DD0, symBinAddr: 0x1FB8E8, symSize: 0x0 }
  - { offset: 0x194123, size: 0x8, addend: 0x0, symName: __ZL7g_state.1, symObjAddr: 0x196D08, symBinAddr: 0x2921C0, symSize: 0x0 }
  - { offset: 0x19415F, size: 0x8, addend: 0x0, symName: '__ZTVNSt3__110__function6__funcIZ19parakeet_init_stateE3$_0FP11ggml_cgraphvEEE', symObjAddr: 0x14958, symBinAddr: 0x1F72A0, symSize: 0x0 }
  - { offset: 0x19416D, size: 0x8, addend: 0x0, symName: _parakeet_init_state, symObjAddr: 0xF0, symBinAddr: 0x47300, symSize: 0x1080 }
  - { offset: 0x1969DE, size: 0x8, addend: 0x0, symName: '__ZTVNSt3__110__function6__funcIZ19parakeet_init_stateE3$_1FP11ggml_cgraphvEEE', symObjAddr: 0x149D8, symBinAddr: 0x1F7320, symSize: 0x0 }
  - { offset: 0x196CEA, size: 0x8, addend: 0x0, symName: _parakeet_init_from_buffer_with_params_no_state, symObjAddr: 0x1E50, symBinAddr: 0x48EF0, symSize: 0x80 }
  - { offset: 0x1977B9, size: 0x8, addend: 0x0, symName: __ZNSt3__13mapI15parakeet_tensorPKcNS_4lessIS1_EENS_9allocatorINS_4pairIKS1_S3_EEEEED1B9nqe220106Ev, symObjAddr: 0x0, symBinAddr: 0x472A0, symSize: 0x30 }
  - { offset: 0x1978F0, size: 0x8, addend: 0x0, symName: __ZNSt3__16__treeINS_12__value_typeI15parakeet_tensorPKcEENS_19__map_value_compareIS2_NS_4pairIKS2_S4_EENS_4lessIS2_EEEENS_9allocatorIS9_EEE14__tree_deleterclB9nqe220106EPNS_11__tree_nodeIS5_PvEE, symObjAddr: 0x10B40, symBinAddr: 0x56870, symSize: 0x50 }
  - { offset: 0x197ACD, size: 0x8, addend: 0x0, symName: __ZNSt3__13mapI15parakeet_tensor7ggml_opNS_4lessIS1_EENS_9allocatorINS_4pairIKS1_S2_EEEEED1B9nqe220106Ev, symObjAddr: 0x30, symBinAddr: 0x472D0, symSize: 0x30 }
  - { offset: 0x197C04, size: 0x8, addend: 0x0, symName: __ZNSt3__16__treeINS_12__value_typeI15parakeet_tensor7ggml_opEENS_19__map_value_compareIS2_NS_4pairIKS2_S3_EENS_4lessIS2_EEEENS_9allocatorIS8_EEE14__tree_deleterclB9nqe220106EPNS_11__tree_nodeIS4_PvEE, symObjAddr: 0x10CD0, symBinAddr: 0x56A00, symSize: 0x50 }
  - { offset: 0x19936D, size: 0x8, addend: 0x0, symName: __ZL21parakeet_log_internal14ggml_log_levelPKcz, symObjAddr: 0x1170, symBinAddr: 0x48380, symSize: 0x150 }
  - { offset: 0x1996EB, size: 0x8, addend: 0x0, symName: __ZL23parakeet_enc_state_initR14parakeet_stateP12ggml_backendii, symObjAddr: 0x1430, symBinAddr: 0x48640, symSize: 0x1E0 }
  - { offset: 0x199D54, size: 0x8, addend: 0x0, symName: __ZL25parakeet_sched_graph_initR14parakeet_schedNSt3__16vectorIP12ggml_backendNS1_9allocatorIS4_EEEEONS1_8functionIFP11ggml_cgraphvEEE, symObjAddr: 0x1610, symBinAddr: 0x48820, symSize: 0x1D0 }
  - { offset: 0x199D71, size: 0x8, addend: 0x0, symName: _parakeet_free_state, symObjAddr: 0x12C0, symBinAddr: 0x484D0, symSize: 0x170 }
  - { offset: 0x19A0B9, size: 0x8, addend: 0x0, symName: __ZL25parakeet_sched_graph_initR14parakeet_schedNSt3__16vectorIP12ggml_backendNS1_9allocatorIS4_EEEEONS1_8functionIFP11ggml_cgraphvEEE, symObjAddr: 0x1610, symBinAddr: 0x48820, symSize: 0x1D0 }
  - { offset: 0x19A73D, size: 0x8, addend: 0x0, symName: __ZNSt3__16vectorI25parakeet_lstm_state_layerNS_9allocatorIS1_EEE6resizeEm, symObjAddr: 0xB070, symBinAddr: 0x51D50, symSize: 0x140 }
  - { offset: 0x19AC9B, size: 0x8, addend: 0x0, symName: __ZNSt3__16vectorI25parakeet_lstm_state_layerNS_9allocatorIS1_EEE20__throw_length_errorB9nqe220106Ev, symObjAddr: 0xB1B0, symBinAddr: 0x51E90, symSize: 0x10 }
  - { offset: 0x19AD5D, size: 0x8, addend: 0x0, symName: __ZL19parakeet_sched_sizeR14parakeet_sched, symObjAddr: 0x17E0, symBinAddr: 0x489F0, symSize: 0x70 }
  - { offset: 0x19AFB1, size: 0x8, addend: 0x0, symName: __ZN14parakeet_stateD2Ev, symObjAddr: 0xD330, symBinAddr: 0x532D0, symSize: 0x1D0 }
  - { offset: 0x19C5BF, size: 0x8, addend: 0x0, symName: _parakeet_context_default_params, symObjAddr: 0x1850, symBinAddr: 0x48A60, symSize: 0x10 }
  - { offset: 0x19C6A5, size: 0x8, addend: 0x0, symName: _parakeet_init_from_file_with_params_no_state, symObjAddr: 0x1860, symBinAddr: 0x48A70, symSize: 0x180 }
  - { offset: 0x19C9E5, size: 0x8, addend: 0x0, symName: _parakeet_init_with_params_no_state, symObjAddr: 0x1B00, symBinAddr: 0x48BF0, symSize: 0x300 }
  - { offset: 0x19D35D, size: 0x8, addend: 0x0, symName: __ZL19parakeet_model_loadP21parakeet_model_loaderR16parakeet_context, symObjAddr: 0x1ED0, symBinAddr: 0x48F70, symSize: 0x2E00 }
  - { offset: 0x1A49C9, size: 0x8, addend: 0x0, symName: __ZN18parakeet_mel_cache4initEi, symObjAddr: 0x4CE0, symBinAddr: 0x4BD70, symSize: 0x320 }
  - { offset: 0x1A4ADE, size: 0x8, addend: 0x0, symName: __ZN16parakeet_contextD2Ev, symObjAddr: 0xD070, symBinAddr: 0x53130, symSize: 0xE0 }
  - { offset: 0x1A770E, size: 0x8, addend: 0x0, symName: __ZNSt3__16vectorIjNS_9allocatorIjEEE6resizeEm, symObjAddr: 0xB2B0, symBinAddr: 0x51F90, symSize: 0x150 }
  - { offset: 0x1A7FF4, size: 0x8, addend: 0x0, symName: __ZZNSt3__16__treeINS_12__value_typeINS_12basic_stringIcNS_11char_traitsIcEENS_9allocatorIcEEEEiEENS_19__map_value_compareIS7_NS_4pairIKS7_iEENS_4lessIS7_EEEENS5_ISC_EEE16__emplace_uniqueB9nqe220106IJRKNS_21piecewise_construct_tENS_5tupleIJOS7_EEENSM_IJEEEEEENSA_INS_15__tree_iteratorIS8_PNS_11__tree_nodeIS8_PvEElEEbEEDpOT_ENKUlRSB_SL_OSO_OSP_E_clES10_SL_S11_S12_, symObjAddr: 0xC410, symBinAddr: 0x52BA0, symSize: 0x140 }
  - { offset: 0x1A87C4, size: 0x8, addend: 0x0, symName: __ZNSt3__16vectorI22parakeet_layer_encoderNS_9allocatorIS1_EEE6resizeEm, symObjAddr: 0xB500, symBinAddr: 0x520E0, symSize: 0x1A0 }
  - { offset: 0x1A8CE4, size: 0x8, addend: 0x0, symName: '__ZZL19parakeet_model_loadP21parakeet_model_loaderR16parakeet_contextENK3$_1clE15parakeet_tensorP11ggml_tensori', symObjAddr: 0xB6A0, symBinAddr: 0x52280, symSize: 0x790 }
  - { offset: 0x1AA44B, size: 0x8, addend: 0x0, symName: __ZNSt3__16vectorI19parakeet_lsmt_layerNS_9allocatorIS1_EEE6resizeEm, symObjAddr: 0xBE30, symBinAddr: 0x52A10, symSize: 0x190 }
  - { offset: 0x1AB695, size: 0x8, addend: 0x0, symName: _parakeet_init_from_file_with_params, symObjAddr: 0x5000, symBinAddr: 0x4C090, symSize: 0xC0 }
  - { offset: 0x1AB919, size: 0x8, addend: 0x0, symName: _parakeet_free, symObjAddr: 0x50C0, symBinAddr: 0x4C150, symSize: 0xA0 }
  - { offset: 0x1ABBF8, size: 0x8, addend: 0x0, symName: _parakeet_init_from_buffer_with_params, symObjAddr: 0x5160, symBinAddr: 0x4C1F0, symSize: 0x120 }
  - { offset: 0x1ABEE7, size: 0x8, addend: 0x0, symName: _parakeet_init_with_params, symObjAddr: 0x5280, symBinAddr: 0x4C310, symSize: 0xC0 }
  - { offset: 0x1AC16B, size: 0x8, addend: 0x0, symName: _parakeet_free_context_params, symObjAddr: 0x5340, symBinAddr: 0x4C3D0, symSize: 0x20 }
  - { offset: 0x1AC192, size: 0x8, addend: 0x0, symName: _parakeet_free_params, symObjAddr: 0x5360, symBinAddr: 0x4C3F0, symSize: 0x20 }
  - { offset: 0x1ACE5B, size: 0x8, addend: 0x0, symName: _parakeet_pcm_to_mel_with_state, symObjAddr: 0x5380, symBinAddr: 0x4C410, symSize: 0xAE0 }
  - { offset: 0x1AE0B0, size: 0x8, addend: 0x0, symName: __ZNSt3__16threadC2B9nqe220106IRFv17mel_worker_paramsPKfRKNS_6vectorIfNS_9allocatorIfEEEERK16parakeet_filtersR12parakeet_melRK18parakeet_mel_cacheEJRS2_RS4_NS_17reference_wrapperIS9_EENSN_ISC_EENSN_ISE_EENSN_ISH_EEELi0EEEOT_DpOT0_, symObjAddr: 0xE900, symBinAddr: 0x547A0, symSize: 0x120 }
  - { offset: 0x1AE658, size: 0x8, addend: 0x0, symName: __ZL33log_mel_spectrogram_worker_thread17mel_worker_paramsPKfRKNSt3__16vectorIfNS2_9allocatorIfEEEERK16parakeet_filtersR12parakeet_melRK18parakeet_mel_cache, symObjAddr: 0xD500, symBinAddr: 0x534A0, symSize: 0x7C0 }
  - { offset: 0x1AEE2D, size: 0x8, addend: 0x0, symName: __ZL3fftPfiS_RK18parakeet_mel_cache, symObjAddr: 0xDDC0, symBinAddr: 0x53C60, symSize: 0xB40 }
  - { offset: 0x1AEFF2, size: 0x8, addend: 0x0, symName: _parakeet_pcm_to_mel, symObjAddr: 0x5E60, symBinAddr: 0x4CEF0, symSize: 0x20 }
  - { offset: 0x1AF081, size: 0x8, addend: 0x0, symName: _parakeet_set_mel_with_state, symObjAddr: 0x5E80, symBinAddr: 0x4CF10, symSize: 0x80 }
  - { offset: 0x1AF311, size: 0x8, addend: 0x0, symName: _parakeet_set_mel, symObjAddr: 0x6050, symBinAddr: 0x4CF90, symSize: 0x80 }
  - { offset: 0x1AF3FB, size: 0x8, addend: 0x0, symName: _parakeet_encode_with_state, symObjAddr: 0x60D0, symBinAddr: 0x4D010, symSize: 0x40 }
  - { offset: 0x1AF4AB, size: 0x8, addend: 0x0, symName: __ZL24parakeet_encode_internalR16parakeet_contextR14parakeet_stateiiPFbPvES3_, symObjAddr: 0x6110, symBinAddr: 0x4D050, symSize: 0xF20 }
  - { offset: 0x1B061F, size: 0x8, addend: 0x0, symName: __ZL27parakeet_build_graph_encodeR16parakeet_contextR14parakeet_state, symObjAddr: 0xEB50, symBinAddr: 0x549B0, symSize: 0x1670 }
  - { offset: 0x1B26B5, size: 0x8, addend: 0x0, symName: __ZL25ggml_graph_compute_helperP18ggml_backend_schedP11ggml_cgraphib, symObjAddr: 0x101C0, symBinAddr: 0x56020, symSize: 0xD0 }
  - { offset: 0x1B2878, size: 0x8, addend: 0x0, symName: _parakeet_encode, symObjAddr: 0x7030, symBinAddr: 0x4DF70, symSize: 0x50 }
  - { offset: 0x1B32B8, size: 0x8, addend: 0x0, symName: _parakeet_tokenize, symObjAddr: 0x7080, symBinAddr: 0x4DFC0, symSize: 0x990 }
  - { offset: 0x1B5508, size: 0x8, addend: 0x0, symName: '__ZNSt3__110__function6__funcIZL28parakeet_ensure_encode_schedR16parakeet_contextR14parakeet_stateiE3$_0FP11ggml_cgraphvEED1Ev', symObjAddr: 0x103C0, symBinAddr: 0x560F0, symSize: 0x10 }
  - { offset: 0x1B5513, size: 0x8, addend: 0x0, symName: _parakeet_token_count, symObjAddr: 0x7A10, symBinAddr: 0x4E950, symSize: 0x20 }
  - { offset: 0x1B557C, size: 0x8, addend: 0x0, symName: _parakeet_model_n_vocab, symObjAddr: 0x7A30, symBinAddr: 0x4E970, symSize: 0x10 }
  - { offset: 0x1B55A7, size: 0x8, addend: 0x0, symName: _parakeet_model_n_audio_ctx, symObjAddr: 0x7A40, symBinAddr: 0x4E980, symSize: 0x10 }
  - { offset: 0x1B55D2, size: 0x8, addend: 0x0, symName: _parakeet_model_n_audio_state, symObjAddr: 0x7A50, symBinAddr: 0x4E990, symSize: 0x10 }
  - { offset: 0x1B55FD, size: 0x8, addend: 0x0, symName: _parakeet_model_n_audio_head, symObjAddr: 0x7A60, symBinAddr: 0x4E9A0, symSize: 0x10 }
  - { offset: 0x1B5628, size: 0x8, addend: 0x0, symName: _parakeet_model_n_audio_layer, symObjAddr: 0x7A70, symBinAddr: 0x4E9B0, symSize: 0x10 }
  - { offset: 0x1B5653, size: 0x8, addend: 0x0, symName: _parakeet_model_n_mels, symObjAddr: 0x7A80, symBinAddr: 0x4E9C0, symSize: 0x10 }
  - { offset: 0x1B567E, size: 0x8, addend: 0x0, symName: _parakeet_model_ftype, symObjAddr: 0x7A90, symBinAddr: 0x4E9D0, symSize: 0x10 }
  - { offset: 0x1B56A9, size: 0x8, addend: 0x0, symName: _parakeet_n_len_from_state, symObjAddr: 0x7AA0, symBinAddr: 0x4E9E0, symSize: 0x10 }
  - { offset: 0x1B56C6, size: 0x8, addend: 0x0, symName: _parakeet_n_len, symObjAddr: 0x7AB0, symBinAddr: 0x4E9F0, symSize: 0x10 }
  - { offset: 0x1B56F1, size: 0x8, addend: 0x0, symName: _parakeet_n_vocab, symObjAddr: 0x7AC0, symBinAddr: 0x4EA00, symSize: 0x10 }
  - { offset: 0x1B571C, size: 0x8, addend: 0x0, symName: _parakeet_n_audio_ctx, symObjAddr: 0x7AD0, symBinAddr: 0x4EA10, symSize: 0x10 }
  - { offset: 0x1B5739, size: 0x8, addend: 0x0, symName: _parakeet_get_logits, symObjAddr: 0x7AE0, symBinAddr: 0x4EA20, symSize: 0x20 }
  - { offset: 0x1B5786, size: 0x8, addend: 0x0, symName: _parakeet_get_logits_from_state, symObjAddr: 0x7B00, symBinAddr: 0x4EA40, symSize: 0x10 }
  - { offset: 0x1B5827, size: 0x8, addend: 0x0, symName: _parakeet_token_to_str, symObjAddr: 0x7B10, symBinAddr: 0x4EA50, symSize: 0x60 }
  - { offset: 0x1B598F, size: 0x8, addend: 0x0, symName: _parakeet_token_to_text, symObjAddr: 0x7B70, symBinAddr: 0x4EAB0, symSize: 0x170 }
  - { offset: 0x1B6215, size: 0x8, addend: 0x0, symName: __ZL27sentencepiece_piece_to_textRKNSt3__112basic_stringIcNS_11char_traitsIcEENS_9allocatorIcEEEEb, symObjAddr: 0x7CE0, symBinAddr: 0x4EC20, symSize: 0x380 }
  - { offset: 0x1B6BFB, size: 0x8, addend: 0x0, symName: _parakeet_token_bos, symObjAddr: 0x8060, symBinAddr: 0x4EFA0, symSize: 0x10 }
  - { offset: 0x1B6C26, size: 0x8, addend: 0x0, symName: _parakeet_token_unk, symObjAddr: 0x8070, symBinAddr: 0x4EFB0, symSize: 0x10 }
  - { offset: 0x1B6C51, size: 0x8, addend: 0x0, symName: _parakeet_token_blank, symObjAddr: 0x8080, symBinAddr: 0x4EFC0, symSize: 0x10 }
  - { offset: 0x1B6C7C, size: 0x8, addend: 0x0, symName: _parakeet_get_timings, symObjAddr: 0x8090, symBinAddr: 0x4EFD0, symSize: 0xA0 }
  - { offset: 0x1B6D3E, size: 0x8, addend: 0x0, symName: _parakeet_print_timings, symObjAddr: 0x8130, symBinAddr: 0x4F070, symSize: 0x330 }
  - { offset: 0x1B70B9, size: 0x8, addend: 0x0, symName: _parakeet_reset_timings, symObjAddr: 0x8460, symBinAddr: 0x4F3A0, symSize: 0x40 }
  - { offset: 0x1B7136, size: 0x8, addend: 0x0, symName: _parakeet_print_system_info.cold.1, symObjAddr: 0x11480, symBinAddr: 0x1BE5B0, symSize: 0x50 }
  - { offset: 0x1B717C, size: 0x8, addend: 0x0, symName: _parakeet_context_default_params_by_ref, symObjAddr: 0x85F0, symBinAddr: 0x4F530, symSize: 0x20 }
  - { offset: 0x1B7347, size: 0x8, addend: 0x0, symName: _parakeet_full_default_params_by_ref, symObjAddr: 0x8610, symBinAddr: 0x4F550, symSize: 0xC0 }
  - { offset: 0x1B73C7, size: 0x8, addend: 0x0, symName: _parakeet_full_default_params, symObjAddr: 0x86D0, symBinAddr: 0x4F610, symSize: 0x60 }
  - { offset: 0x1B796F, size: 0x8, addend: 0x0, symName: _parakeet_full_with_state, symObjAddr: 0x8730, symBinAddr: 0x4F670, symSize: 0x6A0 }
  - { offset: 0x1B9328, size: 0x8, addend: 0x0, symName: __ZL15parakeet_decodeR16parakeet_contextR14parakeet_stateR14parakeet_batchiPK20parakeet_full_params, symObjAddr: 0x9000, symBinAddr: 0x4FF40, symSize: 0xB30 }
  - { offset: 0x1BA43B, size: 0x8, addend: 0x0, symName: __ZZNSt3__16vectorI19parakeet_token_dataNS_9allocatorIS1_EEE12emplace_backIJRKS1_EEEvDpOT_ENKUlvE0_clEv, symObjAddr: 0x10D20, symBinAddr: 0x56A50, symSize: 0x120 }
  - { offset: 0x1BA78C, size: 0x8, addend: 0x0, symName: _parakeet_chunk, symObjAddr: 0xA0F0, symBinAddr: 0x51030, symSize: 0x7D0 }
  - { offset: 0x1BCA03, size: 0x8, addend: 0x0, symName: __ZL21refine_timestamps_tdtR14parakeet_vocabRNSt3__16vectorI19parakeet_token_dataNS1_9allocatorIS3_EEEE, symObjAddr: 0x9B30, symBinAddr: 0x50A70, symSize: 0x4E0 }
  - { offset: 0x1BDC3E, size: 0x8, addend: 0x0, symName: __ZNSt3__16vectorI19parakeet_token_dataNS_9allocatorIS1_EEE18__assign_with_sizeB9nqe220106INS_17_ClassicAlgPolicyEPS1_S7_EEvT0_T1_l, symObjAddr: 0x11140, symBinAddr: 0x56E70, symSize: 0x150 }
  - { offset: 0x1BE5CD, size: 0x8, addend: 0x0, symName: __ZNSt3__16vectorI16parakeet_segmentNS_9allocatorIS1_EEE9push_backB9nqe220106EOS1_, symObjAddr: 0xA010, symBinAddr: 0x50F50, symSize: 0x80 }
  - { offset: 0x1BE80E, size: 0x8, addend: 0x0, symName: __ZN16parakeet_segmentD1Ev, symObjAddr: 0xA090, symBinAddr: 0x50FD0, symSize: 0x40 }
  - { offset: 0x1BEECD, size: 0x8, addend: 0x0, symName: __ZL16parakeet_predictR16parakeet_contextR14parakeet_stateRK14parakeet_batchiPFbPvES6_, symObjAddr: 0x104B0, symBinAddr: 0x561E0, symSize: 0x130 }
  - { offset: 0x1BF858, size: 0x8, addend: 0x0, symName: __ZNSt3__16vectorI16parakeet_segmentNS_9allocatorIS1_EEE24__emplace_back_slow_pathIJS1_EEEPS1_DpOT_, symObjAddr: 0x11290, symBinAddr: 0x56FC0, symSize: 0x1E0 }
  - { offset: 0x1C0154, size: 0x8, addend: 0x0, symName: _parakeet_full, symObjAddr: 0xA0D0, symBinAddr: 0x51010, symSize: 0x20 }
  - { offset: 0x1C04A7, size: 0x8, addend: 0x0, symName: __ZNSt3__16vectorI19parakeet_token_dataNS_9allocatorIS1_EEE20__throw_length_errorB9nqe220106Ev, symObjAddr: 0x10E40, symBinAddr: 0x56B70, symSize: 0x10 }
  - { offset: 0x1C04BF, size: 0x8, addend: 0x0, symName: '__ZNSt3__110__function6__funcIZ19parakeet_init_stateE3$_0FP11ggml_cgraphvEED1Ev', symObjAddr: 0x10E50, symBinAddr: 0x56B80, symSize: 0x10 }
  - { offset: 0x1C04CA, size: 0x8, addend: 0x0, symName: _parakeet_full_n_segments_from_state, symObjAddr: 0xA8C0, symBinAddr: 0x51800, symSize: 0x20 }
  - { offset: 0x1C0517, size: 0x8, addend: 0x0, symName: _parakeet_full_n_segments, symObjAddr: 0xA8E0, symBinAddr: 0x51820, symSize: 0x20 }
  - { offset: 0x1C0586, size: 0x8, addend: 0x0, symName: _parakeet_full_get_segment_t0_from_state, symObjAddr: 0xA900, symBinAddr: 0x51840, symSize: 0x20 }
  - { offset: 0x1C05D5, size: 0x8, addend: 0x0, symName: _parakeet_full_get_segment_t1_from_state, symObjAddr: 0xA920, symBinAddr: 0x51860, symSize: 0x20 }
  - { offset: 0x1C064B, size: 0x8, addend: 0x0, symName: _parakeet_full_get_segment_t0, symObjAddr: 0xA940, symBinAddr: 0x51880, symSize: 0x20 }
  - { offset: 0x1C06FE, size: 0x8, addend: 0x0, symName: _parakeet_full_get_segment_t1, symObjAddr: 0xA960, symBinAddr: 0x518A0, symSize: 0x20 }
  - { offset: 0x1C078B, size: 0x8, addend: 0x0, symName: _parakeet_full_get_segment_text_from_state, symObjAddr: 0xA980, symBinAddr: 0x518C0, symSize: 0x30 }
  - { offset: 0x1C0897, size: 0x8, addend: 0x0, symName: _parakeet_full_get_segment_text, symObjAddr: 0xA9B0, symBinAddr: 0x518F0, symSize: 0x40 }
  - { offset: 0x1C09A3, size: 0x8, addend: 0x0, symName: _parakeet_full_n_tokens_from_state, symObjAddr: 0xA9F0, symBinAddr: 0x51930, symSize: 0x30 }
  - { offset: 0x1C0A2D, size: 0x8, addend: 0x0, symName: _parakeet_full_n_tokens, symObjAddr: 0xAA20, symBinAddr: 0x51960, symSize: 0x30 }
  - { offset: 0x1C0AB7, size: 0x8, addend: 0x0, symName: _parakeet_full_get_token_text_from_state, symObjAddr: 0xAA50, symBinAddr: 0x51990, symSize: 0xF0 }
  - { offset: 0x1C0FB6, size: 0x8, addend: 0x0, symName: _parakeet_full_get_token_text, symObjAddr: 0xAB40, symBinAddr: 0x51A80, symSize: 0x100 }
  - { offset: 0x1C1466, size: 0x8, addend: 0x0, symName: _parakeet_full_get_token_id_from_state, symObjAddr: 0xAC40, symBinAddr: 0x51B80, symSize: 0x30 }
  - { offset: 0x1C1504, size: 0x8, addend: 0x0, symName: _parakeet_full_get_token_id, symObjAddr: 0xAC70, symBinAddr: 0x51BB0, symSize: 0x30 }
  - { offset: 0x1C15A2, size: 0x8, addend: 0x0, symName: _parakeet_full_get_token_data_from_state, symObjAddr: 0xACA0, symBinAddr: 0x51BE0, symSize: 0x40 }
  - { offset: 0x1C1646, size: 0x8, addend: 0x0, symName: _parakeet_full_get_token_data, symObjAddr: 0xACE0, symBinAddr: 0x51C20, symSize: 0x50 }
  - { offset: 0x1C16EA, size: 0x8, addend: 0x0, symName: _parakeet_full_get_token_p_from_state, symObjAddr: 0xAD30, symBinAddr: 0x51C70, symSize: 0x30 }
  - { offset: 0x1C178D, size: 0x8, addend: 0x0, symName: _parakeet_full_get_token_p, symObjAddr: 0xAD60, symBinAddr: 0x51CA0, symSize: 0x40 }
  - { offset: 0x1C1830, size: 0x8, addend: 0x0, symName: _parakeet_log_set, symObjAddr: 0xADA0, symBinAddr: 0x51CE0, symSize: 0x30 }
  - { offset: 0x1C187F, size: 0x8, addend: 0x0, symName: __ZL29parakeet_log_callback_default14ggml_log_levelPKcPv, symObjAddr: 0xADD0, symBinAddr: 0x51D10, symSize: 0x30 }
  - { offset: 0x1C1911, size: 0x8, addend: 0x0, symName: _parakeet_version, symObjAddr: 0xAE00, symBinAddr: 0x51D40, symSize: 0x10 }
  - { offset: 0x1C200A, size: 0x8, addend: 0x0, symName: __ZNSt3__16vectorI25parakeet_lstm_state_layerNS_9allocatorIS1_EEE20__throw_length_errorB9nqe220106Ev, symObjAddr: 0xB1B0, symBinAddr: 0x51E90, symSize: 0x10 }
  - { offset: 0x1C2022, size: 0x8, addend: 0x0, symName: '__ZZ44parakeet_init_from_file_with_params_no_stateEN3$_08__invokeEPvS0_m', symObjAddr: 0xB1C0, symBinAddr: 0x51EA0, symSize: 0x20 }
  - { offset: 0x1C2089, size: 0x8, addend: 0x0, symName: '__ZZ44parakeet_init_from_file_with_params_no_stateEN3$_08__invokeEPvS0_m', symObjAddr: 0xB1C0, symBinAddr: 0x51EA0, symSize: 0x20 }
  - { offset: 0x1C2178, size: 0x8, addend: 0x0, symName: '__ZZ44parakeet_init_from_file_with_params_no_stateEN3$_18__invokeEPv', symObjAddr: 0xB1E0, symBinAddr: 0x51EC0, symSize: 0x20 }
  - { offset: 0x1C2265, size: 0x8, addend: 0x0, symName: '__ZZ44parakeet_init_from_file_with_params_no_stateEN3$_28__invokeEPv', symObjAddr: 0xB200, symBinAddr: 0x51EE0, symSize: 0x40 }
  - { offset: 0x1C2380, size: 0x8, addend: 0x0, symName: '__ZZ46parakeet_init_from_buffer_with_params_no_stateEN3$_08__invokeEPvS0_m', symObjAddr: 0xB240, symBinAddr: 0x51F20, symSize: 0x40 }
  - { offset: 0x1C244F, size: 0x8, addend: 0x0, symName: '__ZZ46parakeet_init_from_buffer_with_params_no_stateEN3$_18__invokeEPv', symObjAddr: 0xB280, symBinAddr: 0x51F60, symSize: 0x20 }
  - { offset: 0x1C248D, size: 0x8, addend: 0x0, symName: '__ZZ46parakeet_init_from_buffer_with_params_no_stateEN3$_28__invokeEPv', symObjAddr: 0xB2A0, symBinAddr: 0x51F80, symSize: 0x10 }
  - { offset: 0x1C2DD7, size: 0x8, addend: 0x0, symName: __ZNSt3__16vectorI22parakeet_layer_encoderNS_9allocatorIS1_EEE20__throw_length_errorB9nqe220106Ev, symObjAddr: 0xC820, symBinAddr: 0x52CE0, symSize: 0x10 }
  - { offset: 0x1C2DEF, size: 0x8, addend: 0x0, symName: __ZL6formatPKcz, symObjAddr: 0xC830, symBinAddr: 0x52CF0, symSize: 0x200 }
  - { offset: 0x1C3EF6, size: 0x8, addend: 0x0, symName: __ZNKSt3__13mapI15parakeet_tensorPKcNS_4lessIS1_EENS_9allocatorINS_4pairIKS1_S3_EEEEE2atERS8_, symObjAddr: 0xCA30, symBinAddr: 0x52EF0, symSize: 0x50 }
  - { offset: 0x1C4006, size: 0x8, addend: 0x0, symName: __ZL6formatPKcz, symObjAddr: 0xC830, symBinAddr: 0x52CF0, symSize: 0x200 }
  - { offset: 0x1C46D2, size: 0x8, addend: 0x0, symName: __ZZNSt3__16__treeINS_12__value_typeINS_12basic_stringIcNS_11char_traitsIcEENS_9allocatorIcEEEEP11ggml_tensorEENS_19__map_value_compareIS7_NS_4pairIKS7_S9_EENS_4lessIS7_EEEENS5_ISE_EEE16__emplace_uniqueB9nqe220106IJRKNS_21piecewise_construct_tENS_5tupleIJRSD_EEENSO_IJEEEEEENSC_INS_15__tree_iteratorISA_PNS_11__tree_nodeISA_PvEElEEbEEDpOT_ENKUlSP_SN_OSQ_OSR_E_clESP_SN_S12_S13_, symObjAddr: 0xCBD0, symBinAddr: 0x52F40, symSize: 0x190 }
  - { offset: 0x1C4F29, size: 0x8, addend: 0x0, symName: '__ZZL19parakeet_model_loadP21parakeet_model_loaderR16parakeet_contextENK3$_1clE15parakeet_tensorP11ggml_tensori.cold.1', symObjAddr: 0x114D0, symBinAddr: 0x1BE600, symSize: 0x17 }
  - { offset: 0x1C53D1, size: 0x8, addend: 0x0, symName: __ZNSt3__16vectorI19parakeet_lsmt_layerNS_9allocatorIS1_EEE20__throw_length_errorB9nqe220106Ev, symObjAddr: 0xCDB0, symBinAddr: 0x53120, symSize: 0x10 }
  - { offset: 0x1C63E4, size: 0x8, addend: 0x0, symName: __ZZNSt3__16__treeINS_12__value_typeINS_12basic_stringIcNS_11char_traitsIcEENS_9allocatorIcEEEEP11ggml_tensorEENS_19__map_value_compareIS7_NS_4pairIKS7_S9_EENS_4lessIS7_EEEENS5_ISE_EEE16__emplace_uniqueB9nqe220106IJRKNS_21piecewise_construct_tENS_5tupleIJRSD_EEENSO_IJEEEEEENSC_INS_15__tree_iteratorISA_PNS_11__tree_nodeISA_PvEElEEbEEDpOT_ENKUlSP_SN_OSQ_OSR_E_clESP_SN_S12_S13_, symObjAddr: 0xCBD0, symBinAddr: 0x52F40, symSize: 0x190 }
  - { offset: 0x1C6892, size: 0x8, addend: 0x0, symName: __ZNSt3__110unique_ptrINS_11__tree_nodeINS_12__value_typeINS_12basic_stringIcNS_11char_traitsIcEENS_9allocatorIcEEEEP11ggml_tensorEEPvEENS_22__tree_node_destructorINS6_ISD_EEEEED1B9nqe220106Ev, symObjAddr: 0xCD60, symBinAddr: 0x530D0, symSize: 0x50 }
  - { offset: 0x1C77A2, size: 0x8, addend: 0x0, symName: __ZN14parakeet_modelD2Ev, symObjAddr: 0xD210, symBinAddr: 0x53210, symSize: 0xC0 }
  - { offset: 0x1C88C5, size: 0x8, addend: 0x0, symName: __ZL3fftPfiS_RK18parakeet_mel_cache, symObjAddr: 0xDDC0, symBinAddr: 0x53C60, symSize: 0xB40 }
  - { offset: 0x1C92A0, size: 0x8, addend: 0x0, symName: __ZNSt3__110unique_ptrINS_5tupleIJNS0_INS_15__thread_structENS_14default_deleteIS2_EEEEPFv17mel_worker_paramsPKfRKNS_6vectorIfNS_9allocatorIfEEEERK16parakeet_filtersR12parakeet_melRK18parakeet_mel_cacheES6_S8_NS_17reference_wrapperISD_EENSP_ISG_EENSP_ISI_EENSP_ISL_EEEEENS3_ISU_EEED1B9nqe220106Ev, symObjAddr: 0xEAC0, symBinAddr: 0x54960, symSize: 0x50 }
  - { offset: 0x1C9B9F, size: 0x8, addend: 0x0, symName: '__ZNSt3__110__function6__funcIZL28parakeet_ensure_encode_schedR16parakeet_contextR14parakeet_stateiE3$_0FP11ggml_cgraphvEED1Ev', symObjAddr: 0x103C0, symBinAddr: 0x560F0, symSize: 0x10 }
  - { offset: 0x1C9BC8, size: 0x8, addend: 0x0, symName: '__ZNSt3__110__function6__funcIZL28parakeet_ensure_encode_schedR16parakeet_contextR14parakeet_stateiE3$_0FP11ggml_cgraphvEED0Ev', symObjAddr: 0x103D0, symBinAddr: 0x56100, symSize: 0x10 }
  - { offset: 0x1C9C3D, size: 0x8, addend: 0x0, symName: '__ZNKSt3__110__function6__funcIZL28parakeet_ensure_encode_schedR16parakeet_contextR14parakeet_stateiE3$_0FP11ggml_cgraphvEE7__cloneEv', symObjAddr: 0x103E0, symBinAddr: 0x56110, symSize: 0x30 }
  - { offset: 0x1C9CB4, size: 0x8, addend: 0x0, symName: '__ZNKSt3__110__function6__funcIZL28parakeet_ensure_encode_schedR16parakeet_contextR14parakeet_stateiE3$_0FP11ggml_cgraphvEE7__cloneEPNS0_6__baseIS9_EE', symObjAddr: 0x10410, symBinAddr: 0x56140, symSize: 0x20 }
  - { offset: 0x1C9D37, size: 0x8, addend: 0x0, symName: '__ZNSt3__110__function6__funcIZL28parakeet_ensure_encode_schedR16parakeet_contextR14parakeet_stateiE3$_0FP11ggml_cgraphvEE7destroyEv', symObjAddr: 0x10430, symBinAddr: 0x56160, symSize: 0x10 }
  - { offset: 0x1C9D5A, size: 0x8, addend: 0x0, symName: '__ZNSt3__110__function6__funcIZL28parakeet_ensure_encode_schedR16parakeet_contextR14parakeet_stateiE3$_0FP11ggml_cgraphvEE18destroy_deallocateEv', symObjAddr: 0x10440, symBinAddr: 0x56170, symSize: 0x20 }
  - { offset: 0x1C9DD6, size: 0x8, addend: 0x0, symName: '__ZNSt3__110__function6__funcIZL28parakeet_ensure_encode_schedR16parakeet_contextR14parakeet_stateiE3$_0FP11ggml_cgraphvEEclEv', symObjAddr: 0x10460, symBinAddr: 0x56190, symSize: 0x20 }
  - { offset: 0x1C9EAA, size: 0x8, addend: 0x0, symName: '__ZNKSt3__110__function6__funcIZL28parakeet_ensure_encode_schedR16parakeet_contextR14parakeet_stateiE3$_0FP11ggml_cgraphvEE6targetERKSt9type_info', symObjAddr: 0x10480, symBinAddr: 0x561B0, symSize: 0x20 }
  - { offset: 0x1C9F1C, size: 0x8, addend: 0x0, symName: '__ZNKSt3__110__function6__funcIZL28parakeet_ensure_encode_schedR16parakeet_contextR14parakeet_stateiE3$_0FP11ggml_cgraphvEE11target_typeEv', symObjAddr: 0x104A0, symBinAddr: 0x561D0, symSize: 0x10 }
  - { offset: 0x1C9F3F, size: 0x8, addend: 0x0, symName: __ZL31parakeet_build_graph_predictionR16parakeet_contextR14parakeet_stateRK14parakeet_batchb, symObjAddr: 0x105E0, symBinAddr: 0x56310, symSize: 0x420 }
  - { offset: 0x1CA838, size: 0x8, addend: 0x0, symName: __ZNSt3__16__treeINS_12__value_typeI15parakeet_tensorPKcEENS_19__map_value_compareIS2_NS_4pairIKS2_S4_EENS_4lessIS2_EEEENS_9allocatorIS9_EEED1B9nqe220106Ev, symObjAddr: 0x10A00, symBinAddr: 0x56730, symSize: 0x30 }
  - { offset: 0x1CABD9, size: 0x8, addend: 0x0, symName: __ZZNSt3__16__treeINS_12__value_typeI15parakeet_tensorPKcEENS_19__map_value_compareIS2_NS_4pairIKS2_S4_EENS_4lessIS2_EEEENS_9allocatorIS9_EEE21__insert_range_uniqueB9nqe220106IPKS9_SI_EEvT_T0_ENKUlRS8_RSH_E_clESL_SM_, symObjAddr: 0x10A30, symBinAddr: 0x56760, symSize: 0x110 }
  - { offset: 0x1CB1D9, size: 0x8, addend: 0x0, symName: __ZNSt3__16__treeINS_12__value_typeI15parakeet_tensor7ggml_opEENS_19__map_value_compareIS2_NS_4pairIKS2_S3_EENS_4lessIS2_EEEENS_9allocatorIS8_EEED1B9nqe220106Ev, symObjAddr: 0x10B90, symBinAddr: 0x568C0, symSize: 0x30 }
  - { offset: 0x1CB546, size: 0x8, addend: 0x0, symName: __ZZNSt3__16__treeINS_12__value_typeI15parakeet_tensor7ggml_opEENS_19__map_value_compareIS2_NS_4pairIKS2_S3_EENS_4lessIS2_EEEENS_9allocatorIS8_EEE21__insert_range_uniqueB9nqe220106IPKS8_SH_EEvT_T0_ENKUlRS7_RSG_E_clESK_SL_, symObjAddr: 0x10BC0, symBinAddr: 0x568F0, symSize: 0x110 }
  - { offset: 0x1CBC7F, size: 0x8, addend: 0x0, symName: '__ZNSt3__110__function6__funcIZ19parakeet_init_stateE3$_0FP11ggml_cgraphvEED1Ev', symObjAddr: 0x10E50, symBinAddr: 0x56B80, symSize: 0x10 }
  - { offset: 0x1CBCA8, size: 0x8, addend: 0x0, symName: '__ZNSt3__110__function6__funcIZ19parakeet_init_stateE3$_0FP11ggml_cgraphvEED0Ev', symObjAddr: 0x10E60, symBinAddr: 0x56B90, symSize: 0x10 }
  - { offset: 0x1CBD1D, size: 0x8, addend: 0x0, symName: '__ZNKSt3__110__function6__funcIZ19parakeet_init_stateE3$_0FP11ggml_cgraphvEE7__cloneEv', symObjAddr: 0x10E70, symBinAddr: 0x56BA0, symSize: 0x30 }
  - { offset: 0x1CBD94, size: 0x8, addend: 0x0, symName: '__ZNKSt3__110__function6__funcIZ19parakeet_init_stateE3$_0FP11ggml_cgraphvEE7__cloneEPNS0_6__baseIS5_EE', symObjAddr: 0x10EA0, symBinAddr: 0x56BD0, symSize: 0x20 }
  - { offset: 0x1CBE17, size: 0x8, addend: 0x0, symName: '__ZNSt3__110__function6__funcIZ19parakeet_init_stateE3$_0FP11ggml_cgraphvEE7destroyEv', symObjAddr: 0x10EC0, symBinAddr: 0x56BF0, symSize: 0x10 }
  - { offset: 0x1CBE3A, size: 0x8, addend: 0x0, symName: '__ZNSt3__110__function6__funcIZ19parakeet_init_stateE3$_0FP11ggml_cgraphvEE18destroy_deallocateEv', symObjAddr: 0x10ED0, symBinAddr: 0x56C00, symSize: 0x20 }
  - { offset: 0x1CBEB6, size: 0x8, addend: 0x0, symName: '__ZNSt3__110__function6__funcIZ19parakeet_init_stateE3$_0FP11ggml_cgraphvEEclEv', symObjAddr: 0x10EF0, symBinAddr: 0x56C20, symSize: 0x20 }
  - { offset: 0x1CBF44, size: 0x8, addend: 0x0, symName: '__ZNKSt3__110__function6__funcIZ19parakeet_init_stateE3$_0FP11ggml_cgraphvEE6targetERKSt9type_info', symObjAddr: 0x10F10, symBinAddr: 0x56C40, symSize: 0x20 }
  - { offset: 0x1CBFB6, size: 0x8, addend: 0x0, symName: '__ZNKSt3__110__function6__funcIZ19parakeet_init_stateE3$_0FP11ggml_cgraphvEE11target_typeEv', symObjAddr: 0x10F30, symBinAddr: 0x56C60, symSize: 0x10 }
  - { offset: 0x1CBFD9, size: 0x8, addend: 0x0, symName: '__ZNSt3__110__function6__funcIZ19parakeet_init_stateE3$_1FP11ggml_cgraphvEED1Ev', symObjAddr: 0x10F40, symBinAddr: 0x56C70, symSize: 0x10 }
  - { offset: 0x1CC002, size: 0x8, addend: 0x0, symName: '__ZNSt3__110__function6__funcIZ19parakeet_init_stateE3$_1FP11ggml_cgraphvEED0Ev', symObjAddr: 0x10F50, symBinAddr: 0x56C80, symSize: 0x10 }
  - { offset: 0x1CC077, size: 0x8, addend: 0x0, symName: '__ZNKSt3__110__function6__funcIZ19parakeet_init_stateE3$_1FP11ggml_cgraphvEE7__cloneEv', symObjAddr: 0x10F60, symBinAddr: 0x56C90, symSize: 0x30 }
  - { offset: 0x1CC0EE, size: 0x8, addend: 0x0, symName: '__ZNKSt3__110__function6__funcIZ19parakeet_init_stateE3$_1FP11ggml_cgraphvEE7__cloneEPNS0_6__baseIS5_EE', symObjAddr: 0x10F90, symBinAddr: 0x56CC0, symSize: 0x20 }
  - { offset: 0x1CC171, size: 0x8, addend: 0x0, symName: '__ZNSt3__110__function6__funcIZ19parakeet_init_stateE3$_1FP11ggml_cgraphvEE7destroyEv', symObjAddr: 0x10FB0, symBinAddr: 0x56CE0, symSize: 0x10 }
  - { offset: 0x1CC194, size: 0x8, addend: 0x0, symName: '__ZNSt3__110__function6__funcIZ19parakeet_init_stateE3$_1FP11ggml_cgraphvEE18destroy_deallocateEv', symObjAddr: 0x10FC0, symBinAddr: 0x56CF0, symSize: 0x20 }
  - { offset: 0x1CC296, size: 0x8, addend: 0x0, symName: '__ZNSt3__110__function6__funcIZ19parakeet_init_stateE3$_1FP11ggml_cgraphvEEclEv', symObjAddr: 0x10FE0, symBinAddr: 0x56D10, symSize: 0x130 }
  - { offset: 0x1CC3B4, size: 0x8, addend: 0x0, symName: '__ZNKSt3__110__function6__funcIZ19parakeet_init_stateE3$_1FP11ggml_cgraphvEE6targetERKSt9type_info', symObjAddr: 0x11110, symBinAddr: 0x56E40, symSize: 0x20 }
  - { offset: 0x1CC426, size: 0x8, addend: 0x0, symName: '__ZNKSt3__110__function6__funcIZ19parakeet_init_stateE3$_1FP11ggml_cgraphvEE11target_typeEv', symObjAddr: 0x11130, symBinAddr: 0x56E60, symSize: 0x10 }
  - { offset: 0x1CC5C2, size: 0x8, addend: 0x0, symName: __ZNSt3__16vectorI16parakeet_segmentNS_9allocatorIS1_EEE20__throw_length_errorB9nqe220106Ev, symObjAddr: 0x11470, symBinAddr: 0x571A0, symSize: 0x10 }
  - { offset: 0x1CC5DA, size: 0x8, addend: 0x0, symName: _parakeet_print_system_info.cold.1, symObjAddr: 0x11480, symBinAddr: 0x1BE5B0, symSize: 0x50 }
  - { offset: 0x1CC8A6, size: 0x8, addend: 0x0, symName: __GLOBAL__sub_I_parakeet.cpp, symObjAddr: 0x122B0, symBinAddr: 0x571B0, symSize: 0x27C }
  - { offset: 0x1CEDA0, size: 0x8, addend: 0x0, symName: __Z15dl_load_libraryRKNSt3__14__fs10filesystem4pathE, symObjAddr: 0x0, symBinAddr: 0x57430, symSize: 0x90 }
  - { offset: 0x1D93D7, size: 0x8, addend: 0x0, symName: __Z15dl_load_libraryRKNSt3__14__fs10filesystem4pathE, symObjAddr: 0x0, symBinAddr: 0x57430, symSize: 0x90 }
  - { offset: 0x1D9930, size: 0x8, addend: 0x0, symName: __Z10dl_get_symPvPKc, symObjAddr: 0x90, symBinAddr: 0x574C0, symSize: 0x10 }
  - { offset: 0x1D99A2, size: 0x8, addend: 0x0, symName: __Z8dl_errorv, symObjAddr: 0xA0, symBinAddr: 0x574D0, symSize: 0x20 }
  - { offset: 0x1E017C, size: 0x8, addend: 0x0, symName: __ZNSt3__14__fs10filesystemdvB9nqe220106ERKNS1_4pathES4_, symObjAddr: 0x3480, symBinAddr: 0x5A810, symSize: 0xB0 }
  - { offset: 0x1EE3FE, size: 0x8, addend: 0x0, symName: _ggml_backend_register, symObjAddr: 0x0, symBinAddr: 0x574F0, symSize: 0xD0 }
  - { offset: 0x1EE57D, size: 0x8, addend: 0x0, symName: __ZN21ggml_backend_registry16register_backendEP16ggml_backend_regNSt3__110unique_ptrIv17dl_handle_deleterEE, symObjAddr: 0xD0, symBinAddr: 0x575C0, symSize: 0x170 }
  - { offset: 0x1EEBE9, size: 0x8, addend: 0x0, symName: __ZN21ggml_backend_registryC2Ev, symObjAddr: 0x2DB0, symBinAddr: 0x5A2A0, symSize: 0x120 }
  - { offset: 0x1EF0B9, size: 0x8, addend: 0x0, symName: __ZNSt3__110unique_ptrIv17dl_handle_deleterED1B9nqe220106Ev, symObjAddr: 0x240, symBinAddr: 0x57730, symSize: 0x30 }
  - { offset: 0x1EF740, size: 0x8, addend: 0x0, symName: __ZNSt3__16vectorI22ggml_backend_reg_entryNS_9allocatorIS1_EEE24__emplace_back_slow_pathIJS1_EEEPS1_DpOT_, symObjAddr: 0x3050, symBinAddr: 0x5A530, symSize: 0x170 }
  - { offset: 0x1EFE6D, size: 0x8, addend: 0x0, symName: __ZZNSt3__16vectorIP19ggml_backend_deviceNS_9allocatorIS2_EEE12emplace_backIJRKS2_EEERS2_DpOT_ENKUlvE0_clEv, symObjAddr: 0x3290, symBinAddr: 0x5A6B0, symSize: 0x110 }
  - { offset: 0x1F01EA, size: 0x8, addend: 0x0, symName: __ZN22ggml_backend_reg_entryD1Ev, symObjAddr: 0x2F60, symBinAddr: 0x5A440, symSize: 0x30 }
  - { offset: 0x1F02B0, size: 0x8, addend: 0x0, symName: _ggml_backend_device_register, symObjAddr: 0x270, symBinAddr: 0x57760, symSize: 0xF0 }
  - { offset: 0x1F0503, size: 0x8, addend: 0x0, symName: _ggml_backend_reg_count, symObjAddr: 0x360, symBinAddr: 0x57850, symSize: 0x90 }
  - { offset: 0x1F059C, size: 0x8, addend: 0x0, symName: _ggml_backend_reg_get, symObjAddr: 0x3F0, symBinAddr: 0x578E0, symSize: 0x120 }
  - { offset: 0x1F0703, size: 0x8, addend: 0x0, symName: _ggml_backend_reg_by_name, symObjAddr: 0x510, symBinAddr: 0x57A00, symSize: 0x130 }
  - { offset: 0x1F089B, size: 0x8, addend: 0x0, symName: _ggml_backend_dev_count, symObjAddr: 0x640, symBinAddr: 0x57B30, symSize: 0x90 }
  - { offset: 0x1F0934, size: 0x8, addend: 0x0, symName: _ggml_backend_dev_get, symObjAddr: 0x6D0, symBinAddr: 0x57BC0, symSize: 0x120 }
  - { offset: 0x1F0A38, size: 0x8, addend: 0x0, symName: _ggml_backend_dev_by_name, symObjAddr: 0x7F0, symBinAddr: 0x57CE0, symSize: 0x130 }
  - { offset: 0x1F0BA2, size: 0x8, addend: 0x0, symName: _ggml_backend_dev_by_type, symObjAddr: 0x920, symBinAddr: 0x57E10, symSize: 0xD0 }
  - { offset: 0x1F0C8D, size: 0x8, addend: 0x0, symName: _ggml_backend_init_by_name, symObjAddr: 0x9F0, symBinAddr: 0x57EE0, symSize: 0x30 }
  - { offset: 0x1F0D18, size: 0x8, addend: 0x0, symName: _ggml_backend_init_by_type, symObjAddr: 0xA20, symBinAddr: 0x57F10, symSize: 0x30 }
  - { offset: 0x1F0D8C, size: 0x8, addend: 0x0, symName: _ggml_backend_init_best, symObjAddr: 0xA50, symBinAddr: 0x57F40, symSize: 0x40 }
  - { offset: 0x1F107E, size: 0x8, addend: 0x0, symName: _ggml_backend_load, symObjAddr: 0xA90, symBinAddr: 0x57F80, symSize: 0xF0 }
  - { offset: 0x1F13C0, size: 0x8, addend: 0x0, symName: __ZNSt3__112basic_stringIcNS_11char_traitsIcEENS_9allocatorIcEEE6appendB9nqe220106IPKcLi0EEERS5_T_SA_, symObjAddr: 0x35A0, symBinAddr: 0x5A930, symSize: 0x1C0 }
  - { offset: 0x1F1E34, size: 0x8, addend: 0x0, symName: __ZN21ggml_backend_registry12load_backendERKNSt3__14__fs10filesystem4pathEb, symObjAddr: 0xB80, symBinAddr: 0x58070, symSize: 0x4F0 }
  - { offset: 0x1F31AE, size: 0x8, addend: 0x0, symName: _ggml_backend_unload, symObjAddr: 0x1070, symBinAddr: 0x58560, symSize: 0x90 }
  - { offset: 0x1F322A, size: 0x8, addend: 0x0, symName: __ZN21ggml_backend_registry14unload_backendEP16ggml_backend_regb, symObjAddr: 0x1100, symBinAddr: 0x585F0, symSize: 0x1D0 }
  - { offset: 0x1F3E65, size: 0x8, addend: 0x0, symName: _ggml_backend_load_all, symObjAddr: 0x12D0, symBinAddr: 0x587C0, symSize: 0x10 }
  - { offset: 0x1F3E92, size: 0x8, addend: 0x0, symName: _ggml_backend_load_all_from_path, symObjAddr: 0x12E0, symBinAddr: 0x587D0, symSize: 0x110 }
  - { offset: 0x1F4040, size: 0x8, addend: 0x0, symName: __ZL22ggml_backend_load_bestPKcbS0_, symObjAddr: 0x13F0, symBinAddr: 0x588E0, symSize: 0x19B0 }
  - { offset: 0x1FCF36, size: 0x8, addend: 0x0, symName: __ZNSt3__16vectorINS_4__fs10filesystem4pathENS_9allocatorIS3_EEE24__emplace_back_slow_pathIJS3_EEEPS3_DpOT_, symObjAddr: 0x3760, symBinAddr: 0x5AAF0, symSize: 0x170 }
  - { offset: 0x1FD690, size: 0x8, addend: 0x0, symName: __ZNSt3__14__fs10filesystem18directory_iteratorD1B9nqe220106Ev, symObjAddr: 0x3440, symBinAddr: 0x5A7D0, symSize: 0x40 }
  - { offset: 0x1FD69B, size: 0x8, addend: 0x0, symName: __ZNSt3__14__fs10filesystem18directory_iteratorD1B9nqe220106Ev, symObjAddr: 0x3440, symBinAddr: 0x5A7D0, symSize: 0x40 }
  - { offset: 0x1FD76C, size: 0x8, addend: 0x0, symName: __ZNSt3__16vectorINS_4__fs10filesystem4pathENS_9allocatorIS3_EEED1B9nqe220106Ev, symObjAddr: 0x3530, symBinAddr: 0x5A8C0, symSize: 0x70 }
  - { offset: 0x1FD9F9, size: 0x8, addend: 0x0, symName: __ZN21ggml_backend_registryD1Ev, symObjAddr: 0x2DA0, symBinAddr: 0x5A290, symSize: 0x10 }
  - { offset: 0x1FDA39, size: 0x8, addend: 0x0, symName: __ZN21ggml_backend_registryD2Ev, symObjAddr: 0x2F90, symBinAddr: 0x5A470, symSize: 0xC0 }
  - { offset: 0x1FDF9D, size: 0x8, addend: 0x0, symName: __ZNSt3__16vectorI22ggml_backend_reg_entryNS_9allocatorIS1_EEED1B9nqe220106Ev, symObjAddr: 0x2ED0, symBinAddr: 0x5A3C0, symSize: 0x80 }
  - { offset: 0x1FE3DB, size: 0x8, addend: 0x0, symName: __ZNSt3__16vectorI22ggml_backend_reg_entryNS_9allocatorIS1_EEE20__throw_length_errorB9nqe220106Ev, symObjAddr: 0x31C0, symBinAddr: 0x5A6A0, symSize: 0x10 }
  - { offset: 0x1FE610, size: 0x8, addend: 0x0, symName: __ZNSt3__16vectorIP19ggml_backend_deviceNS_9allocatorIS2_EEE20__throw_length_errorB9nqe220106Ev, symObjAddr: 0x33A0, symBinAddr: 0x5A7C0, symSize: 0x10 }
  - { offset: 0x1FEBDC, size: 0x8, addend: 0x0, symName: __ZNSt3__16vectorINS_4__fs10filesystem4pathENS_9allocatorIS3_EEE20__throw_length_errorB9nqe220106Ev, symObjAddr: 0x38D0, symBinAddr: 0x5AC60, symSize: 0x10 }
  - { offset: 0x200AC5, size: 0x8, addend: 0x0, symName: _ggml_op_can_inplace, symObjAddr: 0x0, symBinAddr: 0x5AC70, symSize: 0x180 }
  - { offset: 0x200AF3, size: 0x8, addend: 0x0, symName: _GGML_BUFFER_ADDRESS_INVALID, symObjAddr: 0x3920, symBinAddr: 0x1CC130, symSize: 0x0 }
  - { offset: 0x201EB1, size: 0x8, addend: 0x0, symName: _ggml_op_can_inplace, symObjAddr: 0x0, symBinAddr: 0x5AC70, symSize: 0x180 }
  - { offset: 0x201F1A, size: 0x8, addend: 0x0, symName: _ggml_tallocr_new, symObjAddr: 0x180, symBinAddr: 0x5ADF0, symSize: 0x80 }
  - { offset: 0x201FD7, size: 0x8, addend: 0x0, symName: _ggml_tallocr_alloc, symObjAddr: 0x200, symBinAddr: 0x5AE70, symSize: 0xC0 }
  - { offset: 0x20216F, size: 0x8, addend: 0x0, symName: _ggml_gallocr_new_n, symObjAddr: 0x2C0, symBinAddr: 0x5AF30, symSize: 0x250 }
  - { offset: 0x2023C3, size: 0x8, addend: 0x0, symName: _ggml_dyn_tallocr_reset, symObjAddr: 0x23F0, symBinAddr: 0x5D060, symSize: 0x140 }
  - { offset: 0x2024EC, size: 0x8, addend: 0x0, symName: _ggml_gallocr_new, symObjAddr: 0x510, symBinAddr: 0x5B180, symSize: 0x20 }
  - { offset: 0x20255D, size: 0x8, addend: 0x0, symName: _ggml_gallocr_free, symObjAddr: 0x530, symBinAddr: 0x5B1A0, symSize: 0x140 }
  - { offset: 0x2026FD, size: 0x8, addend: 0x0, symName: _ggml_vbuffer_free, symObjAddr: 0x670, symBinAddr: 0x5B2E0, symSize: 0xC0 }
  - { offset: 0x202858, size: 0x8, addend: 0x0, symName: _ggml_gallocr_reserve_n_size, symObjAddr: 0x730, symBinAddr: 0x5B3A0, symSize: 0x140 }
  - { offset: 0x202951, size: 0x8, addend: 0x0, symName: _ggml_gallocr_reserve_n_impl, symObjAddr: 0x870, symBinAddr: 0x5B4E0, symSize: 0xDA0 }
  - { offset: 0x203D8A, size: 0x8, addend: 0x0, symName: _ggml_gallocr_allocate_node, symObjAddr: 0x25E0, symBinAddr: 0x5D250, symSize: 0x7B0 }
  - { offset: 0x2044E4, size: 0x8, addend: 0x0, symName: _ggml_dyn_tallocr_free_bytes, symObjAddr: 0x3000, symBinAddr: 0x5DC70, symSize: 0x250 }
  - { offset: 0x204720, size: 0x8, addend: 0x0, symName: _ggml_gallocr_reserve_n, symObjAddr: 0x1610, symBinAddr: 0x5C280, symSize: 0x10 }
  - { offset: 0x2047CD, size: 0x8, addend: 0x0, symName: _ggml_gallocr_reserve, symObjAddr: 0x1620, symBinAddr: 0x5C290, symSize: 0x20 }
  - { offset: 0x2049F3, size: 0x8, addend: 0x0, symName: _ggml_gallocr_alloc_graph, symObjAddr: 0x1640, symBinAddr: 0x5C2B0, symSize: 0x7C0 }
  - { offset: 0x2050EA, size: 0x8, addend: 0x0, symName: _ggml_gallocr_get_buffer_size, symObjAddr: 0x1E00, symBinAddr: 0x5CA70, symSize: 0x250 }
  - { offset: 0x205285, size: 0x8, addend: 0x0, symName: _ggml_backend_alloc_ctx_tensors_from_buft_size, symObjAddr: 0x2050, symBinAddr: 0x5CCC0, symSize: 0x50 }
  - { offset: 0x205328, size: 0x8, addend: 0x0, symName: _ggml_backend_alloc_ctx_tensors_from_buft_impl, symObjAddr: 0x20A0, symBinAddr: 0x5CD10, symSize: 0x290 }
  - { offset: 0x205625, size: 0x8, addend: 0x0, symName: _alloc_tensor_range, symObjAddr: 0x3250, symBinAddr: 0x5DEC0, symSize: 0x221 }
  - { offset: 0x20594E, size: 0x8, addend: 0x0, symName: _ggml_backend_alloc_ctx_tensors_from_buft, symObjAddr: 0x2330, symBinAddr: 0x5CFA0, symSize: 0x60 }
  - { offset: 0x205A32, size: 0x8, addend: 0x0, symName: _ggml_backend_alloc_ctx_tensors, symObjAddr: 0x2390, symBinAddr: 0x5D000, symSize: 0x60 }
  - { offset: 0x205B0B, size: 0x8, addend: 0x0, symName: _ggml_gallocr_hash_get, symObjAddr: 0x2530, symBinAddr: 0x5D1A0, symSize: 0xB0 }
  - { offset: 0x205E12, size: 0x8, addend: 0x0, symName: _ggml_gallocr_free_extra_space, symObjAddr: 0x2D90, symBinAddr: 0x5DA00, symSize: 0x270 }
  - { offset: 0x2062F7, size: 0x8, addend: 0x0, symName: _ggml_backend_meta_device, symObjAddr: 0xB0, symBinAddr: 0x5E1A0, symSize: 0x4C0 }
  - { offset: 0x20631D, size: 0x8, addend: 0x0, symName: __ZZ24ggml_backend_meta_deviceE4ctxs, symObjAddr: 0x15A4F8, symBinAddr: 0x292220, symSize: 0x0 }
  - { offset: 0x206333, size: 0x8, addend: 0x0, symName: __ZZ24ggml_backend_meta_deviceE9meta_devs, symObjAddr: 0x15A518, symBinAddr: 0x292240, symSize: 0x0 }
  - { offset: 0x222C50, size: 0x8, addend: 0x0, symName: __ZNSt3__125__try_key_extraction_implB9nqe220106I32ggml_backend_meta_device_contextNS_4pairINS_15__tree_iteratorINS_12__value_typeIS1_19ggml_backend_deviceEEPNS_11__tree_nodeIS6_PvEElEEbEEZNS_6__treeIS6_NS_19__map_value_compareIS1_NS2_IKS1_S5_EENS_4lessIS1_EEEENS_9allocatorISG_EEE16__emplace_uniqueB9nqe220106IJRS1_RS5_EEESC_DpOT_EUlRSF_SO_SP_E_ZNSN_IJSO_SP_EEESC_SS_EUlSO_SP_E_SO_SP_Li0EEET0_NS_14__priority_tagILm1EEET1_T2_OT3_OT4_, symObjAddr: 0x11290, symBinAddr: 0x6EF00, symSize: 0xE0 }
  - { offset: 0x2291CF, size: 0x8, addend: 0x0, symName: __ZL30ggml_backend_meta_device_iface, symObjAddr: 0x12D60, symBinAddr: 0x1F73A0, symSize: 0x0 }
  - { offset: 0x2291E2, size: 0x8, addend: 0x0, symName: __ZL40ggml_backend_meta_device_get_buffer_typeP19ggml_backend_device, symObjAddr: 0x28E0, symBinAddr: 0x608F0, symSize: 0x3D0 }
  - { offset: 0x22920E, size: 0x8, addend: 0x0, symName: __ZZL40ggml_backend_meta_device_get_buffer_typeP19ggml_backend_deviceE10meta_bufts, symObjAddr: 0x15A538, symBinAddr: 0x292260, symSize: 0x0 }
  - { offset: 0x22A4E6, size: 0x8, addend: 0x0, symName: __ZL35ggml_backend_meta_buffer_type_iface, symObjAddr: 0x12DD8, symBinAddr: 0x1F7418, symSize: 0x0 }
  - { offset: 0x22A506, size: 0x8, addend: 0x0, symName: __ZL30ggml_backend_meta_buffer_iface, symObjAddr: 0x12E08, symBinAddr: 0x1F7448, symSize: 0x0 }
  - { offset: 0x22A52B, size: 0x8, addend: 0x0, symName: __ZL19ggml_backend_meta_i, symObjAddr: 0x12E60, symBinAddr: 0x1F74A0, symSize: 0x0 }
  - { offset: 0x22BD17, size: 0x8, addend: 0x0, symName: _ggml_backend_meta_split_axis_name, symObjAddr: 0x0, symBinAddr: 0x5E0F0, symSize: 0xB0 }
  - { offset: 0x22CC0C, size: 0x8, addend: 0x0, symName: __ZN32ggml_backend_meta_device_contextC2ENSt3__16vectorIP19ggml_backend_deviceNS0_9allocatorIS3_EEEEPF29ggml_backend_meta_split_statePK11ggml_tensorPvESB_, symObjAddr: 0x22A0, symBinAddr: 0x60390, symSize: 0x1C0 }
  - { offset: 0x22D1A2, size: 0x8, addend: 0x0, symName: __ZNSt3__16__treeINS_12__value_typeI32ggml_backend_meta_device_context19ggml_backend_deviceEENS_19__map_value_compareIS2_NS_4pairIKS2_S3_EENS_4lessIS2_EEEENS_9allocatorIS8_EEE12__find_equalB9nqe220106IS2_EENS6_IPNS_15__tree_end_nodeIPNS_16__tree_node_baseIPvEEEERSK_EERKT_, symObjAddr: 0x10D20, symBinAddr: 0x6EA10, symSize: 0x1D0 }
  - { offset: 0x22D219, size: 0x8, addend: 0x0, symName: __ZNSt3__16__treeINS_12__value_typeI32ggml_backend_meta_device_context19ggml_backend_deviceEENS_19__map_value_compareIS2_NS_4pairIKS2_S3_EENS_4lessIS2_EEEENS_9allocatorIS8_EEE12__find_equalB9nqe220106IS2_EENS6_IPNS_15__tree_end_nodeIPNS_16__tree_node_baseIPvEEEERSK_EERKT_, symObjAddr: 0x10D20, symBinAddr: 0x6EA10, symSize: 0x1D0 }
  - { offset: 0x22D80C, size: 0x8, addend: 0x0, symName: __ZN32ggml_backend_meta_device_contextC2ERKS_, symObjAddr: 0x10EF0, symBinAddr: 0x6EBE0, symSize: 0x110 }
  - { offset: 0x22DD7A, size: 0x8, addend: 0x0, symName: __ZZNSt3__16vectorINS_10unique_ptrI32ggml_backend_meta_device_contextNS_14default_deleteIS2_EEEENS_9allocatorIS5_EEE12emplace_backIJS5_EEERS5_DpOT_ENKUlvE0_clEv, symObjAddr: 0x11080, symBinAddr: 0x6ECF0, symSize: 0x130 }
  - { offset: 0x22E145, size: 0x8, addend: 0x0, symName: _ggml_backend_meta_device.cold.1, symObjAddr: 0x113F0, symBinAddr: 0x1BE620, symSize: 0x50 }
  - { offset: 0x22E189, size: 0x8, addend: 0x0, symName: _ggml_backend_meta_device.cold.2, symObjAddr: 0x11440, symBinAddr: 0x1BE670, symSize: 0x60 }
  - { offset: 0x22E23A, size: 0x8, addend: 0x0, symName: __ZNSt3__110unique_ptrI32ggml_backend_meta_device_contextNS_14default_deleteIS1_EEED1B9nqe220106Ev, symObjAddr: 0x5C0, symBinAddr: 0x5E6B0, symSize: 0x70 }
  - { offset: 0x22E5E9, size: 0x8, addend: 0x0, symName: __ZN32ggml_backend_meta_device_contextD1Ev, symObjAddr: 0x630, symBinAddr: 0x5E720, symSize: 0x60 }
  - { offset: 0x22E97F, size: 0x8, addend: 0x0, symName: __ZNSt3__16vectorINS_10unique_ptrI32ggml_backend_meta_device_contextNS_14default_deleteIS2_EEEENS_9allocatorIS5_EEED1B9nqe220106Ev, symObjAddr: 0x570, symBinAddr: 0x5E660, symSize: 0x20 }
  - { offset: 0x22EA32, size: 0x8, addend: 0x0, symName: __ZNSt3__16vectorINS_10unique_ptrI32ggml_backend_meta_device_contextNS_14default_deleteIS2_EEEENS_9allocatorIS5_EEE16__destroy_vectorclB9nqe220106Ev, symObjAddr: 0x10A90, symBinAddr: 0x6E8A0, symSize: 0xD0 }
  - { offset: 0x22EFF1, size: 0x8, addend: 0x0, symName: __ZNSt3__13mapI32ggml_backend_meta_device_context19ggml_backend_deviceNS_4lessIS1_EENS_9allocatorINS_4pairIKS1_S2_EEEEED1B9nqe220106Ev, symObjAddr: 0x590, symBinAddr: 0x5E680, symSize: 0x30 }
  - { offset: 0x22F128, size: 0x8, addend: 0x0, symName: __ZNSt3__16__treeINS_12__value_typeI32ggml_backend_meta_device_context19ggml_backend_deviceEENS_19__map_value_compareIS2_NS_4pairIKS2_S3_EENS_4lessIS2_EEEENS_9allocatorIS8_EEE14__tree_deleterclB9nqe220106EPNS_11__tree_nodeIS4_PvEE, symObjAddr: 0x10B60, symBinAddr: 0x6E970, symSize: 0xA0 }
  - { offset: 0x22F5D8, size: 0x8, addend: 0x0, symName: _ggml_backend_buft_is_meta, symObjAddr: 0x690, symBinAddr: 0x5E780, symSize: 0x20 }
  - { offset: 0x22F5F5, size: 0x8, addend: 0x0, symName: _ggml_backend_buffer_is_meta, symObjAddr: 0x6B0, symBinAddr: 0x5E7A0, symSize: 0x20 }
  - { offset: 0x22FE85, size: 0x8, addend: 0x0, symName: _ggml_backend_meta_alloc_ctx_tensors_from_buft, symObjAddr: 0x6D0, symBinAddr: 0x5E7C0, symSize: 0x650 }
  - { offset: 0x2312DB, size: 0x8, addend: 0x0, symName: __ZN41ggml_backend_meta_simple_tensor_containerC2ERK16ggml_init_paramsi, symObjAddr: 0xCD20, symBinAddr: 0x6AB40, symSize: 0x120 }
  - { offset: 0x231752, size: 0x8, addend: 0x0, symName: __ZN32ggml_backend_meta_buffer_contextC2ER41ggml_backend_meta_simple_tensor_containerS1_S1_RKNSt3__16vectorIP19ggml_backend_bufferNS2_9allocatorIS5_EEEE, symObjAddr: 0xD070, symBinAddr: 0x6AE90, symSize: 0x280 }
  - { offset: 0x23203F, size: 0x8, addend: 0x0, symName: __ZL41ggml_backend_meta_buffer_init_tensor_implR41ggml_backend_meta_simple_tensor_containerP11ggml_tensor, symObjAddr: 0xD20, symBinAddr: 0x5EE10, symSize: 0x1420 }
  - { offset: 0x23349C, size: 0x8, addend: 0x0, symName: __ZNSt3__16__treeINS_12__value_typeIPK11ggml_tensorNS_6vectorIPS2_NS_9allocatorIS6_EEEEEENS_19__map_value_compareIS4_NS_4pairIKS4_S9_EENS_4lessIS4_EEEENS7_ISE_EEE14__tree_deleterclB9nqe220106EPNS_11__tree_nodeISA_PvEE, symObjAddr: 0xD010, symBinAddr: 0x6AE30, symSize: 0x60 }
  - { offset: 0x23373B, size: 0x8, addend: 0x0, symName: __ZZNSt3__16vectorIP19ggml_backend_bufferNS_9allocatorIS2_EEE12emplace_backIJS2_EEERS2_DpOT_ENKUlvE0_clEv, symObjAddr: 0x4CA0, symBinAddr: 0x62AD0, symSize: 0x110 }
  - { offset: 0x233746, size: 0x8, addend: 0x0, symName: __ZN41ggml_backend_meta_simple_tensor_containerD1Ev, symObjAddr: 0x2140, symBinAddr: 0x60230, symSize: 0x90 }
  - { offset: 0x23473D, size: 0x8, addend: 0x0, symName: __ZL33ggml_backend_meta_get_split_stateR41ggml_backend_meta_simple_tensor_containerPK11ggml_tensorb, symObjAddr: 0x6CF0, symBinAddr: 0x64B20, symSize: 0x3460 }
  - { offset: 0x23AB14, size: 0x8, addend: 0x0, symName: __ZL38ggml_backend_meta_buffer_simple_tensorPK11ggml_tensorm, symObjAddr: 0x6BC0, symBinAddr: 0x649F0, symSize: 0x130 }
  - { offset: 0x23AE43, size: 0x8, addend: 0x0, symName: __ZZNSt3__16vectorIP11ggml_tensorNS_9allocatorIS2_EEE12emplace_backIJRKS2_EEERS2_DpOT_ENKUlvE0_clEv, symObjAddr: 0xD410, symBinAddr: 0x6B220, symSize: 0x110 }
  - { offset: 0x23B1C0, size: 0x8, addend: 0x0, symName: __ZNSt3__16vectorIP11ggml_tensorNS_9allocatorIS2_EEE18__assign_with_sizeB9nqe220106INS_17_ClassicAlgPolicyEPS2_S8_EEvT0_T1_l, symObjAddr: 0xD520, symBinAddr: 0x6B330, symSize: 0x130 }
  - { offset: 0x23BB4F, size: 0x8, addend: 0x0, symName: __ZZNSt3__16vectorIP11ggml_tensorNS_9allocatorIS2_EEE12emplace_backIJRKS2_EEERS2_DpOT_ENKUlvE0_clEv, symObjAddr: 0xD410, symBinAddr: 0x6B220, symSize: 0x110 }
  - { offset: 0x23BB5A, size: 0x8, addend: 0x0, symName: _ggml_backend_is_meta, symObjAddr: 0x21D0, symBinAddr: 0x602C0, symSize: 0x20 }
  - { offset: 0x23BBAE, size: 0x8, addend: 0x0, symName: _ggml_backend_meta_n_backends, symObjAddr: 0x21F0, symBinAddr: 0x602E0, symSize: 0x60 }
  - { offset: 0x23BBDA, size: 0x8, addend: 0x0, symName: _ggml_backend_meta_n_backends, symObjAddr: 0x21F0, symBinAddr: 0x602E0, symSize: 0x60 }
  - { offset: 0x23BC50, size: 0x8, addend: 0x0, symName: _ggml_backend_meta_simple_backend, symObjAddr: 0x2250, symBinAddr: 0x60340, symSize: 0x50 }
  - { offset: 0x23BC86, size: 0x8, addend: 0x0, symName: _ggml_backend_meta_simple_backend, symObjAddr: 0x2250, symBinAddr: 0x60340, symSize: 0x50 }
  - { offset: 0x23BF58, size: 0x8, addend: 0x0, symName: __ZL33ggml_backend_meta_device_get_nameP19ggml_backend_device, symObjAddr: 0x2540, symBinAddr: 0x60550, symSize: 0x50 }
  - { offset: 0x23BF84, size: 0x8, addend: 0x0, symName: __ZL33ggml_backend_meta_device_get_nameP19ggml_backend_device, symObjAddr: 0x2540, symBinAddr: 0x60550, symSize: 0x50 }
  - { offset: 0x23C062, size: 0x8, addend: 0x0, symName: __ZL40ggml_backend_meta_device_get_descriptionP19ggml_backend_device, symObjAddr: 0x2590, symBinAddr: 0x605A0, symSize: 0x50 }
  - { offset: 0x23C08E, size: 0x8, addend: 0x0, symName: __ZL40ggml_backend_meta_device_get_descriptionP19ggml_backend_device, symObjAddr: 0x2590, symBinAddr: 0x605A0, symSize: 0x50 }
  - { offset: 0x23C1BD, size: 0x8, addend: 0x0, symName: __ZL35ggml_backend_meta_device_get_memoryP19ggml_backend_devicePmS1_, symObjAddr: 0x25E0, symBinAddr: 0x605F0, symSize: 0xB0 }
  - { offset: 0x23C344, size: 0x8, addend: 0x0, symName: __ZL33ggml_backend_meta_device_get_typeP19ggml_backend_device, symObjAddr: 0x2690, symBinAddr: 0x606A0, symSize: 0x10 }
  - { offset: 0x23C446, size: 0x8, addend: 0x0, symName: __ZL34ggml_backend_meta_device_get_propsP19ggml_backend_deviceP22ggml_backend_dev_props, symObjAddr: 0x26A0, symBinAddr: 0x606B0, symSize: 0x170 }
  - { offset: 0x23C89B, size: 0x8, addend: 0x0, symName: __ZL37ggml_backend_meta_device_init_backendP19ggml_backend_devicePKc, symObjAddr: 0x2810, symBinAddr: 0x60820, symSize: 0xD0 }
  - { offset: 0x23C94B, size: 0x8, addend: 0x0, symName: __ZN25ggml_backend_meta_contextC2EP19ggml_backend_devicePKc, symObjAddr: 0x2E90, symBinAddr: 0x60EA0, symSize: 0x650 }
  - { offset: 0x23E818, size: 0x8, addend: 0x0, symName: __ZZNSt3__16vectorIP24ggml_backend_buffer_typeNS_9allocatorIS2_EEE12emplace_backIJS2_EEERS2_DpOT_ENKUlvE0_clEv, symObjAddr: 0x3EF0, symBinAddr: 0x61EC0, symSize: 0x110 }
  - { offset: 0x23EB95, size: 0x8, addend: 0x0, symName: __ZN37ggml_backend_meta_buffer_type_contextC2ENSt3__16vectorIP24ggml_backend_buffer_typeNS0_9allocatorIS3_EEEE, symObjAddr: 0x4000, symBinAddr: 0x61FD0, symSize: 0x130 }
  - { offset: 0x23EF31, size: 0x8, addend: 0x0, symName: __ZL40ggml_backend_meta_device_get_buffer_typeP19ggml_backend_device.cold.1, symObjAddr: 0x114A0, symBinAddr: 0x1BE6D0, symSize: 0x55 }
  - { offset: 0x23EFCE, size: 0x8, addend: 0x0, symName: __ZNSt3__16vectorIP24ggml_backend_buffer_typeNS_9allocatorIS2_EEE20__throw_length_errorB9nqe220106Ev, symObjAddr: 0x3EE0, symBinAddr: 0x61EB0, symSize: 0x10 }
  - { offset: 0x23EFE6, size: 0x8, addend: 0x0, symName: __ZZNSt3__16vectorIP24ggml_backend_buffer_typeNS_9allocatorIS2_EEE12emplace_backIJS2_EEERS2_DpOT_ENKUlvE0_clEv, symObjAddr: 0x3EF0, symBinAddr: 0x61EC0, symSize: 0x110 }
  - { offset: 0x23EFF1, size: 0x8, addend: 0x0, symName: __ZL45ggml_backend_meta_device_get_host_buffer_typeP19ggml_backend_device, symObjAddr: 0x2CB0, symBinAddr: 0x60CC0, symSize: 0x90 }
  - { offset: 0x23F199, size: 0x8, addend: 0x0, symName: __ZL36ggml_backend_meta_device_supports_opP19ggml_backend_devicePK11ggml_tensor, symObjAddr: 0x2D40, symBinAddr: 0x60D50, symSize: 0x90 }
  - { offset: 0x23F436, size: 0x8, addend: 0x0, symName: __ZL38ggml_backend_meta_device_supports_buftP19ggml_backend_deviceP24ggml_backend_buffer_type, symObjAddr: 0x2DD0, symBinAddr: 0x60DE0, symSize: 0xC0 }
  - { offset: 0x23FEC5, size: 0x8, addend: 0x0, symName: __ZNSt3__16vectorIN25ggml_backend_meta_context14backend_configENS_9allocatorIS2_EEE7reserveEm, symObjAddr: 0x34E0, symBinAddr: 0x614F0, symSize: 0x160 }
  - { offset: 0x240472, size: 0x8, addend: 0x0, symName: __ZNSt3__16vectorINS_10unique_ptrI19ggml_backend_buffer27ggml_backend_buffer_deleterEENS_9allocatorIS4_EEE6resizeEm, symObjAddr: 0x3A30, symBinAddr: 0x61A00, symSize: 0x1A0 }
  - { offset: 0x240AD0, size: 0x8, addend: 0x0, symName: __ZZNSt3__16vectorIP12ggml_backendNS_9allocatorIS2_EEE12emplace_backIJS2_EEERS2_DpOT_ENKUlvE0_clEv, symObjAddr: 0x3920, symBinAddr: 0x618F0, symSize: 0x110 }
  - { offset: 0x240E4D, size: 0x8, addend: 0x0, symName: __ZNSt3__16vectorIN25ggml_backend_meta_context14backend_configENS_9allocatorIS2_EEE24__emplace_back_slow_pathIJRP12ggml_backendRmEEEPS2_DpOT_, symObjAddr: 0x3BE0, symBinAddr: 0x61BB0, symSize: 0x280 }
  - { offset: 0x24170F, size: 0x8, addend: 0x0, symName: __ZZNSt3__16vectorIP12ggml_backendNS_9allocatorIS2_EEE12emplace_backIJS2_EEERS2_DpOT_ENKUlvE0_clEv, symObjAddr: 0x3920, symBinAddr: 0x618F0, symSize: 0x110 }
  - { offset: 0x24171A, size: 0x8, addend: 0x0, symName: __ZNSt3__16vectorINS_10unique_ptrI19ggml_backend_buffer27ggml_backend_buffer_deleterEENS_9allocatorIS4_EEED1B9nqe220106Ev, symObjAddr: 0x3820, symBinAddr: 0x61800, symSize: 0x80 }
  - { offset: 0x2418DE, size: 0x8, addend: 0x0, symName: __ZNSt3__16vectorIN25ggml_backend_meta_context13cgraph_configENS_9allocatorIS2_EEED1B9nqe220106Ev, symObjAddr: 0x38A0, symBinAddr: 0x61880, symSize: 0x70 }
  - { offset: 0x241BF8, size: 0x8, addend: 0x0, symName: __ZNSt3__16vectorIN25ggml_backend_meta_context14backend_configENS_9allocatorIS2_EEED1B9nqe220106Ev, symObjAddr: 0x3670, symBinAddr: 0x61650, symSize: 0x70 }
  - { offset: 0x242170, size: 0x8, addend: 0x0, symName: __ZN25ggml_backend_meta_context14backend_configD2Ev, symObjAddr: 0x3740, symBinAddr: 0x61720, symSize: 0xE0 }
  - { offset: 0x242736, size: 0x8, addend: 0x0, symName: __ZNSt3__16vectorIN25ggml_backend_meta_context14backend_configENS_9allocatorIS2_EEE20__throw_length_errorB9nqe220106Ev, symObjAddr: 0x36E0, symBinAddr: 0x616C0, symSize: 0x10 }
  - { offset: 0x24274E, size: 0x8, addend: 0x0, symName: __ZNSt3__114__split_bufferIN25ggml_backend_meta_context14backend_configERNS_9allocatorIS2_EEED1Ev, symObjAddr: 0x36F0, symBinAddr: 0x616D0, symSize: 0x50 }
  - { offset: 0x242843, size: 0x8, addend: 0x0, symName: __ZNSt3__114__split_bufferIN25ggml_backend_meta_context14backend_configERNS_9allocatorIS2_EEED1Ev, symObjAddr: 0x36F0, symBinAddr: 0x616D0, symSize: 0x50 }
  - { offset: 0x24317E, size: 0x8, addend: 0x0, symName: __ZNSt3__16vectorINS_10unique_ptrI19ggml_backend_buffer27ggml_backend_buffer_deleterEENS_9allocatorIS4_EEE20__throw_length_errorB9nqe220106Ev, symObjAddr: 0x3BD0, symBinAddr: 0x61BA0, symSize: 0x10 }
  - { offset: 0x243196, size: 0x8, addend: 0x0, symName: __ZNSt3__16vectorIN25ggml_backend_meta_context14backend_configENS_9allocatorIS2_EEE24__emplace_back_slow_pathIJRP12ggml_backendRmEEEPS2_DpOT_, symObjAddr: 0x3BE0, symBinAddr: 0x61BB0, symSize: 0x280 }
  - { offset: 0x2432BC, size: 0x8, addend: 0x0, symName: __ZNSt3__13mapIP19ggml_backend_device24ggml_backend_buffer_typeNS_4lessIS2_EENS_9allocatorINS_4pairIKS2_S3_EEEEED1B9nqe220106Ev, symObjAddr: 0x3E60, symBinAddr: 0x61E30, symSize: 0x30 }
  - { offset: 0x2433F3, size: 0x8, addend: 0x0, symName: __ZNSt3__16__treeINS_12__value_typeIP19ggml_backend_device24ggml_backend_buffer_typeEENS_19__map_value_compareIS3_NS_4pairIKS3_S4_EENS_4lessIS3_EEEENS_9allocatorIS9_EEE14__tree_deleterclB9nqe220106EPNS_11__tree_nodeIS5_PvEE, symObjAddr: 0x3E90, symBinAddr: 0x61E60, symSize: 0x50 }
  - { offset: 0x2436B7, size: 0x8, addend: 0x0, symName: __ZL38ggml_backend_meta_buffer_type_get_nameP24ggml_backend_buffer_type, symObjAddr: 0x42C0, symBinAddr: 0x62100, symSize: 0x50 }
  - { offset: 0x2436FC, size: 0x8, addend: 0x0, symName: __ZL38ggml_backend_meta_buffer_type_get_nameP24ggml_backend_buffer_type, symObjAddr: 0x42C0, symBinAddr: 0x62100, symSize: 0x50 }
  - { offset: 0x243BC5, size: 0x8, addend: 0x0, symName: __ZL42ggml_backend_meta_buffer_type_alloc_bufferP24ggml_backend_buffer_typem, symObjAddr: 0x4310, symBinAddr: 0x62150, symSize: 0x510 }
  - { offset: 0x244FAA, size: 0x8, addend: 0x0, symName: __ZZNSt3__16vectorIP19ggml_backend_bufferNS_9allocatorIS2_EEE12emplace_backIJS2_EEERS2_DpOT_ENKUlvE0_clEv, symObjAddr: 0x4CA0, symBinAddr: 0x62AD0, symSize: 0x110 }
  - { offset: 0x245327, size: 0x8, addend: 0x0, symName: __ZL43ggml_backend_meta_buffer_type_get_alignmentP24ggml_backend_buffer_type, symObjAddr: 0x4820, symBinAddr: 0x62660, symSize: 0x160 }
  - { offset: 0x2454EE, size: 0x8, addend: 0x0, symName: __ZL42ggml_backend_meta_buffer_type_get_max_sizeP24ggml_backend_buffer_type, symObjAddr: 0x4980, symBinAddr: 0x627C0, symSize: 0x110 }
  - { offset: 0x245686, size: 0x8, addend: 0x0, symName: __ZL44ggml_backend_meta_buffer_type_get_alloc_sizeP24ggml_backend_buffer_typePK11ggml_tensor, symObjAddr: 0x4A90, symBinAddr: 0x628D0, symSize: 0x110 }
  - { offset: 0x245854, size: 0x8, addend: 0x0, symName: __ZL37ggml_backend_meta_buffer_type_is_hostP24ggml_backend_buffer_type, symObjAddr: 0x4BA0, symBinAddr: 0x629E0, symSize: 0xF0 }
  - { offset: 0x245ADF, size: 0x8, addend: 0x0, symName: __ZL36ggml_backend_meta_buffer_free_bufferP19ggml_backend_buffer, symObjAddr: 0x4DB0, symBinAddr: 0x62BE0, symSize: 0x60 }
  - { offset: 0x245B88, size: 0x8, addend: 0x0, symName: __ZN32ggml_backend_meta_buffer_contextD2Ev, symObjAddr: 0x6950, symBinAddr: 0x64780, symSize: 0x1F0 }
  - { offset: 0x2464CD, size: 0x8, addend: 0x0, symName: __ZL33ggml_backend_meta_buffer_get_baseP19ggml_backend_buffer, symObjAddr: 0x4E10, symBinAddr: 0x62C40, symSize: 0x10 }
  - { offset: 0x2464F9, size: 0x8, addend: 0x0, symName: __ZL36ggml_backend_meta_buffer_init_tensorP19ggml_backend_bufferP11ggml_tensor, symObjAddr: 0x4E20, symBinAddr: 0x62C50, symSize: 0xB0 }
  - { offset: 0x246DB7, size: 0x8, addend: 0x0, symName: __ZL35ggml_backend_meta_buffer_set_tensorP19ggml_backend_bufferP11ggml_tensorPKvmm, symObjAddr: 0x4ED0, symBinAddr: 0x62D00, symSize: 0xD50 }
  - { offset: 0x248348, size: 0x8, addend: 0x0, symName: __ZZNSt3__16vectorIfNS_9allocatorIfEEE12emplace_backIJfEEERfDpOT_ENKUlvE0_clEv, symObjAddr: 0xCC10, symBinAddr: 0x6AA30, symSize: 0x110 }
  - { offset: 0x2486C1, size: 0x8, addend: 0x0, symName: __ZNSt3__16vectorImNS_9allocatorImEEE20__throw_length_errorB9nqe220106Ev, symObjAddr: 0xCBF0, symBinAddr: 0x6AA20, symSize: 0x10 }
  - { offset: 0x2486EE, size: 0x8, addend: 0x0, symName: __ZZNSt3__16vectorIfNS_9allocatorIfEEE12emplace_backIJfEEERfDpOT_ENKUlvE0_clEv, symObjAddr: 0xCC10, symBinAddr: 0x6AA30, symSize: 0x110 }
  - { offset: 0x2486F9, size: 0x8, addend: 0x0, symName: __ZL35ggml_backend_meta_buffer_get_tensorP19ggml_backend_bufferPK11ggml_tensorPvmm, symObjAddr: 0x5C20, symBinAddr: 0x63A50, symSize: 0xB30 }
  - { offset: 0x2495A9, size: 0x8, addend: 0x0, symName: __ZL30ggml_backend_meta_buffer_clearP19ggml_backend_bufferh, symObjAddr: 0x6750, symBinAddr: 0x64580, symSize: 0x100 }
  - { offset: 0x24976F, size: 0x8, addend: 0x0, symName: __ZL30ggml_backend_meta_buffer_resetP19ggml_backend_buffer, symObjAddr: 0x6850, symBinAddr: 0x64680, symSize: 0x100 }
  - { offset: 0x249A0D, size: 0x8, addend: 0x0, symName: __ZNSt3__16__treeINS_12__value_typeINS_4pairIPK11ggml_tensorbEENS2_I29ggml_backend_meta_split_stateA328_cEEEENS_19__map_value_compareIS6_NS2_IKS6_S9_EENS_4lessIS6_EEEENS_9allocatorISD_EEE14__tree_deleterclB9nqe220106EPNS_11__tree_nodeISA_PvEE, symObjAddr: 0x6B70, symBinAddr: 0x649A0, symSize: 0x50 }
  - { offset: 0x249AF1, size: 0x8, addend: 0x0, symName: __ZNSt3__13mapINS_4pairIPK11ggml_tensorbEENS1_I29ggml_backend_meta_split_stateA328_cEENS_4lessIS5_EENS_9allocatorINS1_IKS5_S8_EEEEED1B9nqe220106Ev, symObjAddr: 0x6B40, symBinAddr: 0x64970, symSize: 0x30 }
  - { offset: 0x24ACD7, size: 0x8, addend: 0x0, symName: '__ZZL33ggml_backend_meta_get_split_stateR41ggml_backend_meta_simple_tensor_containerPK11ggml_tensorbENK3$_1clERKNSt3__16vectorI29ggml_backend_meta_split_stateNS5_9allocatorIS7_EEEEb', symObjAddr: 0xA150, symBinAddr: 0x67F80, symSize: 0xA70 }
  - { offset: 0x24AE32, size: 0x8, addend: 0x0, symName: '__ZZL33ggml_backend_meta_get_split_stateR41ggml_backend_meta_simple_tensor_containerPK11ggml_tensorbENK3$_3clERKNSt3__16vectorI29ggml_backend_meta_split_stateNS5_9allocatorIS7_EEEE', symObjAddr: 0xABC0, symBinAddr: 0x689F0, symSize: 0x90 }
  - { offset: 0x24AE81, size: 0x8, addend: 0x0, symName: '__ZZL33ggml_backend_meta_get_split_stateR41ggml_backend_meta_simple_tensor_containerPK11ggml_tensorbENK3$_4clERKNSt3__16vectorI29ggml_backend_meta_split_stateNS5_9allocatorIS7_EEEE', symObjAddr: 0xAC50, symBinAddr: 0x68A80, symSize: 0xE0 }
  - { offset: 0x24AE95, size: 0x8, addend: 0x0, symName: '__ZZL33ggml_backend_meta_get_split_stateR41ggml_backend_meta_simple_tensor_containerPK11ggml_tensorbENK3$_5clERKNSt3__16vectorI29ggml_backend_meta_split_stateNS5_9allocatorIS7_EEEE', symObjAddr: 0xAD30, symBinAddr: 0x68B60, symSize: 0xA40 }
  - { offset: 0x24AF97, size: 0x8, addend: 0x0, symName: '__ZZL33ggml_backend_meta_get_split_stateR41ggml_backend_meta_simple_tensor_containerPK11ggml_tensorbENK3$_6clERKNSt3__16vectorI29ggml_backend_meta_split_stateNS5_9allocatorIS7_EEEE', symObjAddr: 0xB7A0, symBinAddr: 0x695D0, symSize: 0x390 }
  - { offset: 0x24B107, size: 0x8, addend: 0x0, symName: '__ZZL33ggml_backend_meta_get_split_stateR41ggml_backend_meta_simple_tensor_containerPK11ggml_tensorbENK4$_14clERKNSt3__16vectorI29ggml_backend_meta_split_stateNS5_9allocatorIS7_EEEE', symObjAddr: 0xC840, symBinAddr: 0x6A670, symSize: 0x80 }
  - { offset: 0x24B16C, size: 0x8, addend: 0x0, symName: '__ZZL33ggml_backend_meta_get_split_stateR41ggml_backend_meta_simple_tensor_containerPK11ggml_tensorbENK4$_17clERKNSt3__16vectorI29ggml_backend_meta_split_stateNS5_9allocatorIS7_EEEE', symObjAddr: 0xCA60, symBinAddr: 0x6A890, symSize: 0x190 }
  - { offset: 0x24B215, size: 0x8, addend: 0x0, symName: __ZNSt3__16vectorImNS_9allocatorImEEE20__throw_length_errorB9nqe220106Ev, symObjAddr: 0xCBF0, symBinAddr: 0x6AA20, symSize: 0x10 }
  - { offset: 0x24B229, size: 0x8, addend: 0x0, symName: '__ZZL33ggml_backend_meta_get_split_stateR41ggml_backend_meta_simple_tensor_containerPK11ggml_tensorbENK3$_4clERKNSt3__16vectorI29ggml_backend_meta_split_stateNS5_9allocatorIS7_EEEE', symObjAddr: 0xAC50, symBinAddr: 0x68A80, symSize: 0xE0 }
  - { offset: 0x24B2B4, size: 0x8, addend: 0x0, symName: '__ZZL33ggml_backend_meta_get_split_stateR41ggml_backend_meta_simple_tensor_containerPK11ggml_tensorbENK4$_15clERKNSt3__16vectorI29ggml_backend_meta_split_stateNS5_9allocatorIS7_EEEE', symObjAddr: 0xC8C0, symBinAddr: 0x6A6F0, symSize: 0x130 }
  - { offset: 0x24B35E, size: 0x8, addend: 0x0, symName: '__ZZL33ggml_backend_meta_get_split_stateR41ggml_backend_meta_simple_tensor_containerPK11ggml_tensorbENK4$_10clERKNSt3__16vectorI29ggml_backend_meta_split_stateNS5_9allocatorIS7_EEEE', symObjAddr: 0xBDB0, symBinAddr: 0x69BE0, symSize: 0xD0 }
  - { offset: 0x24B3BF, size: 0x8, addend: 0x0, symName: '__ZZL33ggml_backend_meta_get_split_stateR41ggml_backend_meta_simple_tensor_containerPK11ggml_tensorbENK3$_9clERKNSt3__16vectorI29ggml_backend_meta_split_stateNS5_9allocatorIS7_EEEE', symObjAddr: 0xBCE0, symBinAddr: 0x69B10, symSize: 0xD0 }
  - { offset: 0x24B424, size: 0x8, addend: 0x0, symName: '__ZZL33ggml_backend_meta_get_split_stateR41ggml_backend_meta_simple_tensor_containerPK11ggml_tensorbENK3$_7clERKNSt3__16vectorI29ggml_backend_meta_split_stateNS5_9allocatorIS7_EEEE', symObjAddr: 0xB770, symBinAddr: 0x695A0, symSize: 0x30 }
  - { offset: 0x24B4A9, size: 0x8, addend: 0x0, symName: '__ZZL33ggml_backend_meta_get_split_stateR41ggml_backend_meta_simple_tensor_containerPK11ggml_tensorbENK4$_12clERKNSt3__16vectorI29ggml_backend_meta_split_stateNS5_9allocatorIS7_EEEE', symObjAddr: 0xBE80, symBinAddr: 0x69CB0, symSize: 0x9C0 }
  - { offset: 0x24B5AD, size: 0x8, addend: 0x0, symName: '__ZZL33ggml_backend_meta_get_split_stateR41ggml_backend_meta_simple_tensor_containerPK11ggml_tensorbENK3$_8clERKNSt3__16vectorI29ggml_backend_meta_split_stateNS5_9allocatorIS7_EEEE', symObjAddr: 0xBB30, symBinAddr: 0x69960, symSize: 0x1B0 }
  - { offset: 0x24B713, size: 0x8, addend: 0x0, symName: '__ZZL33ggml_backend_meta_get_split_stateR41ggml_backend_meta_simple_tensor_containerPK11ggml_tensorbENK4$_16clERKNSt3__16vectorI29ggml_backend_meta_split_stateNS5_9allocatorIS7_EEEE', symObjAddr: 0xC9F0, symBinAddr: 0x6A820, symSize: 0x70 }
  - { offset: 0x24BCBD, size: 0x8, addend: 0x0, symName: __ZZNSt3__16vectorINS_10unique_ptrI12ggml_context20ggml_context_deleterEENS_9allocatorIS4_EEE12emplace_backIJPS2_EEERS4_DpOT_ENKUlvE0_clEv, symObjAddr: 0xCF00, symBinAddr: 0x6AD20, symSize: 0x110 }
  - { offset: 0x24C07C, size: 0x8, addend: 0x0, symName: __ZNSt3__16vectorINS_10unique_ptrI12ggml_context20ggml_context_deleterEENS_9allocatorIS4_EEE20__throw_length_errorB9nqe220106Ev, symObjAddr: 0xCEF0, symBinAddr: 0x6AD10, symSize: 0x10 }
  - { offset: 0x24C094, size: 0x8, addend: 0x0, symName: __ZZNSt3__16vectorINS_10unique_ptrI12ggml_context20ggml_context_deleterEENS_9allocatorIS4_EEE12emplace_backIJPS2_EEERS4_DpOT_ENKUlvE0_clEv, symObjAddr: 0xCF00, symBinAddr: 0x6AD20, symSize: 0x110 }
  - { offset: 0x24C09F, size: 0x8, addend: 0x0, symName: __ZNSt3__13mapIPK11ggml_tensorNS_6vectorIPS1_NS_9allocatorIS5_EEEENS_4lessIS3_EENS6_INS_4pairIKS3_S8_EEEEED1B9nqe220106Ev, symObjAddr: 0xCE40, symBinAddr: 0x6AC60, symSize: 0x30 }
  - { offset: 0x24C1CE, size: 0x8, addend: 0x0, symName: __ZNSt3__16vectorINS_10unique_ptrI12ggml_context20ggml_context_deleterEENS_9allocatorIS4_EEED1B9nqe220106Ev, symObjAddr: 0xCE70, symBinAddr: 0x6AC90, symSize: 0x80 }
  - { offset: 0x24C93F, size: 0x8, addend: 0x0, symName: __ZZNSt3__16vectorINS_10unique_ptrI19ggml_backend_buffer27ggml_backend_buffer_deleterEENS_9allocatorIS4_EEE12emplace_backIJRPS2_EEERS4_DpOT_ENKUlvE0_clEv, symObjAddr: 0xD2F0, symBinAddr: 0x6B110, symSize: 0x110 }
  - { offset: 0x24CF89, size: 0x8, addend: 0x0, symName: __ZL26ggml_backend_meta_get_nameP12ggml_backend, symObjAddr: 0xD650, symBinAddr: 0x6B460, symSize: 0x50 }
  - { offset: 0x24CFCE, size: 0x8, addend: 0x0, symName: __ZL26ggml_backend_meta_get_nameP12ggml_backend, symObjAddr: 0xD650, symBinAddr: 0x6B460, symSize: 0x50 }
  - { offset: 0x24D0C3, size: 0x8, addend: 0x0, symName: __ZL22ggml_backend_meta_freeP12ggml_backend, symObjAddr: 0xD6A0, symBinAddr: 0x6B4B0, symSize: 0x70 }
  - { offset: 0x24D16C, size: 0x8, addend: 0x0, symName: __ZN25ggml_backend_meta_contextD2Ev, symObjAddr: 0xFCF0, symBinAddr: 0x6DB00, symSize: 0x140 }
  - { offset: 0x24D8CE, size: 0x8, addend: 0x0, symName: __ZL34ggml_backend_meta_set_tensor_asyncP12ggml_backendP11ggml_tensorPKvmm, symObjAddr: 0xD710, symBinAddr: 0x6B520, symSize: 0x3A0 }
  - { offset: 0x24DDBF, size: 0x8, addend: 0x0, symName: __ZL34ggml_backend_meta_get_tensor_asyncP12ggml_backendPK11ggml_tensorPvmm, symObjAddr: 0xDAB0, symBinAddr: 0x6B8C0, symSize: 0x370 }
  - { offset: 0x24E2A6, size: 0x8, addend: 0x0, symName: __ZL29ggml_backend_meta_synchronizeP12ggml_backend, symObjAddr: 0xDE20, symBinAddr: 0x6BC30, symSize: 0xC0 }
  - { offset: 0x24EA32, size: 0x8, addend: 0x0, symName: __ZL31ggml_backend_meta_graph_computeP12ggml_backendP11ggml_cgraph, symObjAddr: 0xDEE0, symBinAddr: 0x6BCF0, symSize: 0x1E10 }
  - { offset: 0x25261E, size: 0x8, addend: 0x0, symName: __ZNSt3__16vectorIP11ggml_tensorNS_9allocatorIS2_EEE6resizeEm, symObjAddr: 0xFE30, symBinAddr: 0x6DC40, symSize: 0x150 }
  - { offset: 0x252B35, size: 0x8, addend: 0x0, symName: __ZNSt3__16vectorIN25ggml_backend_meta_context13cgraph_configENS_9allocatorIS2_EEE6resizeEm, symObjAddr: 0xFF80, symBinAddr: 0x6DD90, symSize: 0x240 }
  - { offset: 0x25358B, size: 0x8, addend: 0x0, symName: '__ZZZL31ggml_backend_meta_graph_computeP12ggml_backendP11ggml_cgraphENK3$_0clEiENKUlvE_clEv', symObjAddr: 0x103B0, symBinAddr: 0x6E1C0, symSize: 0x360 }
  - { offset: 0x2537E4, size: 0x8, addend: 0x0, symName: __ZL23ggml_node_get_use_countPK11ggml_cgraphi, symObjAddr: 0x10320, symBinAddr: 0x6E130, symSize: 0x90 }
  - { offset: 0x25390F, size: 0x8, addend: 0x0, symName: __ZNSt3__16vectorIP11ggml_cgraphNS_9allocatorIS2_EEE6resizeEm, symObjAddr: 0x101C0, symBinAddr: 0x6DFD0, symSize: 0x150 }
  - { offset: 0x253E5D, size: 0x8, addend: 0x0, symName: __ZNSt3__16__treeIP19ggml_backend_bufferNS_4lessIS2_EENS_9allocatorIS2_EEE14__tree_deleterclB9nqe220106EPNS_11__tree_nodeIS2_PvEE, symObjAddr: 0x10720, symBinAddr: 0x6E530, symSize: 0x50 }
  - { offset: 0x253F62, size: 0x8, addend: 0x0, symName: '__ZZZL31ggml_backend_meta_graph_computeP12ggml_backendP11ggml_cgraphENK3$_4clEmENKUlmmmE_clEmmm', symObjAddr: 0x10770, symBinAddr: 0x6E580, symSize: 0x320 }
  - { offset: 0x254363, size: 0x8, addend: 0x0, symName: __ZNSt3__16vectorIP11ggml_cgraphNS_9allocatorIS2_EEE20__throw_length_errorB9nqe220106Ev, symObjAddr: 0x10710, symBinAddr: 0x6E520, symSize: 0x10 }
  - { offset: 0x25437B, size: 0x8, addend: 0x0, symName: __ZNSt3__16__treeIP19ggml_backend_bufferNS_4lessIS2_EENS_9allocatorIS2_EEE14__tree_deleterclB9nqe220106EPNS_11__tree_nodeIS2_PvEE, symObjAddr: 0x10720, symBinAddr: 0x6E530, symSize: 0x50 }
  - { offset: 0x254AF7, size: 0x8, addend: 0x0, symName: __ZNSt3__16vectorIN25ggml_backend_meta_context13cgraph_configENS_9allocatorIS2_EEE20__throw_length_errorB9nqe220106Ev, symObjAddr: 0x10310, symBinAddr: 0x6E120, symSize: 0x10 }
  - { offset: 0x254B0F, size: 0x8, addend: 0x0, symName: __ZL23ggml_node_get_use_countPK11ggml_cgraphi, symObjAddr: 0x10320, symBinAddr: 0x6E130, symSize: 0x90 }
  - { offset: 0x2557FC, size: 0x8, addend: 0x0, symName: __ZNSt3__114__split_bufferINS_10unique_ptrI32ggml_backend_meta_device_contextNS_14default_deleteIS2_EEEERNS_9allocatorIS5_EEED2Ev, symObjAddr: 0x111C0, symBinAddr: 0x6EE30, symSize: 0xD0 }
  - { offset: 0x255CD1, size: 0x8, addend: 0x0, symName: __ZNSt3__16vectorINS_10unique_ptrI32ggml_backend_meta_device_contextNS_14default_deleteIS2_EEEENS_9allocatorIS5_EEE20__throw_length_errorB9nqe220106Ev, symObjAddr: 0x111B0, symBinAddr: 0x6EE20, symSize: 0x10 }
  - { offset: 0x255CE9, size: 0x8, addend: 0x0, symName: __ZNSt3__114__split_bufferINS_10unique_ptrI32ggml_backend_meta_device_contextNS_14default_deleteIS2_EEEERNS_9allocatorIS5_EEED2Ev, symObjAddr: 0x111C0, symBinAddr: 0x6EE30, symSize: 0xD0 }
  - { offset: 0x2561DA, size: 0x8, addend: 0x0, symName: __ZNSt3__110unique_ptrINS_11__tree_nodeINS_12__value_typeI32ggml_backend_meta_device_context19ggml_backend_deviceEEPvEENS_22__tree_node_destructorINS_9allocatorIS7_EEEEED1B9nqe220106Ev, symObjAddr: 0x11370, symBinAddr: 0x6EFE0, symSize: 0x80 }
  - { offset: 0x258795, size: 0x8, addend: 0x0, symName: _ggml_backend_buft_name, symObjAddr: 0x0, symBinAddr: 0x6F060, symSize: 0x30 }
  - { offset: 0x2587B6, size: 0x8, addend: 0x0, symName: _ggml_backend_cpu_buffer_type, symObjAddr: 0x8DC0, symBinAddr: 0x77E20, symSize: 0x10 }
  - { offset: 0x2587DE, size: 0x8, addend: 0x0, symName: __ZZ28ggml_backend_cpu_buffer_typeE28ggml_backend_cpu_buffer_type, symObjAddr: 0xA2B8, symBinAddr: 0x1FB900, symSize: 0x0 }
  - { offset: 0x258872, size: 0x8, addend: 0x0, symName: __ZL27ggml_backend_multi_buffer_i, symObjAddr: 0xA1B0, symBinAddr: 0x1F7520, symSize: 0x0 }
  - { offset: 0x25B5DC, size: 0x8, addend: 0x0, symName: __ZL25ggml_backend_cpu_buffer_i, symObjAddr: 0xA260, symBinAddr: 0x1F75D0, symSize: 0x0 }
  - { offset: 0x25B5F7, size: 0x8, addend: 0x0, symName: __ZL34ggml_backend_cpu_buffer_from_ptr_i, symObjAddr: 0xA208, symBinAddr: 0x1F7578, symSize: 0x0 }
  - { offset: 0x25BA81, size: 0x8, addend: 0x0, symName: _ggml_backend_buft_name, symObjAddr: 0x0, symBinAddr: 0x6F060, symSize: 0x30 }
  - { offset: 0x25BB22, size: 0x8, addend: 0x0, symName: _ggml_backend_buft_alloc_buffer, symObjAddr: 0x30, symBinAddr: 0x6F090, symSize: 0x80 }
  - { offset: 0x25BBA3, size: 0x8, addend: 0x0, symName: _ggml_backend_buffer_init, symObjAddr: 0xB0, symBinAddr: 0x6F110, symSize: 0x70 }
  - { offset: 0x25BBE9, size: 0x8, addend: 0x0, symName: _ggml_backend_buft_get_alignment, symObjAddr: 0x120, symBinAddr: 0x6F180, symSize: 0x30 }
  - { offset: 0x25BC2A, size: 0x8, addend: 0x0, symName: _ggml_backend_buft_get_max_size, symObjAddr: 0x150, symBinAddr: 0x6F1B0, symSize: 0x40 }
  - { offset: 0x25BC6B, size: 0x8, addend: 0x0, symName: _ggml_backend_buft_get_alloc_size, symObjAddr: 0x190, symBinAddr: 0x6F1F0, symSize: 0x40 }
  - { offset: 0x25BCF0, size: 0x8, addend: 0x0, symName: _ggml_backend_buft_is_host, symObjAddr: 0x1D0, symBinAddr: 0x6F230, symSize: 0x40 }
  - { offset: 0x25BD31, size: 0x8, addend: 0x0, symName: _ggml_backend_buft_get_device, symObjAddr: 0x210, symBinAddr: 0x6F270, symSize: 0x30 }
  - { offset: 0x25BDA4, size: 0x8, addend: 0x0, symName: _ggml_backend_buffer_name, symObjAddr: 0x240, symBinAddr: 0x6F2A0, symSize: 0x60 }
  - { offset: 0x25BE38, size: 0x8, addend: 0x0, symName: _ggml_backend_buffer_get_type, symObjAddr: 0x2A0, symBinAddr: 0x6F300, symSize: 0x30 }
  - { offset: 0x25BE6E, size: 0x8, addend: 0x0, symName: _ggml_backend_buffer_free, symObjAddr: 0x2D0, symBinAddr: 0x6F330, symSize: 0x30 }
  - { offset: 0x25BE99, size: 0x8, addend: 0x0, symName: _ggml_backend_buffer_get_size, symObjAddr: 0x300, symBinAddr: 0x6F360, symSize: 0x30 }
  - { offset: 0x25BECE, size: 0x8, addend: 0x0, symName: _ggml_backend_buffer_get_base, symObjAddr: 0x330, symBinAddr: 0x6F390, symSize: 0x90 }
  - { offset: 0x25BF58, size: 0x8, addend: 0x0, symName: _ggml_backend_buffer_init_tensor, symObjAddr: 0x3C0, symBinAddr: 0x6F420, symSize: 0x40 }
  - { offset: 0x25BFA4, size: 0x8, addend: 0x0, symName: _ggml_backend_buffer_clear, symObjAddr: 0x400, symBinAddr: 0x6F460, symSize: 0x40 }
  - { offset: 0x25C009, size: 0x8, addend: 0x0, symName: _ggml_backend_buffer_get_alignment, symObjAddr: 0x440, symBinAddr: 0x6F4A0, symSize: 0x60 }
  - { offset: 0x25C0B6, size: 0x8, addend: 0x0, symName: _ggml_backend_buffer_get_max_size, symObjAddr: 0x4A0, symBinAddr: 0x6F500, symSize: 0x70 }
  - { offset: 0x25C17D, size: 0x8, addend: 0x0, symName: _ggml_backend_buffer_get_alloc_size, symObjAddr: 0x510, symBinAddr: 0x6F570, symSize: 0x70 }
  - { offset: 0x25C240, size: 0x8, addend: 0x0, symName: _ggml_backend_buffer_is_host, symObjAddr: 0x580, symBinAddr: 0x6F5E0, symSize: 0x70 }
  - { offset: 0x25C323, size: 0x8, addend: 0x0, symName: _ggml_backend_buffer_set_usage, symObjAddr: 0x5F0, symBinAddr: 0x6F650, symSize: 0x80 }
  - { offset: 0x25C3F4, size: 0x8, addend: 0x0, symName: _ggml_backend_buffer_is_multi_buffer, symObjAddr: 0x670, symBinAddr: 0x6F6D0, symSize: 0x40 }
  - { offset: 0x25C42A, size: 0x8, addend: 0x0, symName: _ggml_backend_multi_buffer_set_usage, symObjAddr: 0x6B0, symBinAddr: 0x6F710, symSize: 0xA0 }
  - { offset: 0x25C4DD, size: 0x8, addend: 0x0, symName: _ggml_backend_buffer_get_usage, symObjAddr: 0x750, symBinAddr: 0x6F7B0, symSize: 0x30 }
  - { offset: 0x25C513, size: 0x8, addend: 0x0, symName: _ggml_backend_buffer_reset, symObjAddr: 0x780, symBinAddr: 0x6F7E0, symSize: 0x40 }
  - { offset: 0x25C55D, size: 0x8, addend: 0x0, symName: _ggml_backend_buffer_copy_tensor, symObjAddr: 0x7C0, symBinAddr: 0x6F820, symSize: 0x30 }
  - { offset: 0x25C59C, size: 0x8, addend: 0x0, symName: _ggml_backend_guid, symObjAddr: 0x7F0, symBinAddr: 0x6F850, symSize: 0x20 }
  - { offset: 0x25C5C5, size: 0x8, addend: 0x0, symName: _ggml_backend_name, symObjAddr: 0x810, symBinAddr: 0x6F870, symSize: 0x20 }
  - { offset: 0x25C5EE, size: 0x8, addend: 0x0, symName: _ggml_backend_free, symObjAddr: 0x830, symBinAddr: 0x6F890, symSize: 0x10 }
  - { offset: 0x25C63A, size: 0x8, addend: 0x0, symName: _ggml_backend_get_default_buffer_type, symObjAddr: 0x840, symBinAddr: 0x6F8A0, symSize: 0x60 }
  - { offset: 0x25C6AB, size: 0x8, addend: 0x0, symName: _ggml_backend_dev_buffer_type, symObjAddr: 0x8A0, symBinAddr: 0x6F900, symSize: 0x30 }
  - { offset: 0x25C72A, size: 0x8, addend: 0x0, symName: _ggml_backend_alloc_buffer, symObjAddr: 0x8D0, symBinAddr: 0x6F930, symSize: 0xF0 }
  - { offset: 0x25C84B, size: 0x8, addend: 0x0, symName: _ggml_backend_get_alignment, symObjAddr: 0x9C0, symBinAddr: 0x6FA20, symSize: 0x90 }
  - { offset: 0x25C91A, size: 0x8, addend: 0x0, symName: _ggml_backend_get_max_size, symObjAddr: 0xA50, symBinAddr: 0x6FAB0, symSize: 0xA0 }
  - { offset: 0x25CA48, size: 0x8, addend: 0x0, symName: _ggml_backend_tensor_set_async, symObjAddr: 0xAF0, symBinAddr: 0x6FB50, symSize: 0x1D0 }
  - { offset: 0x25CBFC, size: 0x8, addend: 0x0, symName: _ggml_backend_synchronize, symObjAddr: 0xCC0, symBinAddr: 0x6FD20, symSize: 0x40 }
  - { offset: 0x25CC3E, size: 0x8, addend: 0x0, symName: _ggml_backend_tensor_set, symObjAddr: 0xD00, symBinAddr: 0x6FD60, symSize: 0x120 }
  - { offset: 0x25CD4B, size: 0x8, addend: 0x0, symName: _ggml_backend_tensor_get_async, symObjAddr: 0xE20, symBinAddr: 0x6FE80, symSize: 0x1D0 }
  - { offset: 0x25CF05, size: 0x8, addend: 0x0, symName: _ggml_backend_tensor_get, symObjAddr: 0xFF0, symBinAddr: 0x70050, symSize: 0x120 }
  - { offset: 0x25CFCA, size: 0x8, addend: 0x0, symName: _ggml_backend_tensor_set_2d_async, symObjAddr: 0x1110, symBinAddr: 0x70170, symSize: 0x1A0 }
  - { offset: 0x25D113, size: 0x8, addend: 0x0, symName: _ggml_backend_tensor_get_2d_async, symObjAddr: 0x12B0, symBinAddr: 0x70310, symSize: 0x1A0 }
  - { offset: 0x25D25C, size: 0x8, addend: 0x0, symName: _ggml_backend_tensor_set_2d, symObjAddr: 0x1450, symBinAddr: 0x704B0, symSize: 0x230 }
  - { offset: 0x25D482, size: 0x8, addend: 0x0, symName: _ggml_backend_tensor_get_2d, symObjAddr: 0x1680, symBinAddr: 0x706E0, symSize: 0x230 }
  - { offset: 0x25D6A8, size: 0x8, addend: 0x0, symName: _ggml_backend_tensor_memset, symObjAddr: 0x18B0, symBinAddr: 0x70910, symSize: 0x150 }
  - { offset: 0x25D7AA, size: 0x8, addend: 0x0, symName: _ggml_backend_graph_plan_create, symObjAddr: 0x1A00, symBinAddr: 0x70A60, symSize: 0x60 }
  - { offset: 0x25D822, size: 0x8, addend: 0x0, symName: _ggml_backend_graph_plan_free, symObjAddr: 0x1A60, symBinAddr: 0x70AC0, symSize: 0x60 }
  - { offset: 0x25D896, size: 0x8, addend: 0x0, symName: _ggml_backend_graph_plan_compute, symObjAddr: 0x1AC0, symBinAddr: 0x70B20, symSize: 0x60 }
  - { offset: 0x25D935, size: 0x8, addend: 0x0, symName: _ggml_backend_graph_compute, symObjAddr: 0x1B20, symBinAddr: 0x70B80, symSize: 0x50 }
  - { offset: 0x25D9DB, size: 0x8, addend: 0x0, symName: _ggml_backend_graph_compute_async, symObjAddr: 0x1B70, symBinAddr: 0x70BD0, symSize: 0x30 }
  - { offset: 0x25DA13, size: 0x8, addend: 0x0, symName: _ggml_backend_supports_op, symObjAddr: 0x1BA0, symBinAddr: 0x70C00, symSize: 0x60 }
  - { offset: 0x25DA4E, size: 0x8, addend: 0x0, symName: _ggml_backend_supports_op, symObjAddr: 0x1BA0, symBinAddr: 0x70C00, symSize: 0x60 }
  - { offset: 0x25DAD4, size: 0x8, addend: 0x0, symName: _ggml_backend_dev_supports_op, symObjAddr: 0x1C00, symBinAddr: 0x70C60, symSize: 0x30 }
  - { offset: 0x25DB0C, size: 0x8, addend: 0x0, symName: _ggml_backend_supports_buft, symObjAddr: 0x1C30, symBinAddr: 0x70C90, symSize: 0x60 }
  - { offset: 0x25DB47, size: 0x8, addend: 0x0, symName: _ggml_backend_supports_buft, symObjAddr: 0x1C30, symBinAddr: 0x70C90, symSize: 0x60 }
  - { offset: 0x25DBCD, size: 0x8, addend: 0x0, symName: _ggml_backend_dev_supports_buft, symObjAddr: 0x1C90, symBinAddr: 0x70CF0, symSize: 0x30 }
  - { offset: 0x25DC05, size: 0x8, addend: 0x0, symName: _ggml_backend_offload_op, symObjAddr: 0x1CC0, symBinAddr: 0x70D20, symSize: 0x70 }
  - { offset: 0x25DC40, size: 0x8, addend: 0x0, symName: _ggml_backend_offload_op, symObjAddr: 0x1CC0, symBinAddr: 0x70D20, symSize: 0x70 }
  - { offset: 0x25DCC6, size: 0x8, addend: 0x0, symName: _ggml_backend_dev_offload_op, symObjAddr: 0x1D30, symBinAddr: 0x70D90, symSize: 0x40 }
  - { offset: 0x25DD12, size: 0x8, addend: 0x0, symName: _ggml_backend_get_device, symObjAddr: 0x1D70, symBinAddr: 0x70DD0, symSize: 0x40 }
  - { offset: 0x25DDC8, size: 0x8, addend: 0x0, symName: _ggml_backend_tensor_copy, symObjAddr: 0x1DB0, symBinAddr: 0x70E10, symSize: 0x210 }
  - { offset: 0x25E111, size: 0x8, addend: 0x0, symName: _ggml_backend_tensor_copy_async, symObjAddr: 0x1FC0, symBinAddr: 0x71020, symSize: 0x150 }
  - { offset: 0x25E282, size: 0x8, addend: 0x0, symName: _ggml_backend_event_new, symObjAddr: 0x2110, symBinAddr: 0x71170, symSize: 0x20 }
  - { offset: 0x25E2AB, size: 0x8, addend: 0x0, symName: _ggml_backend_event_free, symObjAddr: 0x2130, symBinAddr: 0x71190, symSize: 0x20 }
  - { offset: 0x25E2D6, size: 0x8, addend: 0x0, symName: _ggml_backend_event_record, symObjAddr: 0x2150, symBinAddr: 0x711B0, symSize: 0x60 }
  - { offset: 0x25E325, size: 0x8, addend: 0x0, symName: _ggml_backend_event_synchronize, symObjAddr: 0x21B0, symBinAddr: 0x71210, symSize: 0x60 }
  - { offset: 0x25E339, size: 0x8, addend: 0x0, symName: _ggml_backend_event_synchronize, symObjAddr: 0x21B0, symBinAddr: 0x71210, symSize: 0x60 }
  - { offset: 0x25E392, size: 0x8, addend: 0x0, symName: _ggml_backend_event_wait, symObjAddr: 0x2210, symBinAddr: 0x71270, symSize: 0x60 }
  - { offset: 0x25E3F5, size: 0x8, addend: 0x0, symName: _ggml_backend_dev_name, symObjAddr: 0x2270, symBinAddr: 0x712D0, symSize: 0x30 }
  - { offset: 0x25E445, size: 0x8, addend: 0x0, symName: _ggml_backend_dev_description, symObjAddr: 0x22A0, symBinAddr: 0x71300, symSize: 0x30 }
  - { offset: 0x25E495, size: 0x8, addend: 0x0, symName: _ggml_backend_dev_memory, symObjAddr: 0x22D0, symBinAddr: 0x71330, symSize: 0x30 }
  - { offset: 0x25E4EF, size: 0x8, addend: 0x0, symName: _ggml_backend_dev_type, symObjAddr: 0x2300, symBinAddr: 0x71360, symSize: 0x30 }
  - { offset: 0x25E503, size: 0x8, addend: 0x0, symName: _ggml_backend_dev_type, symObjAddr: 0x2300, symBinAddr: 0x71360, symSize: 0x30 }
  - { offset: 0x25E545, size: 0x8, addend: 0x0, symName: _ggml_backend_dev_get_props, symObjAddr: 0x2330, symBinAddr: 0x71390, symSize: 0x50 }
  - { offset: 0x25E5A2, size: 0x8, addend: 0x0, symName: _ggml_backend_dev_backend_reg, symObjAddr: 0x2380, symBinAddr: 0x713E0, symSize: 0x30 }
  - { offset: 0x25E5E6, size: 0x8, addend: 0x0, symName: _ggml_backend_dev_init, symObjAddr: 0x23B0, symBinAddr: 0x71410, symSize: 0x30 }
  - { offset: 0x25E633, size: 0x8, addend: 0x0, symName: _ggml_backend_dev_host_buffer_type, symObjAddr: 0x23E0, symBinAddr: 0x71440, symSize: 0x40 }
  - { offset: 0x25E647, size: 0x8, addend: 0x0, symName: _ggml_backend_dev_host_buffer_type, symObjAddr: 0x23E0, symBinAddr: 0x71440, symSize: 0x40 }
  - { offset: 0x25E697, size: 0x8, addend: 0x0, symName: _ggml_backend_dev_buffer_from_host_ptr, symObjAddr: 0x2420, symBinAddr: 0x71480, symSize: 0x30 }
  - { offset: 0x25E706, size: 0x8, addend: 0x0, symName: _ggml_backend_reg_name, symObjAddr: 0x2450, symBinAddr: 0x714B0, symSize: 0x30 }
  - { offset: 0x25E71A, size: 0x8, addend: 0x0, symName: _ggml_backend_reg_name, symObjAddr: 0x2450, symBinAddr: 0x714B0, symSize: 0x30 }
  - { offset: 0x25E76A, size: 0x8, addend: 0x0, symName: _ggml_backend_reg_dev_count, symObjAddr: 0x2480, symBinAddr: 0x714E0, symSize: 0x30 }
  - { offset: 0x25E7BA, size: 0x8, addend: 0x0, symName: _ggml_backend_reg_dev_get, symObjAddr: 0x24B0, symBinAddr: 0x71510, symSize: 0x30 }
  - { offset: 0x25E807, size: 0x8, addend: 0x0, symName: _ggml_backend_reg_get_proc_address, symObjAddr: 0x24E0, symBinAddr: 0x71540, symSize: 0x40 }
  - { offset: 0x25E81B, size: 0x8, addend: 0x0, symName: _ggml_backend_reg_get_proc_address, symObjAddr: 0x24E0, symBinAddr: 0x71540, symSize: 0x40 }
  - { offset: 0x25E895, size: 0x8, addend: 0x0, symName: _ggml_backend_multi_buffer_alloc_buffer, symObjAddr: 0x2520, symBinAddr: 0x71580, symSize: 0x120 }
  - { offset: 0x25E9CE, size: 0x8, addend: 0x0, symName: __ZL37ggml_backend_multi_buffer_free_bufferP19ggml_backend_buffer, symObjAddr: 0x2640, symBinAddr: 0x716A0, symSize: 0xA0 }
  - { offset: 0x25EE89, size: 0x8, addend: 0x0, symName: _ggml_backend_sched_split_graph, symObjAddr: 0x26E0, symBinAddr: 0x71740, symSize: 0x2DA0 }
  - { offset: 0x261C85, size: 0x8, addend: 0x0, symName: __ZL38ggml_backend_sched_backend_id_from_curP18ggml_backend_schedP11ggml_tensor, symObjAddr: 0x5480, symBinAddr: 0x744E0, symSize: 0x3F0 }
  - { offset: 0x261F8B, size: 0x8, addend: 0x0, symName: __ZL35ggml_backend_sched_buffer_supportedP18ggml_backend_schedP11ggml_tensori, symObjAddr: 0x5870, symBinAddr: 0x748D0, symSize: 0x210 }
  - { offset: 0x2622E8, size: 0x8, addend: 0x0, symName: __ZL38ggml_backend_sched_backend_from_bufferP18ggml_backend_schedPK11ggml_tensorS3_, symObjAddr: 0x9000, symBinAddr: 0x78060, symSize: 0x130 }
  - { offset: 0x2624E7, size: 0x8, addend: 0x0, symName: _ggml_backend_sched_new, symObjAddr: 0x5A80, symBinAddr: 0x74AE0, symSize: 0x500 }
  - { offset: 0x262A1C, size: 0x8, addend: 0x0, symName: _ggml_backend_sched_reset, symObjAddr: 0x5F80, symBinAddr: 0x74FE0, symSize: 0xA0 }
  - { offset: 0x262A80, size: 0x8, addend: 0x0, symName: _ggml_backend_sched_free, symObjAddr: 0x6020, symBinAddr: 0x75080, symSize: 0x130 }
  - { offset: 0x262C1C, size: 0x8, addend: 0x0, symName: _ggml_backend_sched_reserve_size, symObjAddr: 0x6150, symBinAddr: 0x751B0, symSize: 0x1B0 }
  - { offset: 0x262D91, size: 0x8, addend: 0x0, symName: _ggml_backend_sched_synchronize, symObjAddr: 0x6300, symBinAddr: 0x75360, symSize: 0xA0 }
  - { offset: 0x262E18, size: 0x8, addend: 0x0, symName: _ggml_backend_sched_reserve, symObjAddr: 0x63A0, symBinAddr: 0x75400, symSize: 0x180 }
  - { offset: 0x262FDD, size: 0x8, addend: 0x0, symName: _ggml_backend_sched_alloc_graph, symObjAddr: 0x6520, symBinAddr: 0x75580, symSize: 0x2C0 }
  - { offset: 0x2631A9, size: 0x8, addend: 0x0, symName: _ggml_backend_sched_graph_compute, symObjAddr: 0x67E0, symBinAddr: 0x75840, symSize: 0xC0 }
  - { offset: 0x263298, size: 0x8, addend: 0x0, symName: _ggml_backend_sched_graph_compute_async, symObjAddr: 0x68A0, symBinAddr: 0x75900, symSize: 0xFD0 }
  - { offset: 0x2653DC, size: 0x8, addend: 0x0, symName: _ggml_backend_sched_set_eval_callback, symObjAddr: 0x7870, symBinAddr: 0x768D0, symSize: 0x40 }
  - { offset: 0x26543E, size: 0x8, addend: 0x0, symName: _ggml_backend_sched_get_n_splits, symObjAddr: 0x78B0, symBinAddr: 0x76910, symSize: 0x40 }
  - { offset: 0x265482, size: 0x8, addend: 0x0, symName: _ggml_backend_sched_get_n_copies, symObjAddr: 0x78F0, symBinAddr: 0x76950, symSize: 0x40 }
  - { offset: 0x2654C6, size: 0x8, addend: 0x0, symName: _ggml_backend_sched_get_n_backends, symObjAddr: 0x7930, symBinAddr: 0x76990, symSize: 0x30 }
  - { offset: 0x26550A, size: 0x8, addend: 0x0, symName: _ggml_backend_sched_get_backend, symObjAddr: 0x7960, symBinAddr: 0x769C0, symSize: 0x60 }
  - { offset: 0x2655B1, size: 0x8, addend: 0x0, symName: _ggml_backend_sched_get_buffer_type, symObjAddr: 0x79C0, symBinAddr: 0x76A20, symSize: 0x80 }
  - { offset: 0x265672, size: 0x8, addend: 0x0, symName: _ggml_backend_sched_get_buffer_size, symObjAddr: 0x7A40, symBinAddr: 0x76AA0, symSize: 0x90 }
  - { offset: 0x265758, size: 0x8, addend: 0x0, symName: _ggml_backend_sched_set_tensor_backend, symObjAddr: 0x7AD0, symBinAddr: 0x76B30, symSize: 0x130 }
  - { offset: 0x2658E1, size: 0x8, addend: 0x0, symName: _ggml_backend_sched_get_tensor_backend, symObjAddr: 0x7C00, symBinAddr: 0x76C60, symSize: 0xF0 }
  - { offset: 0x265A06, size: 0x8, addend: 0x0, symName: _ggml_backend_view_init, symObjAddr: 0x7CF0, symBinAddr: 0x76D50, symSize: 0x110 }
  - { offset: 0x265B22, size: 0x8, addend: 0x0, symName: _ggml_backend_tensor_alloc, symObjAddr: 0x7E00, symBinAddr: 0x76E60, symSize: 0x250 }
  - { offset: 0x265DCC, size: 0x8, addend: 0x0, symName: _ggml_backend_graph_copy, symObjAddr: 0x8050, symBinAddr: 0x770B0, symSize: 0x340 }
  - { offset: 0x266226, size: 0x8, addend: 0x0, symName: __ZL21graph_copy_dup_tensor13ggml_hash_setPP11ggml_tensorP12ggml_contextS4_S1_, symObjAddr: 0x8390, symBinAddr: 0x773F0, symSize: 0x480 }
  - { offset: 0x266247, size: 0x8, addend: 0x0, symName: __ZL21graph_copy_dup_tensor13ggml_hash_setPP11ggml_tensorP12ggml_contextS4_S1_, symObjAddr: 0x8390, symBinAddr: 0x773F0, symSize: 0x480 }
  - { offset: 0x2666B0, size: 0x8, addend: 0x0, symName: __ZL22graph_copy_init_tensorP13ggml_hash_setPP11ggml_tensorPbS2_, symObjAddr: 0x8810, symBinAddr: 0x77870, symSize: 0x220 }
  - { offset: 0x26698F, size: 0x8, addend: 0x0, symName: _ggml_backend_graph_copy_free, symObjAddr: 0x8A30, symBinAddr: 0x77A90, symSize: 0x40 }
  - { offset: 0x266A1D, size: 0x8, addend: 0x0, symName: _ggml_backend_graph_copy_free, symObjAddr: 0x8A30, symBinAddr: 0x77A90, symSize: 0x40 }
  - { offset: 0x266B14, size: 0x8, addend: 0x0, symName: _ggml_backend_compare_graph_backend, symObjAddr: 0x8A70, symBinAddr: 0x77AD0, symSize: 0x350 }
  - { offset: 0x2671AC, size: 0x8, addend: 0x0, symName: __ZL37ggml_backend_cpu_buffer_type_get_nameP24ggml_backend_buffer_type, symObjAddr: 0x8DD0, symBinAddr: 0x77E30, symSize: 0x10 }
  - { offset: 0x2671D8, size: 0x8, addend: 0x0, symName: __ZL41ggml_backend_cpu_buffer_type_alloc_bufferP24ggml_backend_buffer_typem, symObjAddr: 0x8DE0, symBinAddr: 0x77E40, symSize: 0xB0 }
  - { offset: 0x2672AA, size: 0x8, addend: 0x0, symName: __ZL42ggml_backend_cpu_buffer_type_get_alignmentP24ggml_backend_buffer_type, symObjAddr: 0x8E90, symBinAddr: 0x77EF0, symSize: 0x10 }
  - { offset: 0x2672D6, size: 0x8, addend: 0x0, symName: __ZL36ggml_backend_cpu_buffer_type_is_hostP24ggml_backend_buffer_type, symObjAddr: 0x8EA0, symBinAddr: 0x77F00, symSize: 0x10 }
  - { offset: 0x267302, size: 0x8, addend: 0x0, symName: _ggml_backend_cpu_buffer_from_ptr, symObjAddr: 0x8EB0, symBinAddr: 0x77F10, symSize: 0xA0 }
  - { offset: 0x2673B2, size: 0x8, addend: 0x0, symName: __ZL31ggml_backend_multi_buffer_clearP19ggml_backend_bufferh, symObjAddr: 0x8F50, symBinAddr: 0x77FB0, symSize: 0xB0 }
  - { offset: 0x267474, size: 0x8, addend: 0x0, symName: __ZL35ggml_backend_cpu_buffer_free_bufferP19ggml_backend_buffer, symObjAddr: 0x9170, symBinAddr: 0x78190, symSize: 0x40 }
  - { offset: 0x2674DA, size: 0x8, addend: 0x0, symName: __ZL32ggml_backend_cpu_buffer_get_baseP19ggml_backend_buffer, symObjAddr: 0x91B0, symBinAddr: 0x781D0, symSize: 0x40 }
  - { offset: 0x267533, size: 0x8, addend: 0x0, symName: __ZL37ggml_backend_cpu_buffer_memset_tensorP19ggml_backend_bufferP11ggml_tensorhmm, symObjAddr: 0x91F0, symBinAddr: 0x78210, symSize: 0x40 }
  - { offset: 0x2675B6, size: 0x8, addend: 0x0, symName: __ZL34ggml_backend_cpu_buffer_set_tensorP19ggml_backend_bufferP11ggml_tensorPKvmm, symObjAddr: 0x9230, symBinAddr: 0x78250, symSize: 0x40 }
  - { offset: 0x267639, size: 0x8, addend: 0x0, symName: __ZL34ggml_backend_cpu_buffer_get_tensorP19ggml_backend_bufferPK11ggml_tensorPvmm, symObjAddr: 0x9270, symBinAddr: 0x78290, symSize: 0x40 }
  - { offset: 0x2676BC, size: 0x8, addend: 0x0, symName: __ZL34ggml_backend_cpu_buffer_cpy_tensorP19ggml_backend_bufferPK11ggml_tensorPS1_, symObjAddr: 0x92B0, symBinAddr: 0x782D0, symSize: 0xE0 }
  - { offset: 0x2677B9, size: 0x8, addend: 0x0, symName: __ZL29ggml_backend_cpu_buffer_clearP19ggml_backend_bufferh, symObjAddr: 0x9390, symBinAddr: 0x783B0, symSize: 0x40 }
  - { offset: 0x26780E, size: 0x8, addend: 0x0, symName: __ZL46ggml_backend_cpu_buffer_from_ptr_type_get_nameP24ggml_backend_buffer_type, symObjAddr: 0x93D0, symBinAddr: 0x783F0, symSize: 0xD }
  - { offset: 0x27195F, size: 0x8, addend: 0x0, symName: __ZNSt3__124uniform_int_distributionIlEclINS_23mersenne_twister_engineIjLm32ELm624ELm397ELm31ELj2567483615ELm11ELj4294967295ELm7ELj2636928640ELm15ELj4022730752ELm18ELj1812433253EEEEElRT_RKNS1_10param_typeE, symObjAddr: 0x41B0, symBinAddr: 0x7C1F0, symSize: 0x1E0 }
  - { offset: 0x271A04, size: 0x8, addend: 0x0, symName: __ZNSt3__124uniform_int_distributionIlEclINS_23mersenne_twister_engineIjLm32ELm624ELm397ELm31ELj2567483615ELm11ELj4294967295ELm7ELj2636928640ELm15ELj4022730752ELm18ELj1812433253EEEEElRT_RKNS1_10param_typeE, symObjAddr: 0x41B0, symBinAddr: 0x7C1F0, symSize: 0x1E0 }
  - { offset: 0x271D30, size: 0x8, addend: 0x0, symName: _ggml_opt_dataset_init, symObjAddr: 0x0, symBinAddr: 0x78400, symSize: 0x2C0 }
  - { offset: 0x272011, size: 0x8, addend: 0x0, symName: __ZNSt3__16vectorIxNS_9allocatorIxEEE6resizeEm, symObjAddr: 0x2C0, symBinAddr: 0x786C0, symSize: 0x150 }
  - { offset: 0x2729AF, size: 0x8, addend: 0x0, symName: __ZNSt3__16vectorIxNS_9allocatorIxEEE20__throw_length_errorB9nqe220106Ev, symObjAddr: 0x41A0, symBinAddr: 0x7C1E0, symSize: 0x10 }
  - { offset: 0x2729C7, size: 0x8, addend: 0x0, symName: __ZNSt3__124uniform_int_distributionIlEclINS_23mersenne_twister_engineIjLm32ELm624ELm397ELm31ELj2567483615ELm11ELj4294967295ELm7ELj2636928640ELm15ELj4022730752ELm18ELj1812433253EEEEElRT_RKNS1_10param_typeE, symObjAddr: 0x41B0, symBinAddr: 0x7C1F0, symSize: 0x1E0 }
  - { offset: 0x272A7D, size: 0x8, addend: 0x0, symName: _ggml_opt_dataset_free, symObjAddr: 0x410, symBinAddr: 0x78810, symSize: 0x40 }
  - { offset: 0x272C3A, size: 0x8, addend: 0x0, symName: _ggml_opt_dataset_ndata, symObjAddr: 0x450, symBinAddr: 0x78850, symSize: 0x10 }
  - { offset: 0x272C63, size: 0x8, addend: 0x0, symName: _ggml_opt_dataset_data, symObjAddr: 0x460, symBinAddr: 0x78860, symSize: 0x10 }
  - { offset: 0x272C80, size: 0x8, addend: 0x0, symName: _ggml_opt_dataset_labels, symObjAddr: 0x470, symBinAddr: 0x78870, symSize: 0x10 }
  - { offset: 0x272E34, size: 0x8, addend: 0x0, symName: _ggml_opt_dataset_shuffle, symObjAddr: 0x480, symBinAddr: 0x78880, symSize: 0x1E0 }
  - { offset: 0x2734C2, size: 0x8, addend: 0x0, symName: _ggml_opt_dataset_get_batch, symObjAddr: 0x660, symBinAddr: 0x78A60, symSize: 0x2F0 }
  - { offset: 0x27375D, size: 0x8, addend: 0x0, symName: _ggml_opt_dataset_get_batch_host, symObjAddr: 0x950, symBinAddr: 0x78D50, symSize: 0x270 }
  - { offset: 0x2738CA, size: 0x8, addend: 0x0, symName: _ggml_opt_get_default_optimizer_params, symObjAddr: 0xBC0, symBinAddr: 0x78FC0, symSize: 0x30 }
  - { offset: 0x273900, size: 0x8, addend: 0x0, symName: _ggml_opt_get_constant_optimizer_params, symObjAddr: 0xBF0, symBinAddr: 0x78FF0, symSize: 0x20 }
  - { offset: 0x273929, size: 0x8, addend: 0x0, symName: _ggml_opt_default_params, symObjAddr: 0xC10, symBinAddr: 0x79010, symSize: 0x50 }
  - { offset: 0x273CC3, size: 0x8, addend: 0x0, symName: _ggml_opt_init, symObjAddr: 0xC60, symBinAddr: 0x79060, symSize: 0x280 }
  - { offset: 0x273F3D, size: 0x8, addend: 0x0, symName: __ZL14ggml_opt_buildP16ggml_opt_context, symObjAddr: 0xEE0, symBinAddr: 0x792E0, symSize: 0xA20 }
  - { offset: 0x275044, size: 0x8, addend: 0x0, symName: _ggml_opt_free, symObjAddr: 0x1900, symBinAddr: 0x79D00, symSize: 0xA0 }
  - { offset: 0x275453, size: 0x8, addend: 0x0, symName: _ggml_opt_reset, symObjAddr: 0x19A0, symBinAddr: 0x79DA0, symSize: 0x40 }
  - { offset: 0x2754A9, size: 0x8, addend: 0x0, symName: _ggml_opt_static_graphs, symObjAddr: 0x19E0, symBinAddr: 0x79DE0, symSize: 0x10 }
  - { offset: 0x2754D4, size: 0x8, addend: 0x0, symName: _ggml_opt_inputs, symObjAddr: 0x19F0, symBinAddr: 0x79DF0, symSize: 0x10 }
  - { offset: 0x2754F1, size: 0x8, addend: 0x0, symName: _ggml_opt_outputs, symObjAddr: 0x1A00, symBinAddr: 0x79E00, symSize: 0x10 }
  - { offset: 0x27551C, size: 0x8, addend: 0x0, symName: _ggml_opt_labels, symObjAddr: 0x1A10, symBinAddr: 0x79E10, symSize: 0x10 }
  - { offset: 0x275547, size: 0x8, addend: 0x0, symName: _ggml_opt_loss, symObjAddr: 0x1A20, symBinAddr: 0x79E20, symSize: 0x10 }
  - { offset: 0x275572, size: 0x8, addend: 0x0, symName: _ggml_opt_pred, symObjAddr: 0x1A30, symBinAddr: 0x79E30, symSize: 0x10 }
  - { offset: 0x27559D, size: 0x8, addend: 0x0, symName: _ggml_opt_ncorrect, symObjAddr: 0x1A40, symBinAddr: 0x79E40, symSize: 0x10 }
  - { offset: 0x2755C8, size: 0x8, addend: 0x0, symName: _ggml_opt_grad_acc, symObjAddr: 0x1A50, symBinAddr: 0x79E50, symSize: 0x20 }
  - { offset: 0x275721, size: 0x8, addend: 0x0, symName: _ggml_opt_result_init, symObjAddr: 0x1A70, symBinAddr: 0x79E70, symSize: 0x30 }
  - { offset: 0x2759FD, size: 0x8, addend: 0x0, symName: _ggml_opt_result_free, symObjAddr: 0x1AA0, symBinAddr: 0x79EA0, symSize: 0x50 }
  - { offset: 0x275CC7, size: 0x8, addend: 0x0, symName: _ggml_opt_result_reset, symObjAddr: 0x1AF0, symBinAddr: 0x79EF0, symSize: 0x30 }
  - { offset: 0x275DAA, size: 0x8, addend: 0x0, symName: _ggml_opt_result_ndata, symObjAddr: 0x1B20, symBinAddr: 0x79F20, symSize: 0x10 }
  - { offset: 0x275E02, size: 0x8, addend: 0x0, symName: _ggml_opt_result_loss, symObjAddr: 0x1B30, symBinAddr: 0x79F30, symSize: 0x100 }
  - { offset: 0x275EFF, size: 0x8, addend: 0x0, symName: _ggml_opt_result_pred, symObjAddr: 0x1C30, symBinAddr: 0x7A030, symSize: 0xC0 }
  - { offset: 0x275F57, size: 0x8, addend: 0x0, symName: _ggml_opt_result_accuracy, symObjAddr: 0x1CF0, symBinAddr: 0x7A0F0, symSize: 0x80 }
  - { offset: 0x275F84, size: 0x8, addend: 0x0, symName: _ggml_opt_prepare_alloc, symObjAddr: 0x1D70, symBinAddr: 0x7A170, symSize: 0x50 }
  - { offset: 0x2762C3, size: 0x8, addend: 0x0, symName: _ggml_opt_alloc, symObjAddr: 0x1DC0, symBinAddr: 0x7A1C0, symSize: 0x4F0 }
  - { offset: 0x276867, size: 0x8, addend: 0x0, symName: __ZL10map_tensorRNSt3__13mapIP11ggml_tensorS2_NS_4lessIS2_EENS_9allocatorINS_4pairIKS2_S2_EEEEEEP12ggml_contextS2_, symObjAddr: 0x3C30, symBinAddr: 0x7BE00, symSize: 0x360 }
  - { offset: 0x27727B, size: 0x8, addend: 0x0, symName: __ZNSt3__16__treeINS_12__value_typeIP11ggml_tensorS3_EENS_19__map_value_compareIS3_NS_4pairIKS3_S3_EENS_4lessIS3_EEEENS_9allocatorIS8_EEE14__tree_deleterclB9nqe220106EPNS_11__tree_nodeIS4_PvEE, symObjAddr: 0x4150, symBinAddr: 0x7C190, symSize: 0x50 }
  - { offset: 0x277376, size: 0x8, addend: 0x0, symName: __ZNSt3__13mapIP11ggml_tensorS2_NS_4lessIS2_EENS_9allocatorINS_4pairIKS2_S2_EEEEED1B9nqe220106Ev, symObjAddr: 0x3F90, symBinAddr: 0x7C160, symSize: 0x30 }
  - { offset: 0x2778D1, size: 0x8, addend: 0x0, symName: _ggml_opt_eval, symObjAddr: 0x22B0, symBinAddr: 0x7A6B0, symSize: 0x6F0 }
  - { offset: 0x278A66, size: 0x8, addend: 0x0, symName: __ZZNSt3__16vectorIfNS_9allocatorIfEEE12emplace_backIJRKfEEERfDpOT_ENKUlvE0_clEv, symObjAddr: 0x47E0, symBinAddr: 0x7C820, symSize: 0x110 }
  - { offset: 0x278E3E, size: 0x8, addend: 0x0, symName: _ggml_opt_epoch, symObjAddr: 0x29A0, symBinAddr: 0x7ADA0, symSize: 0x340 }
  - { offset: 0x27933E, size: 0x8, addend: 0x0, symName: _ggml_opt_epoch_callback_progress_bar, symObjAddr: 0x2CE0, symBinAddr: 0x7B0E0, symSize: 0x620 }
  - { offset: 0x2798D7, size: 0x8, addend: 0x0, symName: _ggml_opt_fit, symObjAddr: 0x3300, symBinAddr: 0x7B700, symSize: 0x6C0 }
  - { offset: 0x27A7B5, size: 0x8, addend: 0x0, symName: _ggml_opt_context_optimizer_type, symObjAddr: 0x39C0, symBinAddr: 0x7BDC0, symSize: 0x10 }
  - { offset: 0x27A7D2, size: 0x8, addend: 0x0, symName: _ggml_opt_context_optimizer_type, symObjAddr: 0x39C0, symBinAddr: 0x7BDC0, symSize: 0x10 }
  - { offset: 0x27A7FD, size: 0x8, addend: 0x0, symName: _ggml_opt_optimizer_name, symObjAddr: 0x39D0, symBinAddr: 0x7BDD0, symSize: 0x30 }
  - { offset: 0x27B47D, size: 0x8, addend: 0x0, symName: __ZNSt3__125__independent_bits_engineINS_23mersenne_twister_engineIjLm32ELm624ELm397ELm31ELj2567483615ELm11ELj4294967295ELm7ELj2636928640ELm15ELj4022730752ELm18ELj1812433253EEEmE6__evalENS_17integral_constantIbLb1EEE, symObjAddr: 0x4390, symBinAddr: 0x7C3D0, symSize: 0x450 }
  - { offset: 0x27DD2A, size: 0x8, addend: 0x0, symName: _quantize_row_q1_0_ref, symObjAddr: 0x0, symBinAddr: 0x7C930, symSize: 0x1F0 }
  - { offset: 0x27DD38, size: 0x8, addend: 0x0, symName: _quantize_row_q1_0_ref, symObjAddr: 0x0, symBinAddr: 0x7C930, symSize: 0x1F0 }
  - { offset: 0x27DF5B, size: 0x8, addend: 0x0, symName: _quantize_row_q4_0_ref, symObjAddr: 0x1F0, symBinAddr: 0x7CB20, symSize: 0x2B0 }
  - { offset: 0x27E1BB, size: 0x8, addend: 0x0, symName: _quantize_row_q5_0_ref, symObjAddr: 0x830, symBinAddr: 0x7D160, symSize: 0x5E0 }
  - { offset: 0x27E426, size: 0x8, addend: 0x0, symName: _quantize_row_mxfp4_ref, symObjAddr: 0x2210, symBinAddr: 0x7EB40, symSize: 0xA90 }
  - { offset: 0x27E5B0, size: 0x8, addend: 0x0, symName: _quantize_row_nvfp4_ref, symObjAddr: 0x2CA0, symBinAddr: 0x7F5D0, symSize: 0xAB0 }
  - { offset: 0x27E7C0, size: 0x8, addend: 0x0, symName: _dequantize_row_q1_0, symObjAddr: 0x3750, symBinAddr: 0x80080, symSize: 0x170 }
  - { offset: 0x27E96B, size: 0x8, addend: 0x0, symName: _dequantize_row_q4_0, symObjAddr: 0x38C0, symBinAddr: 0x801F0, symSize: 0xD10 }
  - { offset: 0x27EAF4, size: 0x8, addend: 0x0, symName: _dequantize_row_q4_1, symObjAddr: 0x45D0, symBinAddr: 0x80F00, symSize: 0x350 }
  - { offset: 0x27ECED, size: 0x8, addend: 0x0, symName: _dequantize_row_q5_0, symObjAddr: 0x4920, symBinAddr: 0x81250, symSize: 0x3D0 }
  - { offset: 0x27EEB0, size: 0x8, addend: 0x0, symName: _dequantize_row_q5_1, symObjAddr: 0x4CF0, symBinAddr: 0x81620, symSize: 0x430 }
  - { offset: 0x27F089, size: 0x8, addend: 0x0, symName: _dequantize_row_q8_0, symObjAddr: 0x5120, symBinAddr: 0x81A50, symSize: 0x1A0 }
  - { offset: 0x27F1FF, size: 0x8, addend: 0x0, symName: _dequantize_row_mxfp4, symObjAddr: 0x52C0, symBinAddr: 0x81BF0, symSize: 0x3D0 }
  - { offset: 0x27F306, size: 0x8, addend: 0x0, symName: _dequantize_row_nvfp4, symObjAddr: 0x5690, symBinAddr: 0x81FC0, symSize: 0x290 }
  - { offset: 0x27F466, size: 0x8, addend: 0x0, symName: _iq2xs_init_impl, symObjAddr: 0x1AE10, symBinAddr: 0x97740, symSize: 0x860 }
  - { offset: 0x27F48A, size: 0x8, addend: 0x0, symName: _iq2xs_init_impl.kgrid_2bit_256, symObjAddr: 0x37250, symBinAddr: 0x1D5300, symSize: 0x0 }
  - { offset: 0x27F4A1, size: 0x8, addend: 0x0, symName: _iq2xs_init_impl.kgrid_2bit_512, symObjAddr: 0x37450, symBinAddr: 0x1D5500, symSize: 0x0 }
  - { offset: 0x27F4B8, size: 0x8, addend: 0x0, symName: _iq2xs_init_impl.kgrid_1bit_2048, symObjAddr: 0x37850, symBinAddr: 0x1D5900, symSize: 0x0 }
  - { offset: 0x27F4CF, size: 0x8, addend: 0x0, symName: _iq2xs_init_impl.kgrid_2bit_1024, symObjAddr: 0x38850, symBinAddr: 0x1D6900, symSize: 0x0 }
  - { offset: 0x27FC10, size: 0x8, addend: 0x0, symName: _iq3xs_init_impl, symObjAddr: 0x1F240, symBinAddr: 0x9BB70, symSize: 0x6F0 }
  - { offset: 0x27FC34, size: 0x8, addend: 0x0, symName: _iq3xs_init_impl.kgrid_256, symObjAddr: 0x39050, symBinAddr: 0x1D7100, symSize: 0x0 }
  - { offset: 0x27FC4B, size: 0x8, addend: 0x0, symName: _iq3xs_init_impl.kgrid_512, symObjAddr: 0x39250, symBinAddr: 0x1D7300, symSize: 0x0 }
  - { offset: 0x2802E9, size: 0x8, addend: 0x0, symName: _kvalues_mxfp4, symObjAddr: 0x2EDB0, symBinAddr: 0x1CCE60, symSize: 0x0 }
  - { offset: 0x280327, size: 0x8, addend: 0x0, symName: _iq2xxs_grid, symObjAddr: 0x2EDC0, symBinAddr: 0x1CCE70, symSize: 0x0 }
  - { offset: 0x280366, size: 0x8, addend: 0x0, symName: _ksigns_iq2xs, symObjAddr: 0x2F5C0, symBinAddr: 0x1CD670, symSize: 0x0 }
  - { offset: 0x2803A4, size: 0x8, addend: 0x0, symName: _iq2xs_grid, symObjAddr: 0x2F640, symBinAddr: 0x1CD6F0, symSize: 0x0 }
  - { offset: 0x2803CA, size: 0x8, addend: 0x0, symName: _iq2s_grid, symObjAddr: 0x30640, symBinAddr: 0x1CE6F0, symSize: 0x0 }
  - { offset: 0x2803F0, size: 0x8, addend: 0x0, symName: _iq3xxs_grid, symObjAddr: 0x32640, symBinAddr: 0x1D06F0, symSize: 0x0 }
  - { offset: 0x28042F, size: 0x8, addend: 0x0, symName: _iq3s_grid, symObjAddr: 0x32A40, symBinAddr: 0x1D0AF0, symSize: 0x0 }
  - { offset: 0x280455, size: 0x8, addend: 0x0, symName: _iq1s_grid, symObjAddr: 0x33240, symBinAddr: 0x1D12F0, symSize: 0x0 }
  - { offset: 0x28047B, size: 0x8, addend: 0x0, symName: _kvalues_iq4nl, symObjAddr: 0x37240, symBinAddr: 0x1D52F0, symSize: 0x0 }
  - { offset: 0x280492, size: 0x8, addend: 0x0, symName: _iq2_data, symObjAddr: 0xA6B20, symBinAddr: 0x292300, symSize: 0x0 }
  - { offset: 0x280507, size: 0x8, addend: 0x0, symName: _iq3_data, symObjAddr: 0xA6B80, symBinAddr: 0x292360, symSize: 0x0 }
  - { offset: 0x281140, size: 0x8, addend: 0x0, symName: _quantize_row_q4_1_ref, symObjAddr: 0x4A0, symBinAddr: 0x7CDD0, symSize: 0x390 }
  - { offset: 0x28131A, size: 0x8, addend: 0x0, symName: _quantize_row_q5_1_ref, symObjAddr: 0xE10, symBinAddr: 0x7D740, symSize: 0x570 }
  - { offset: 0x281504, size: 0x8, addend: 0x0, symName: _quantize_row_q8_0_ref, symObjAddr: 0x1380, symBinAddr: 0x7DCB0, symSize: 0x6F0 }
  - { offset: 0x28172D, size: 0x8, addend: 0x0, symName: _quantize_row_q8_1_ref, symObjAddr: 0x1A70, symBinAddr: 0x7E3A0, symSize: 0x7A0 }
  - { offset: 0x281F0C, size: 0x8, addend: 0x0, symName: _quantize_row_q2_K_ref, symObjAddr: 0x5920, symBinAddr: 0x82250, symSize: 0x1010 }
  - { offset: 0x28276C, size: 0x8, addend: 0x0, symName: _dequantize_row_q2_K, symObjAddr: 0x6930, symBinAddr: 0x83260, symSize: 0x350 }
  - { offset: 0x282E3D, size: 0x8, addend: 0x0, symName: _quantize_q2_K, symObjAddr: 0x6C80, symBinAddr: 0x835B0, symSize: 0x11E0 }
  - { offset: 0x283556, size: 0x8, addend: 0x0, symName: _make_qp_quants, symObjAddr: 0x2AA80, symBinAddr: 0xA73B0, symSize: 0x7E0 }
  - { offset: 0x283AA6, size: 0x8, addend: 0x0, symName: _quantize_row_q3_K_ref, symObjAddr: 0x7E60, symBinAddr: 0x84790, symSize: 0x10F0 }
  - { offset: 0x284019, size: 0x8, addend: 0x0, symName: _dequantize_row_q3_K, symObjAddr: 0x8F50, symBinAddr: 0x85880, symSize: 0x7E0 }
  - { offset: 0x284634, size: 0x8, addend: 0x0, symName: _quantize_q3_K, symObjAddr: 0x9730, symBinAddr: 0x86060, symSize: 0x16E0 }
  - { offset: 0x284E93, size: 0x8, addend: 0x0, symName: _quantize_row_q4_K_ref, symObjAddr: 0xAE10, symBinAddr: 0x87740, symSize: 0xE10 }
  - { offset: 0x285477, size: 0x8, addend: 0x0, symName: _dequantize_row_q4_K, symObjAddr: 0xBC20, symBinAddr: 0x88550, symSize: 0xB60 }
  - { offset: 0x2859A2, size: 0x8, addend: 0x0, symName: _quantize_q4_K, symObjAddr: 0xC780, symBinAddr: 0x890B0, symSize: 0xEE0 }
  - { offset: 0x286085, size: 0x8, addend: 0x0, symName: _quantize_row_q5_K_ref, symObjAddr: 0xD660, symBinAddr: 0x89F90, symSize: 0xED0 }
  - { offset: 0x2866BD, size: 0x8, addend: 0x0, symName: _dequantize_row_q5_K, symObjAddr: 0xE530, symBinAddr: 0x8AE60, symSize: 0x850 }
  - { offset: 0x286C39, size: 0x8, addend: 0x0, symName: _quantize_q5_K, symObjAddr: 0xED80, symBinAddr: 0x8B6B0, symSize: 0xF60 }
  - { offset: 0x287353, size: 0x8, addend: 0x0, symName: _quantize_row_q6_K_ref, symObjAddr: 0xFCE0, symBinAddr: 0x8C610, symSize: 0xED0 }
  - { offset: 0x2878B8, size: 0x8, addend: 0x0, symName: _dequantize_row_q6_K, symObjAddr: 0x10BB0, symBinAddr: 0x8D4E0, symSize: 0x490 }
  - { offset: 0x287C6F, size: 0x8, addend: 0x0, symName: _quantize_q6_K, symObjAddr: 0x11040, symBinAddr: 0x8D970, symSize: 0xFA0 }
  - { offset: 0x28830C, size: 0x8, addend: 0x0, symName: _quantize_q1_0, symObjAddr: 0x11FE0, symBinAddr: 0x8E910, symSize: 0x450 }
  - { offset: 0x2888E3, size: 0x8, addend: 0x0, symName: _quantize_q4_0, symObjAddr: 0x12430, symBinAddr: 0x8ED60, symSize: 0xA20 }
  - { offset: 0x288E90, size: 0x8, addend: 0x0, symName: _quantize_q4_1, symObjAddr: 0x12E50, symBinAddr: 0x8F780, symSize: 0x810 }
  - { offset: 0x289427, size: 0x8, addend: 0x0, symName: _quantize_q5_0, symObjAddr: 0x13660, symBinAddr: 0x8FF90, symSize: 0xC20 }
  - { offset: 0x289A18, size: 0x8, addend: 0x0, symName: _quantize_q5_1, symObjAddr: 0x14280, symBinAddr: 0x90BB0, symSize: 0x9F0 }
  - { offset: 0x289EA7, size: 0x8, addend: 0x0, symName: _quantize_q8_0, symObjAddr: 0x14C70, symBinAddr: 0x915A0, symSize: 0x60 }
  - { offset: 0x289F6A, size: 0x8, addend: 0x0, symName: _quantize_mxfp4, symObjAddr: 0x14CD0, symBinAddr: 0x91600, symSize: 0x30 }
  - { offset: 0x28A017, size: 0x8, addend: 0x0, symName: _quantize_nvfp4, symObjAddr: 0x14D00, symBinAddr: 0x91630, symSize: 0x30 }
  - { offset: 0x28A0C4, size: 0x8, addend: 0x0, symName: _quantize_row_tq1_0_ref, symObjAddr: 0x14D30, symBinAddr: 0x91660, symSize: 0x520 }
  - { offset: 0x28A479, size: 0x8, addend: 0x0, symName: _quantize_row_tq2_0_ref, symObjAddr: 0x15250, symBinAddr: 0x91B80, symSize: 0x290 }
  - { offset: 0x28A6FF, size: 0x8, addend: 0x0, symName: _quantize_tq1_0, symObjAddr: 0x154E0, symBinAddr: 0x91E10, symSize: 0x60 }
  - { offset: 0x28A7C3, size: 0x8, addend: 0x0, symName: _quantize_tq2_0, symObjAddr: 0x15540, symBinAddr: 0x91E70, symSize: 0x60 }
  - { offset: 0x28A887, size: 0x8, addend: 0x0, symName: _dequantize_row_tq1_0, symObjAddr: 0x155A0, symBinAddr: 0x91ED0, symSize: 0x1700 }
  - { offset: 0x28AB44, size: 0x8, addend: 0x0, symName: _dequantize_row_tq2_0, symObjAddr: 0x16CA0, symBinAddr: 0x935D0, symSize: 0xC80 }
  - { offset: 0x28ACF5, size: 0x8, addend: 0x0, symName: _dequantize_row_iq2_xxs, symObjAddr: 0x17920, symBinAddr: 0x94250, symSize: 0x510 }
  - { offset: 0x28AEF3, size: 0x8, addend: 0x0, symName: _dequantize_row_iq2_xs, symObjAddr: 0x17E30, symBinAddr: 0x94760, symSize: 0x310 }
  - { offset: 0x28B0C7, size: 0x8, addend: 0x0, symName: _dequantize_row_iq2_s, symObjAddr: 0x18140, symBinAddr: 0x94A70, symSize: 0x550 }
  - { offset: 0x28B2D5, size: 0x8, addend: 0x0, symName: _dequantize_row_iq3_xxs, symObjAddr: 0x18690, symBinAddr: 0x94FC0, symSize: 0x530 }
  - { offset: 0x28B4FB, size: 0x8, addend: 0x0, symName: _dequantize_row_iq3_s, symObjAddr: 0x18BC0, symBinAddr: 0x954F0, symSize: 0x9E0 }
  - { offset: 0x28B76C, size: 0x8, addend: 0x0, symName: _dequantize_row_iq1_s, symObjAddr: 0x195A0, symBinAddr: 0x95ED0, symSize: 0x260 }
  - { offset: 0x28B988, size: 0x8, addend: 0x0, symName: _dequantize_row_iq1_m, symObjAddr: 0x19800, symBinAddr: 0x96130, symSize: 0x390 }
  - { offset: 0x28BBD6, size: 0x8, addend: 0x0, symName: _dequantize_row_iq4_nl, symObjAddr: 0x19B90, symBinAddr: 0x964C0, symSize: 0x410 }
  - { offset: 0x28BD48, size: 0x8, addend: 0x0, symName: _dequantize_row_iq4_xs, symObjAddr: 0x19FA0, symBinAddr: 0x968D0, symSize: 0x520 }
  - { offset: 0x28BF05, size: 0x8, addend: 0x0, symName: _quantize_row_q8_K_ref, symObjAddr: 0x1A4C0, symBinAddr: 0x96DF0, symSize: 0x790 }
  - { offset: 0x28C094, size: 0x8, addend: 0x0, symName: _dequantize_row_q8_K, symObjAddr: 0x1AC50, symBinAddr: 0x97580, symSize: 0x1C0 }
  - { offset: 0x28C1E5, size: 0x8, addend: 0x0, symName: _iq2_compare_func, symObjAddr: 0x1B670, symBinAddr: 0x97FA0, symSize: 0x30 }
  - { offset: 0x28C23D, size: 0x8, addend: 0x0, symName: _iq2xs_free_impl, symObjAddr: 0x1B6A0, symBinAddr: 0x97FD0, symSize: 0xF0 }
  - { offset: 0x28C79B, size: 0x8, addend: 0x0, symName: _quantize_iq2_xxs, symObjAddr: 0x1B790, symBinAddr: 0x980C0, symSize: 0x1720 }
  - { offset: 0x28D0B2, size: 0x8, addend: 0x0, symName: _iq2_find_best_neighbour, symObjAddr: 0x2B260, symBinAddr: 0xA7B90, symSize: 0x2A0 }
  - { offset: 0x28D238, size: 0x8, addend: 0x0, symName: _iq1_sort_helper, symObjAddr: 0x2B500, symBinAddr: 0xA7E30, symSize: 0x30 }
  - { offset: 0x28D762, size: 0x8, addend: 0x0, symName: _quantize_iq2_xs, symObjAddr: 0x1CEB0, symBinAddr: 0x997E0, symSize: 0x2390 }
  - { offset: 0x28E0D3, size: 0x8, addend: 0x0, symName: _iq3_compare_func, symObjAddr: 0x1F930, symBinAddr: 0x9C260, symSize: 0x30 }
  - { offset: 0x28E12B, size: 0x8, addend: 0x0, symName: _iq3xs_free_impl, symObjAddr: 0x1F960, symBinAddr: 0x9C290, symSize: 0x90 }
  - { offset: 0x28E1BC, size: 0x8, addend: 0x0, symName: _quantize_iq3_xxs, symObjAddr: 0x1F9F0, symBinAddr: 0x9C320, symSize: 0xB0 }
  - { offset: 0x28E2B3, size: 0x8, addend: 0x0, symName: _quantize_row_iq3_xxs_impl, symObjAddr: 0x1FAA0, symBinAddr: 0x9C3D0, symSize: 0x16F0 }
  - { offset: 0x28F014, size: 0x8, addend: 0x0, symName: _quantize_row_iq3_xxs_ref, symObjAddr: 0x21190, symBinAddr: 0x9DAC0, symSize: 0x10 }
  - { offset: 0x28F5C0, size: 0x8, addend: 0x0, symName: _quantize_iq3_s, symObjAddr: 0x211A0, symBinAddr: 0x9DAD0, symSize: 0x19E0 }
  - { offset: 0x28FFF4, size: 0x8, addend: 0x0, symName: _quantize_row_iq3_s_ref, symObjAddr: 0x22B80, symBinAddr: 0x9F4B0, symSize: 0x20 }
  - { offset: 0x290472, size: 0x8, addend: 0x0, symName: _quantize_iq1_s, symObjAddr: 0x22BA0, symBinAddr: 0x9F4D0, symSize: 0x1840 }
  - { offset: 0x290C18, size: 0x8, addend: 0x0, symName: _iq1_find_best_neighbour2, symObjAddr: 0x2B530, symBinAddr: 0xA7E60, symSize: 0x7C0 }
  - { offset: 0x29147C, size: 0x8, addend: 0x0, symName: _quantize_iq1_m, symObjAddr: 0x243E0, symBinAddr: 0xA0D10, symSize: 0x2060 }
  - { offset: 0x291CAF, size: 0x8, addend: 0x0, symName: _quantize_iq4_nl, symObjAddr: 0x26440, symBinAddr: 0xA2D70, symSize: 0x2A0 }
  - { offset: 0x291E70, size: 0x8, addend: 0x0, symName: _quantize_row_iq4_nl_impl, symObjAddr: 0x266E0, symBinAddr: 0xA3010, symSize: 0xED0 }
  - { offset: 0x292768, size: 0x8, addend: 0x0, symName: _quantize_row_iq4_nl_ref, symObjAddr: 0x275B0, symBinAddr: 0xA3EE0, symSize: 0xE0 }
  - { offset: 0x292899, size: 0x8, addend: 0x0, symName: _quantize_iq4_xs, symObjAddr: 0x27690, symBinAddr: 0xA3FC0, symSize: 0x2B0 }
  - { offset: 0x292AC2, size: 0x8, addend: 0x0, symName: _quantize_row_iq4_xs_ref, symObjAddr: 0x27940, symBinAddr: 0xA4270, symSize: 0xE0 }
  - { offset: 0x29308A, size: 0x8, addend: 0x0, symName: _quantize_iq2_s, symObjAddr: 0x27A20, symBinAddr: 0xA4350, symSize: 0x2070 }
  - { offset: 0x2939BB, size: 0x8, addend: 0x0, symName: _quantize_row_iq2_s_ref, symObjAddr: 0x29A90, symBinAddr: 0xA63C0, symSize: 0x20 }
  - { offset: 0x293B1C, size: 0x8, addend: 0x0, symName: _ggml_validate_row_data, symObjAddr: 0x29AB0, symBinAddr: 0xA63E0, symSize: 0xFD0 }
  - { offset: 0x294EC5, size: 0x8, addend: 0x0, symName: _iq1_sort_helper, symObjAddr: 0x2B500, symBinAddr: 0xA7E30, symSize: 0x30 }
  - { offset: 0x2951DA, size: 0x8, addend: 0x0, symName: _ggml_critical_section_mutex, symObjAddr: 0x60, symBinAddr: 0x1FB980, symSize: 0x0 }
  - { offset: 0x295ECC, size: 0x8, addend: 0x0, symName: _ggml_critical_section_start, symObjAddr: 0x0, symBinAddr: 0xA8620, symSize: 0x20 }
  - { offset: 0x295EE2, size: 0x8, addend: 0x0, symName: _ggml_critical_section_end, symObjAddr: 0x20, symBinAddr: 0xA8640, symSize: 0x11 }
  - { offset: 0x295EFF, size: 0x8, addend: 0x0, symName: __GLOBAL__sub_I_ggml_threading.cpp, symObjAddr: 0x40, symBinAddr: 0xA8660, symSize: 0x1F }
  - { offset: 0x297E4C, size: 0x8, addend: 0x0, symName: _ggml_graph_next_uid, symObjAddr: 0x0, symBinAddr: 0xA8680, symSize: 0x20 }
  - { offset: 0x297E5A, size: 0x8, addend: 0x0, symName: _ggml_graph_next_uid, symObjAddr: 0x0, symBinAddr: 0xA8680, symSize: 0x20 }
  - { offset: 0x297E80, size: 0x8, addend: 0x0, symName: _ggml_graph_next_uid.counter, symObjAddr: 0x1AAB0, symBinAddr: 0x1FB9C0, symSize: 0x0 }
  - { offset: 0x297F12, size: 0x8, addend: 0x0, symName: _ggml_init, symObjAddr: 0x19C0, symBinAddr: 0xA9F30, symSize: 0x170 }
  - { offset: 0x297F3A, size: 0x8, addend: 0x0, symName: _ggml_init.is_first_call, symObjAddr: 0xAB928, symBinAddr: 0x292398, symSize: 0x0 }
  - { offset: 0x298099, size: 0x8, addend: 0x0, symName: _ggml_reset, symObjAddr: 0x1B30, symBinAddr: 0xAA0A0, symSize: 0x20 }
  - { offset: 0x2980C7, size: 0x8, addend: 0x0, symName: _ggml_hash_size, symObjAddr: 0xE8B0, symBinAddr: 0xB6E00, symSize: 0x60 }
  - { offset: 0x2980E8, size: 0x8, addend: 0x0, symName: _ggml_hash_size.primes, symObjAddr: 0x1E240, symBinAddr: 0x1D78D0, symSize: 0x0 }
  - { offset: 0x29815F, size: 0x8, addend: 0x0, symName: _g_abort_callback, symObjAddr: 0xAB920, symBinAddr: 0x292390, symSize: 0x0 }
  - { offset: 0x298198, size: 0x8, addend: 0x0, symName: _type_traits, symObjAddr: 0x1EAE0, symBinAddr: 0x1F7D30, symSize: 0x0 }
  - { offset: 0x2982CE, size: 0x8, addend: 0x0, symName: _GGML_OP_NAME, symObjAddr: 0x1E3E0, symBinAddr: 0x1F7630, symSize: 0x0 }
  - { offset: 0x2982F3, size: 0x8, addend: 0x0, symName: _GGML_OP_SYMBOL, symObjAddr: 0x1E6F0, symBinAddr: 0x1F7940, symSize: 0x0 }
  - { offset: 0x29830A, size: 0x8, addend: 0x0, symName: _GGML_UNARY_OP_NAME, symObjAddr: 0x1EA00, symBinAddr: 0x1F7C50, symSize: 0x0 }
  - { offset: 0x29832F, size: 0x8, addend: 0x0, symName: _GGML_GLU_OP_NAME, symObjAddr: 0x1EAB0, symBinAddr: 0x1F7D00, symSize: 0x0 }
  - { offset: 0x298354, size: 0x8, addend: 0x0, symName: _g_logger_state.0, symObjAddr: 0x1AAB8, symBinAddr: 0x1FB9C8, symSize: 0x0 }
  - { offset: 0x29835F, size: 0x8, addend: 0x0, symName: _g_logger_state.1, symObjAddr: 0xAB930, symBinAddr: 0x2923A0, symSize: 0x0 }
  - { offset: 0x298D91, size: 0x8, addend: 0x0, symName: _ggml_print_backtrace, symObjAddr: 0x20, symBinAddr: 0xA86A0, symSize: 0x1E0 }
  - { offset: 0x298EFA, size: 0x8, addend: 0x0, symName: _ggml_print_backtrace_symbols, symObjAddr: 0x200, symBinAddr: 0xA8880, symSize: 0x60 }
  - { offset: 0x298FE7, size: 0x8, addend: 0x0, symName: _ggml_print_backtrace_symbols, symObjAddr: 0x200, symBinAddr: 0xA8880, symSize: 0x60 }
  - { offset: 0x299059, size: 0x8, addend: 0x0, symName: _ggml_set_abort_callback, symObjAddr: 0x260, symBinAddr: 0xA88E0, symSize: 0x20 }
  - { offset: 0x299092, size: 0x8, addend: 0x0, symName: _ggml_abort, symObjAddr: 0x280, symBinAddr: 0x1BE730, symSize: 0x110 }
  - { offset: 0x299164, size: 0x8, addend: 0x0, symName: _ggml_log_internal, symObjAddr: 0x390, symBinAddr: 0xA8900, symSize: 0x180 }
  - { offset: 0x29949D, size: 0x8, addend: 0x0, symName: _ggml_log_internal, symObjAddr: 0x390, symBinAddr: 0xA8900, symSize: 0x180 }
  - { offset: 0x2995E1, size: 0x8, addend: 0x0, symName: _ggml_log_callback_default, symObjAddr: 0x510, symBinAddr: 0xA8A80, symSize: 0x30 }
  - { offset: 0x299666, size: 0x8, addend: 0x0, symName: _ggml_aligned_malloc, symObjAddr: 0x540, symBinAddr: 0xA8AB0, symSize: 0xC0 }
  - { offset: 0x29972B, size: 0x8, addend: 0x0, symName: _ggml_aligned_free, symObjAddr: 0x600, symBinAddr: 0xA8B70, symSize: 0x10 }
  - { offset: 0x299767, size: 0x8, addend: 0x0, symName: _ggml_status_to_string, symObjAddr: 0x610, symBinAddr: 0xA8B80, symSize: 0x30 }
  - { offset: 0x299845, size: 0x8, addend: 0x0, symName: _ggml_fp16_to_fp32, symObjAddr: 0x640, symBinAddr: 0xA8BB0, symSize: 0x60 }
  - { offset: 0x299A26, size: 0x8, addend: 0x0, symName: _ggml_fp32_to_fp16, symObjAddr: 0x6A0, symBinAddr: 0xA8C10, symSize: 0x80 }
  - { offset: 0x299BA3, size: 0x8, addend: 0x0, symName: _ggml_bf16_to_fp32, symObjAddr: 0x720, symBinAddr: 0xA8C90, symSize: 0x10 }
  - { offset: 0x299C4A, size: 0x8, addend: 0x0, symName: _ggml_fp32_to_bf16, symObjAddr: 0x730, symBinAddr: 0xA8CA0, symSize: 0x40 }
  - { offset: 0x299C94, size: 0x8, addend: 0x0, symName: _ggml_fp16_to_fp32_row, symObjAddr: 0x770, symBinAddr: 0xA8CE0, symSize: 0x160 }
  - { offset: 0x299DA8, size: 0x8, addend: 0x0, symName: _ggml_fp32_to_fp16_row, symObjAddr: 0x8D0, symBinAddr: 0xA8E40, symSize: 0x200 }
  - { offset: 0x299ECA, size: 0x8, addend: 0x0, symName: _ggml_bf16_to_fp32_row, symObjAddr: 0xAD0, symBinAddr: 0xA9040, symSize: 0x100 }
  - { offset: 0x299F39, size: 0x8, addend: 0x0, symName: _ggml_fp32_to_bf16_row_ref, symObjAddr: 0xBD0, symBinAddr: 0xA9140, symSize: 0x100 }
  - { offset: 0x299F65, size: 0x8, addend: 0x0, symName: _ggml_fp32_to_bf16_row_ref, symObjAddr: 0xBD0, symBinAddr: 0xA9140, symSize: 0x100 }
  - { offset: 0x299F9C, size: 0x8, addend: 0x0, symName: _ggml_fp32_to_bf16_row, symObjAddr: 0xCD0, symBinAddr: 0xA9240, symSize: 0x100 }
  - { offset: 0x29A00B, size: 0x8, addend: 0x0, symName: _ggml_guid_matches, symObjAddr: 0xDD0, symBinAddr: 0xA9340, symSize: 0x20 }
  - { offset: 0x29A045, size: 0x8, addend: 0x0, symName: _ggml_version, symObjAddr: 0xDF0, symBinAddr: 0xA9360, symSize: 0x10 }
  - { offset: 0x29A060, size: 0x8, addend: 0x0, symName: _ggml_commit, symObjAddr: 0xE00, symBinAddr: 0xA9370, symSize: 0x10 }
  - { offset: 0x29A07B, size: 0x8, addend: 0x0, symName: _ggml_time_init, symObjAddr: 0xE10, symBinAddr: 0xA9380, symSize: 0x10 }
  - { offset: 0x29A092, size: 0x8, addend: 0x0, symName: _ggml_time_ms, symObjAddr: 0xE20, symBinAddr: 0xA9390, symSize: 0x50 }
  - { offset: 0x29A13C, size: 0x8, addend: 0x0, symName: _ggml_time_us, symObjAddr: 0xE70, symBinAddr: 0xA93E0, symSize: 0x50 }
  - { offset: 0x29A184, size: 0x8, addend: 0x0, symName: _ggml_cycles, symObjAddr: 0xEC0, symBinAddr: 0xA9430, symSize: 0x10 }
  - { offset: 0x29A1BE, size: 0x8, addend: 0x0, symName: _ggml_cycles_per_ms, symObjAddr: 0xED0, symBinAddr: 0xA9440, symSize: 0x10 }
  - { offset: 0x29A1D9, size: 0x8, addend: 0x0, symName: _ggml_fopen, symObjAddr: 0xEE0, symBinAddr: 0xA9450, symSize: 0x10 }
  - { offset: 0x29A23A, size: 0x8, addend: 0x0, symName: _ggml_get_type_traits, symObjAddr: 0xEF0, symBinAddr: 0xA9460, symSize: 0x20 }
  - { offset: 0x29A265, size: 0x8, addend: 0x0, symName: _ggml_print_object, symObjAddr: 0xF10, symBinAddr: 0xA9480, symSize: 0x30 }
  - { offset: 0x29A2BD, size: 0x8, addend: 0x0, symName: _ggml_print_objects, symObjAddr: 0xF40, symBinAddr: 0xA94B0, symSize: 0x90 }
  - { offset: 0x29A364, size: 0x8, addend: 0x0, symName: _ggml_nelements, symObjAddr: 0xFD0, symBinAddr: 0xA9540, symSize: 0x20 }
  - { offset: 0x29A381, size: 0x8, addend: 0x0, symName: _ggml_nrows, symObjAddr: 0xFF0, symBinAddr: 0xA9560, symSize: 0x20 }
  - { offset: 0x29A3C8, size: 0x8, addend: 0x0, symName: _ggml_nbytes, symObjAddr: 0x1010, symBinAddr: 0xA9580, symSize: 0xA0 }
  - { offset: 0x29A449, size: 0x8, addend: 0x0, symName: _ggml_blck_size, symObjAddr: 0x10B0, symBinAddr: 0xA9620, symSize: 0x20 }
  - { offset: 0x29A466, size: 0x8, addend: 0x0, symName: _ggml_type_size, symObjAddr: 0x10D0, symBinAddr: 0xA9640, symSize: 0x20 }
  - { offset: 0x29A4F5, size: 0x8, addend: 0x0, symName: _ggml_nbytes_pad, symObjAddr: 0x10F0, symBinAddr: 0xA9660, symSize: 0xA0 }
  - { offset: 0x29A5AF, size: 0x8, addend: 0x0, symName: _ggml_row_size, symObjAddr: 0x1190, symBinAddr: 0xA9700, symSize: 0x40 }
  - { offset: 0x29A60B, size: 0x8, addend: 0x0, symName: _ggml_type_sizef, symObjAddr: 0x11D0, symBinAddr: 0xA9740, symSize: 0x50 }
  - { offset: 0x29A636, size: 0x8, addend: 0x0, symName: _ggml_type_name, symObjAddr: 0x1220, symBinAddr: 0xA9790, symSize: 0x20 }
  - { offset: 0x29A653, size: 0x8, addend: 0x0, symName: _ggml_is_quantized, symObjAddr: 0x1240, symBinAddr: 0xA97B0, symSize: 0x20 }
  - { offset: 0x29A670, size: 0x8, addend: 0x0, symName: _ggml_op_name, symObjAddr: 0x1260, symBinAddr: 0xA97D0, symSize: 0x20 }
  - { offset: 0x29A68D, size: 0x8, addend: 0x0, symName: _ggml_op_symbol, symObjAddr: 0x1280, symBinAddr: 0xA97F0, symSize: 0x20 }
  - { offset: 0x29A6AA, size: 0x8, addend: 0x0, symName: _ggml_unary_op_name, symObjAddr: 0x12A0, symBinAddr: 0xA9810, symSize: 0x20 }
  - { offset: 0x29A6C7, size: 0x8, addend: 0x0, symName: _ggml_glu_op_name, symObjAddr: 0x12C0, symBinAddr: 0xA9830, symSize: 0x20 }
  - { offset: 0x29A796, size: 0x8, addend: 0x0, symName: _ggml_op_desc, symObjAddr: 0x12E0, symBinAddr: 0xA9850, symSize: 0x50 }
  - { offset: 0x29A8C5, size: 0x8, addend: 0x0, symName: _ggml_get_unary_op, symObjAddr: 0x1330, symBinAddr: 0xA98A0, symSize: 0x20 }
  - { offset: 0x29A918, size: 0x8, addend: 0x0, symName: _ggml_get_unary_op.cold.1, symObjAddr: 0x145B0, symBinAddr: 0x1BE860, symSize: 0x30 }
  - { offset: 0x29A930, size: 0x8, addend: 0x0, symName: _ggml_get_glu_op, symObjAddr: 0x1350, symBinAddr: 0xA98C0, symSize: 0x20 }
  - { offset: 0x29A983, size: 0x8, addend: 0x0, symName: _ggml_get_glu_op.cold.1, symObjAddr: 0x145E0, symBinAddr: 0x1BE890, symSize: 0x30 }
  - { offset: 0x29A99B, size: 0x8, addend: 0x0, symName: _ggml_element_size, symObjAddr: 0x1370, symBinAddr: 0xA98E0, symSize: 0x20 }
  - { offset: 0x29A9CE, size: 0x8, addend: 0x0, symName: _ggml_is_scalar, symObjAddr: 0x1390, symBinAddr: 0xA9900, symSize: 0x30 }
  - { offset: 0x29A9EB, size: 0x8, addend: 0x0, symName: _ggml_is_vector, symObjAddr: 0x13C0, symBinAddr: 0xA9930, symSize: 0x20 }
  - { offset: 0x29AA08, size: 0x8, addend: 0x0, symName: _ggml_is_matrix, symObjAddr: 0x13E0, symBinAddr: 0xA9950, symSize: 0x20 }
  - { offset: 0x29AA25, size: 0x8, addend: 0x0, symName: _ggml_is_3d, symObjAddr: 0x1400, symBinAddr: 0xA9970, symSize: 0x10 }
  - { offset: 0x29AA42, size: 0x8, addend: 0x0, symName: _ggml_n_dims, symObjAddr: 0x1410, symBinAddr: 0xA9980, symSize: 0x30 }
  - { offset: 0x29AA8D, size: 0x8, addend: 0x0, symName: _ggml_ftype_to_ggml_type, symObjAddr: 0x1440, symBinAddr: 0xA99B0, symSize: 0x30 }
  - { offset: 0x29AAD9, size: 0x8, addend: 0x0, symName: _ggml_ftype_to_ggml_type.cold.1, symObjAddr: 0x14610, symBinAddr: 0x1BE8C0, symSize: 0x30 }
  - { offset: 0x29AB00, size: 0x8, addend: 0x0, symName: _ggml_tensor_overhead, symObjAddr: 0x1470, symBinAddr: 0xA99E0, symSize: 0x10 }
  - { offset: 0x29AB1B, size: 0x8, addend: 0x0, symName: _ggml_is_transposed, symObjAddr: 0x1480, symBinAddr: 0xA99F0, symSize: 0x20 }
  - { offset: 0x29AB9A, size: 0x8, addend: 0x0, symName: _ggml_is_contiguous, symObjAddr: 0x14A0, symBinAddr: 0xA9A10, symSize: 0x90 }
  - { offset: 0x29AC3F, size: 0x8, addend: 0x0, symName: _ggml_is_contiguous_0, symObjAddr: 0x1530, symBinAddr: 0xA9AA0, symSize: 0x90 }
  - { offset: 0x29ACC5, size: 0x8, addend: 0x0, symName: _ggml_is_contiguous_1, symObjAddr: 0x15C0, symBinAddr: 0xA9B30, symSize: 0x60 }
  - { offset: 0x29AD45, size: 0x8, addend: 0x0, symName: _ggml_is_contiguous_2, symObjAddr: 0x1620, symBinAddr: 0xA9B90, symSize: 0x50 }
  - { offset: 0x29ADEC, size: 0x8, addend: 0x0, symName: _ggml_is_contiguously_allocated, symObjAddr: 0x1670, symBinAddr: 0xA9BE0, symSize: 0x100 }
  - { offset: 0x29AED7, size: 0x8, addend: 0x0, symName: _ggml_is_permuted, symObjAddr: 0x1770, symBinAddr: 0xA9CE0, symSize: 0x30 }
  - { offset: 0x29AF02, size: 0x8, addend: 0x0, symName: _ggml_is_contiguous_channels, symObjAddr: 0x17A0, symBinAddr: 0xA9D10, symSize: 0x40 }
  - { offset: 0x29AF35, size: 0x8, addend: 0x0, symName: _ggml_is_contiguous_rows, symObjAddr: 0x17E0, symBinAddr: 0xA9D50, symSize: 0x30 }
  - { offset: 0x29AF68, size: 0x8, addend: 0x0, symName: _ggml_is_empty, symObjAddr: 0x1810, symBinAddr: 0xA9D80, symSize: 0x30 }
  - { offset: 0x29AFA2, size: 0x8, addend: 0x0, symName: _ggml_are_same_shape, symObjAddr: 0x1840, symBinAddr: 0xA9DB0, symSize: 0x40 }
  - { offset: 0x29AFC7, size: 0x8, addend: 0x0, symName: _ggml_are_same_stride, symObjAddr: 0x1880, symBinAddr: 0xA9DF0, symSize: 0x40 }
  - { offset: 0x29B01B, size: 0x8, addend: 0x0, symName: _ggml_is_view, symObjAddr: 0x18C0, symBinAddr: 0xA9E30, symSize: 0x20 }
  - { offset: 0x29B088, size: 0x8, addend: 0x0, symName: _ggml_can_repeat, symObjAddr: 0x18E0, symBinAddr: 0xA9E50, symSize: 0xE0 }
  - { offset: 0x29B1CA, size: 0x8, addend: 0x0, symName: _ggml_init.cold.3, symObjAddr: 0x146A0, symBinAddr: 0x1BE950, symSize: 0x40 }
  - { offset: 0x29B1F9, size: 0x8, addend: 0x0, symName: _ggml_init.cold.2, symObjAddr: 0x14670, symBinAddr: 0x1BE920, symSize: 0x30 }
  - { offset: 0x29B211, size: 0x8, addend: 0x0, symName: _ggml_init.cold.1, symObjAddr: 0x14640, symBinAddr: 0x1BE8F0, symSize: 0x30 }
  - { offset: 0x29B229, size: 0x8, addend: 0x0, symName: _ggml_reset, symObjAddr: 0x1B30, symBinAddr: 0xAA0A0, symSize: 0x20 }
  - { offset: 0x29B275, size: 0x8, addend: 0x0, symName: _ggml_free, symObjAddr: 0x1B50, symBinAddr: 0xAA0C0, symSize: 0x40 }
  - { offset: 0x29B2E9, size: 0x8, addend: 0x0, symName: _ggml_used_mem, symObjAddr: 0x1B90, symBinAddr: 0xAA100, symSize: 0x20 }
  - { offset: 0x29B314, size: 0x8, addend: 0x0, symName: _ggml_get_no_alloc, symObjAddr: 0x1BB0, symBinAddr: 0xAA120, symSize: 0x10 }
  - { offset: 0x29B33F, size: 0x8, addend: 0x0, symName: _ggml_set_no_alloc, symObjAddr: 0x1BC0, symBinAddr: 0xAA130, symSize: 0x10 }
  - { offset: 0x29B375, size: 0x8, addend: 0x0, symName: _ggml_get_mem_buffer, symObjAddr: 0x1BD0, symBinAddr: 0xAA140, symSize: 0x10 }
  - { offset: 0x29B3A0, size: 0x8, addend: 0x0, symName: _ggml_get_mem_size, symObjAddr: 0x1BE0, symBinAddr: 0xAA150, symSize: 0x10 }
  - { offset: 0x29B4C3, size: 0x8, addend: 0x0, symName: _ggml_get_max_tensor_size, symObjAddr: 0x1BF0, symBinAddr: 0xAA160, symSize: 0x130 }
  - { offset: 0x29B51B, size: 0x8, addend: 0x0, symName: _ggml_get_max_tensor_size, symObjAddr: 0x1BF0, symBinAddr: 0xAA160, symSize: 0x130 }
  - { offset: 0x29B60A, size: 0x8, addend: 0x0, symName: _ggml_get_first_tensor, symObjAddr: 0x1D20, symBinAddr: 0xAA290, symSize: 0x40 }
  - { offset: 0x29B63B, size: 0x8, addend: 0x0, symName: _ggml_get_next_tensor, symObjAddr: 0x1D60, symBinAddr: 0xAA2D0, symSize: 0x40 }
  - { offset: 0x29B674, size: 0x8, addend: 0x0, symName: _ggml_new_tensor, symObjAddr: 0x1DA0, symBinAddr: 0xAA310, symSize: 0x10 }
  - { offset: 0x29B6E4, size: 0x8, addend: 0x0, symName: _ggml_new_tensor_impl, symObjAddr: 0x1DB0, symBinAddr: 0xAA320, symSize: 0x480 }
  - { offset: 0x29B957, size: 0x8, addend: 0x0, symName: _ggml_new_object, symObjAddr: 0x23A0, symBinAddr: 0xAA910, symSize: 0x110 }
  - { offset: 0x29BA5B, size: 0x8, addend: 0x0, symName: _ggml_new_tensor_impl.cold.3, symObjAddr: 0x14740, symBinAddr: 0x1BE9F0, symSize: 0x30 }
  - { offset: 0x29BA73, size: 0x8, addend: 0x0, symName: _ggml_new_tensor_impl.cold.1, symObjAddr: 0x146E0, symBinAddr: 0x1BE990, symSize: 0x30 }
  - { offset: 0x29BA8B, size: 0x8, addend: 0x0, symName: _ggml_new_tensor_impl.cold.2, symObjAddr: 0x14710, symBinAddr: 0x1BE9C0, symSize: 0x30 }
  - { offset: 0x29BAA3, size: 0x8, addend: 0x0, symName: _ggml_new_tensor_impl.cold.5, symObjAddr: 0x147A0, symBinAddr: 0x1BEA50, symSize: 0x30 }
  - { offset: 0x29BABB, size: 0x8, addend: 0x0, symName: _ggml_new_tensor_impl.cold.4, symObjAddr: 0x14770, symBinAddr: 0x1BEA20, symSize: 0x30 }
  - { offset: 0x29BB28, size: 0x8, addend: 0x0, symName: _ggml_new_tensor_1d, symObjAddr: 0x2230, symBinAddr: 0xAA7A0, symSize: 0x30 }
  - { offset: 0x29BBCB, size: 0x8, addend: 0x0, symName: _ggml_new_tensor_2d, symObjAddr: 0x2260, symBinAddr: 0xAA7D0, symSize: 0x50 }
  - { offset: 0x29BC85, size: 0x8, addend: 0x0, symName: _ggml_new_tensor_3d, symObjAddr: 0x22B0, symBinAddr: 0xAA820, symSize: 0x60 }
  - { offset: 0x29BD49, size: 0x8, addend: 0x0, symName: _ggml_new_tensor_4d, symObjAddr: 0x2310, symBinAddr: 0xAA880, symSize: 0x60 }
  - { offset: 0x29BE17, size: 0x8, addend: 0x0, symName: _ggml_new_buffer, symObjAddr: 0x2370, symBinAddr: 0xAA8E0, symSize: 0x30 }
  - { offset: 0x29BE8B, size: 0x8, addend: 0x0, symName: _ggml_new_object.cold.1, symObjAddr: 0x147D0, symBinAddr: 0x1BEA80, symSize: 0x30 }
  - { offset: 0x29BEA3, size: 0x8, addend: 0x0, symName: _ggml_new_object.cold.2, symObjAddr: 0x14800, symBinAddr: 0x1BEAB0, symSize: 0x30 }
  - { offset: 0x29BEBB, size: 0x8, addend: 0x0, symName: _ggml_dup_tensor, symObjAddr: 0x24B0, symBinAddr: 0xAAA20, symSize: 0x20 }
  - { offset: 0x29BF41, size: 0x8, addend: 0x0, symName: _ggml_unravel_index, symObjAddr: 0x24D0, symBinAddr: 0xAAA40, symSize: 0xC0 }
  - { offset: 0x29C028, size: 0x8, addend: 0x0, symName: _ggml_get_data, symObjAddr: 0x2590, symBinAddr: 0xAAB00, symSize: 0x10 }
  - { offset: 0x29C053, size: 0x8, addend: 0x0, symName: _ggml_get_data_f32, symObjAddr: 0x25A0, symBinAddr: 0xAAB10, symSize: 0x10 }
  - { offset: 0x29C07E, size: 0x8, addend: 0x0, symName: _ggml_get_name, symObjAddr: 0x25B0, symBinAddr: 0xAAB20, symSize: 0x10 }
  - { offset: 0x29C09B, size: 0x8, addend: 0x0, symName: _ggml_set_name, symObjAddr: 0x25C0, symBinAddr: 0xAAB30, symSize: 0x70 }
  - { offset: 0x29C0E8, size: 0x8, addend: 0x0, symName: _ggml_format_name, symObjAddr: 0x2630, symBinAddr: 0xAABA0, symSize: 0xD0 }
  - { offset: 0x29C137, size: 0x8, addend: 0x0, symName: _ggml_view_tensor, symObjAddr: 0x2700, symBinAddr: 0xAAC70, symSize: 0x70 }
  - { offset: 0x29C1CF, size: 0x8, addend: 0x0, symName: _ggml_get_tensor, symObjAddr: 0x2770, symBinAddr: 0xAACE0, symSize: 0x60 }
  - { offset: 0x29C2E6, size: 0x8, addend: 0x0, symName: _ggml_dup, symObjAddr: 0x27D0, symBinAddr: 0xAAD40, symSize: 0x40 }
  - { offset: 0x29C433, size: 0x8, addend: 0x0, symName: _ggml_dup_inplace, symObjAddr: 0x2810, symBinAddr: 0xAAD80, symSize: 0x80 }
  - { offset: 0x29C545, size: 0x8, addend: 0x0, symName: _ggml_add, symObjAddr: 0x2890, symBinAddr: 0xAAE00, symSize: 0x10 }
  - { offset: 0x29C5BB, size: 0x8, addend: 0x0, symName: _ggml_add_impl, symObjAddr: 0x28A0, symBinAddr: 0xAAE10, symSize: 0x1B0 }
  - { offset: 0x29C7E7, size: 0x8, addend: 0x0, symName: _ggml_add_impl.cold.1, symObjAddr: 0x14830, symBinAddr: 0x1BEAE0, symSize: 0x30 }
  - { offset: 0x29C7FF, size: 0x8, addend: 0x0, symName: _ggml_add_inplace, symObjAddr: 0x2A50, symBinAddr: 0xAAFC0, symSize: 0x10 }
  - { offset: 0x29C90A, size: 0x8, addend: 0x0, symName: _ggml_add_cast, symObjAddr: 0x2A60, symBinAddr: 0xAAFD0, symSize: 0x130 }
  - { offset: 0x29CAFB, size: 0x8, addend: 0x0, symName: _ggml_add_cast.cold.1, symObjAddr: 0x14860, symBinAddr: 0x1BEB10, symSize: 0x30 }
  - { offset: 0x29CB2A, size: 0x8, addend: 0x0, symName: _ggml_add_cast.cold.2, symObjAddr: 0x14890, symBinAddr: 0x1BEB40, symSize: 0x30 }
  - { offset: 0x29CB59, size: 0x8, addend: 0x0, symName: _ggml_add_id, symObjAddr: 0x2B90, symBinAddr: 0xAB100, symSize: 0x90 }
  - { offset: 0x29CC87, size: 0x8, addend: 0x0, symName: _ggml_add_id.cold.1, symObjAddr: 0x148C0, symBinAddr: 0x1BEB70, symSize: 0x30 }
  - { offset: 0x29CC9F, size: 0x8, addend: 0x0, symName: _ggml_add_id.cold.2, symObjAddr: 0x148F0, symBinAddr: 0x1BEBA0, symSize: 0x30 }
  - { offset: 0x29CCB7, size: 0x8, addend: 0x0, symName: _ggml_add_id.cold.3, symObjAddr: 0x14920, symBinAddr: 0x1BEBD0, symSize: 0x30 }
  - { offset: 0x29CCCF, size: 0x8, addend: 0x0, symName: _ggml_add_id.cold.4, symObjAddr: 0x14950, symBinAddr: 0x1BEC00, symSize: 0x30 }
  - { offset: 0x29CCE7, size: 0x8, addend: 0x0, symName: _ggml_add1, symObjAddr: 0x2C20, symBinAddr: 0xAB190, symSize: 0x10 }
  - { offset: 0x29CD5D, size: 0x8, addend: 0x0, symName: _ggml_add1_impl, symObjAddr: 0x2C30, symBinAddr: 0xAB1A0, symSize: 0x110 }
  - { offset: 0x29CF1E, size: 0x8, addend: 0x0, symName: _ggml_add1_inplace, symObjAddr: 0x2D40, symBinAddr: 0xAB2B0, symSize: 0x10 }
  - { offset: 0x29CF61, size: 0x8, addend: 0x0, symName: _ggml_add1_impl.cold.1, symObjAddr: 0x14980, symBinAddr: 0x1BEC30, symSize: 0x30 }
  - { offset: 0x29CF79, size: 0x8, addend: 0x0, symName: _ggml_add1_impl.cold.2, symObjAddr: 0x149B0, symBinAddr: 0x1BEC60, symSize: 0x30 }
  - { offset: 0x29CF91, size: 0x8, addend: 0x0, symName: _ggml_add1_inplace, symObjAddr: 0x2D40, symBinAddr: 0xAB2B0, symSize: 0x10 }
  - { offset: 0x29D007, size: 0x8, addend: 0x0, symName: _ggml_acc, symObjAddr: 0x2D50, symBinAddr: 0xAB2C0, symSize: 0x20 }
  - { offset: 0x29D0D8, size: 0x8, addend: 0x0, symName: _ggml_acc_impl, symObjAddr: 0x2D70, symBinAddr: 0xAB2E0, symSize: 0x1C0 }
  - { offset: 0x29D418, size: 0x8, addend: 0x0, symName: _ggml_acc_impl.cold.1, symObjAddr: 0x149E0, symBinAddr: 0x1BEC90, symSize: 0x30 }
  - { offset: 0x29D430, size: 0x8, addend: 0x0, symName: _ggml_acc_impl.cold.5, symObjAddr: 0x14AA0, symBinAddr: 0x1BED50, symSize: 0x30 }
  - { offset: 0x29D448, size: 0x8, addend: 0x0, symName: _ggml_acc_impl.cold.2, symObjAddr: 0x14A10, symBinAddr: 0x1BECC0, symSize: 0x30 }
  - { offset: 0x29D460, size: 0x8, addend: 0x0, symName: _ggml_acc_impl.cold.3, symObjAddr: 0x14A40, symBinAddr: 0x1BECF0, symSize: 0x30 }
  - { offset: 0x29D478, size: 0x8, addend: 0x0, symName: _ggml_acc_impl.cold.4, symObjAddr: 0x14A70, symBinAddr: 0x1BED20, symSize: 0x30 }
  - { offset: 0x29D4A7, size: 0x8, addend: 0x0, symName: _ggml_acc_inplace, symObjAddr: 0x2F30, symBinAddr: 0xAB4A0, symSize: 0x20 }
  - { offset: 0x29D578, size: 0x8, addend: 0x0, symName: _ggml_sub, symObjAddr: 0x2F50, symBinAddr: 0xAB4C0, symSize: 0x10 }
  - { offset: 0x29D5EE, size: 0x8, addend: 0x0, symName: _ggml_sub_impl, symObjAddr: 0x2F60, symBinAddr: 0xAB4D0, symSize: 0x1B0 }
  - { offset: 0x29D7F1, size: 0x8, addend: 0x0, symName: _ggml_sub_impl.cold.1, symObjAddr: 0x14AD0, symBinAddr: 0x1BED80, symSize: 0x30 }
  - { offset: 0x29D809, size: 0x8, addend: 0x0, symName: _ggml_sub_inplace, symObjAddr: 0x3110, symBinAddr: 0xAB680, symSize: 0x10 }
  - { offset: 0x29D87F, size: 0x8, addend: 0x0, symName: _ggml_mul, symObjAddr: 0x3120, symBinAddr: 0xAB690, symSize: 0x10 }
  - { offset: 0x29D8D9, size: 0x8, addend: 0x0, symName: _ggml_mul_impl, symObjAddr: 0x3130, symBinAddr: 0xAB6A0, symSize: 0x1B0 }
  - { offset: 0x29DADC, size: 0x8, addend: 0x0, symName: _ggml_mul_impl.cold.1, symObjAddr: 0x14B00, symBinAddr: 0x1BEDB0, symSize: 0x30 }
  - { offset: 0x29DAF4, size: 0x8, addend: 0x0, symName: _ggml_mul_inplace, symObjAddr: 0x32E0, symBinAddr: 0xAB850, symSize: 0x10 }
  - { offset: 0x29DB6A, size: 0x8, addend: 0x0, symName: _ggml_div, symObjAddr: 0x32F0, symBinAddr: 0xAB860, symSize: 0x10 }
  - { offset: 0x29DBC4, size: 0x8, addend: 0x0, symName: _ggml_div_impl, symObjAddr: 0x3300, symBinAddr: 0xAB870, symSize: 0x1B0 }
  - { offset: 0x29DDC7, size: 0x8, addend: 0x0, symName: _ggml_div_impl.cold.1, symObjAddr: 0x14B30, symBinAddr: 0x1BEDE0, symSize: 0x30 }
  - { offset: 0x29DDDF, size: 0x8, addend: 0x0, symName: _ggml_div_inplace, symObjAddr: 0x34B0, symBinAddr: 0xABA20, symSize: 0x10 }
  - { offset: 0x29DE98, size: 0x8, addend: 0x0, symName: _ggml_sqr, symObjAddr: 0x34C0, symBinAddr: 0xABA30, symSize: 0x40 }
  - { offset: 0x29DF9F, size: 0x8, addend: 0x0, symName: _ggml_sqr_inplace, symObjAddr: 0x3500, symBinAddr: 0xABA70, symSize: 0x80 }
  - { offset: 0x29E0F4, size: 0x8, addend: 0x0, symName: _ggml_sqrt, symObjAddr: 0x3580, symBinAddr: 0xABAF0, symSize: 0x40 }
  - { offset: 0x29E1FB, size: 0x8, addend: 0x0, symName: _ggml_sqrt_inplace, symObjAddr: 0x35C0, symBinAddr: 0xABB30, symSize: 0x80 }
  - { offset: 0x29E350, size: 0x8, addend: 0x0, symName: _ggml_log, symObjAddr: 0x3640, symBinAddr: 0xABBB0, symSize: 0x40 }
  - { offset: 0x29E457, size: 0x8, addend: 0x0, symName: _ggml_log_inplace, symObjAddr: 0x3680, symBinAddr: 0xABBF0, symSize: 0x80 }
  - { offset: 0x29E60B, size: 0x8, addend: 0x0, symName: _ggml_expm1, symObjAddr: 0x3700, symBinAddr: 0xABC70, symSize: 0x70 }
  - { offset: 0x29E776, size: 0x8, addend: 0x0, symName: _ggml_expm1.cold.1, symObjAddr: 0x14B60, symBinAddr: 0x1BEE10, symSize: 0x30 }
  - { offset: 0x29E7EA, size: 0x8, addend: 0x0, symName: _ggml_unary, symObjAddr: 0x3770, symBinAddr: 0xABCE0, symSize: 0x60 }
  - { offset: 0x29E940, size: 0x8, addend: 0x0, symName: _ggml_expm1_inplace, symObjAddr: 0x37D0, symBinAddr: 0xABD40, symSize: 0xA0 }
  - { offset: 0x29E94B, size: 0x8, addend: 0x0, symName: _ggml_unary.cold.1, symObjAddr: 0x14B90, symBinAddr: 0x1BEE40, symSize: 0x30 }
  - { offset: 0x29E9B0, size: 0x8, addend: 0x0, symName: _ggml_expm1_inplace, symObjAddr: 0x37D0, symBinAddr: 0xABD40, symSize: 0xA0 }
  - { offset: 0x29EB28, size: 0x8, addend: 0x0, symName: _ggml_expm1_inplace.cold.1, symObjAddr: 0x14BC0, symBinAddr: 0x1BEE70, symSize: 0x30 }
  - { offset: 0x29EB6E, size: 0x8, addend: 0x0, symName: _ggml_unary_inplace, symObjAddr: 0x3870, symBinAddr: 0xABDE0, symSize: 0xB0 }
  - { offset: 0x29ECE2, size: 0x8, addend: 0x0, symName: _ggml_unary_inplace.cold.1, symObjAddr: 0x14BF0, symBinAddr: 0x1BEEA0, symSize: 0x30 }
  - { offset: 0x29ED11, size: 0x8, addend: 0x0, symName: _ggml_softplus, symObjAddr: 0x3920, symBinAddr: 0xABE90, symSize: 0x70 }
  - { offset: 0x29EE7C, size: 0x8, addend: 0x0, symName: _ggml_softplus.cold.1, symObjAddr: 0x14C20, symBinAddr: 0x1BEED0, symSize: 0x30 }
  - { offset: 0x29EEC2, size: 0x8, addend: 0x0, symName: _ggml_softplus_inplace, symObjAddr: 0x3990, symBinAddr: 0xABF00, symSize: 0xA0 }
  - { offset: 0x29F03A, size: 0x8, addend: 0x0, symName: _ggml_softplus_inplace.cold.1, symObjAddr: 0x14C50, symBinAddr: 0x1BEF00, symSize: 0x30 }
  - { offset: 0x29F0C3, size: 0x8, addend: 0x0, symName: _ggml_sin, symObjAddr: 0x3A30, symBinAddr: 0xABFA0, symSize: 0x40 }
  - { offset: 0x29F1B5, size: 0x8, addend: 0x0, symName: _ggml_sin_inplace, symObjAddr: 0x3A70, symBinAddr: 0xABFE0, symSize: 0x80 }
  - { offset: 0x29F30A, size: 0x8, addend: 0x0, symName: _ggml_cos, symObjAddr: 0x3AF0, symBinAddr: 0xAC060, symSize: 0x40 }
  - { offset: 0x29F3FC, size: 0x8, addend: 0x0, symName: _ggml_cos_inplace, symObjAddr: 0x3B30, symBinAddr: 0xAC0A0, symSize: 0x80 }
  - { offset: 0x29F544, size: 0x8, addend: 0x0, symName: _ggml_sum, symObjAddr: 0x3BB0, symBinAddr: 0xAC120, symSize: 0x40 }
  - { offset: 0x29F62B, size: 0x8, addend: 0x0, symName: _ggml_sum_rows, symObjAddr: 0x3BF0, symBinAddr: 0xAC160, symSize: 0x80 }
  - { offset: 0x29F712, size: 0x8, addend: 0x0, symName: _ggml_cumsum, symObjAddr: 0x3C70, symBinAddr: 0xAC1E0, symSize: 0x40 }
  - { offset: 0x29F7EB, size: 0x8, addend: 0x0, symName: _ggml_cumsum.cold.1, symObjAddr: 0x14C80, symBinAddr: 0x1BEF30, symSize: 0x30 }
  - { offset: 0x29F803, size: 0x8, addend: 0x0, symName: _ggml_mean, symObjAddr: 0x3CB0, symBinAddr: 0xAC220, symSize: 0x80 }
  - { offset: 0x29F8C8, size: 0x8, addend: 0x0, symName: _ggml_argmax, symObjAddr: 0x3D30, symBinAddr: 0xAC2A0, symSize: 0x70 }
  - { offset: 0x29F9E8, size: 0x8, addend: 0x0, symName: _ggml_argmax.cold.1, symObjAddr: 0x14CB0, symBinAddr: 0x1BEF60, symSize: 0x30 }
  - { offset: 0x29FA00, size: 0x8, addend: 0x0, symName: _ggml_argmax.cold.2, symObjAddr: 0x14CE0, symBinAddr: 0x1BEF90, symSize: 0x30 }
  - { offset: 0x29FA41, size: 0x8, addend: 0x0, symName: _ggml_count_equal, symObjAddr: 0x3DA0, symBinAddr: 0xAC310, symSize: 0x80 }
  - { offset: 0x29FB6E, size: 0x8, addend: 0x0, symName: _ggml_count_equal.cold.1, symObjAddr: 0x14D10, symBinAddr: 0x1BEFC0, symSize: 0x30 }
  - { offset: 0x29FB86, size: 0x8, addend: 0x0, symName: _ggml_repeat, symObjAddr: 0x3E20, symBinAddr: 0xAC390, symSize: 0x130 }
  - { offset: 0x29FCE6, size: 0x8, addend: 0x0, symName: _ggml_repeat.cold.1, symObjAddr: 0x14D40, symBinAddr: 0x1BEFF0, symSize: 0x30 }
  - { offset: 0x29FD76, size: 0x8, addend: 0x0, symName: _ggml_repeat_4d, symObjAddr: 0x3F50, symBinAddr: 0xAC4C0, symSize: 0x160 }
  - { offset: 0x29FF16, size: 0x8, addend: 0x0, symName: _ggml_repeat_4d.cold.1, symObjAddr: 0x14D70, symBinAddr: 0x1BF020, symSize: 0x30 }
  - { offset: 0x29FF2E, size: 0x8, addend: 0x0, symName: _ggml_repeat_back, symObjAddr: 0x40B0, symBinAddr: 0xAC620, symSize: 0x130 }
  - { offset: 0x2A008E, size: 0x8, addend: 0x0, symName: _ggml_repeat_back.cold.1, symObjAddr: 0x14DA0, symBinAddr: 0x1BF050, symSize: 0x30 }
  - { offset: 0x2A00A6, size: 0x8, addend: 0x0, symName: _ggml_concat, symObjAddr: 0x41E0, symBinAddr: 0xAC750, symSize: 0x130 }
  - { offset: 0x2A01F7, size: 0x8, addend: 0x0, symName: _ggml_concat.cold.3, symObjAddr: 0x14E30, symBinAddr: 0x1BF0E0, symSize: 0x30 }
  - { offset: 0x2A020F, size: 0x8, addend: 0x0, symName: _ggml_concat.cold.1, symObjAddr: 0x14DD0, symBinAddr: 0x1BF080, symSize: 0x30 }
  - { offset: 0x2A0227, size: 0x8, addend: 0x0, symName: _ggml_concat.cold.2, symObjAddr: 0x14E00, symBinAddr: 0x1BF0B0, symSize: 0x30 }
  - { offset: 0x2A023F, size: 0x8, addend: 0x0, symName: _ggml_abs, symObjAddr: 0x4310, symBinAddr: 0xAC880, symSize: 0x60 }
  - { offset: 0x2A03A4, size: 0x8, addend: 0x0, symName: _ggml_abs.cold.1, symObjAddr: 0x14E60, symBinAddr: 0x1BF110, symSize: 0x30 }
  - { offset: 0x2A03EA, size: 0x8, addend: 0x0, symName: _ggml_abs_inplace, symObjAddr: 0x4370, symBinAddr: 0xAC8E0, symSize: 0xA0 }
  - { offset: 0x2A0562, size: 0x8, addend: 0x0, symName: _ggml_abs_inplace.cold.1, symObjAddr: 0x14E90, symBinAddr: 0x1BF140, symSize: 0x30 }
  - { offset: 0x2A05A8, size: 0x8, addend: 0x0, symName: _ggml_sgn, symObjAddr: 0x4410, symBinAddr: 0xAC980, symSize: 0x70 }
  - { offset: 0x2A0713, size: 0x8, addend: 0x0, symName: _ggml_sgn.cold.1, symObjAddr: 0x14EC0, symBinAddr: 0x1BF170, symSize: 0x30 }
  - { offset: 0x2A0759, size: 0x8, addend: 0x0, symName: _ggml_sgn_inplace, symObjAddr: 0x4480, symBinAddr: 0xAC9F0, symSize: 0xA0 }
  - { offset: 0x2A08D1, size: 0x8, addend: 0x0, symName: _ggml_sgn_inplace.cold.1, symObjAddr: 0x14EF0, symBinAddr: 0x1BF1A0, symSize: 0x30 }
  - { offset: 0x2A0917, size: 0x8, addend: 0x0, symName: _ggml_neg, symObjAddr: 0x4520, symBinAddr: 0xACA90, symSize: 0x70 }
  - { offset: 0x2A0A6D, size: 0x8, addend: 0x0, symName: _ggml_neg.cold.1, symObjAddr: 0x14F20, symBinAddr: 0x1BF1D0, symSize: 0x30 }
  - { offset: 0x2A0AB3, size: 0x8, addend: 0x0, symName: _ggml_neg_inplace, symObjAddr: 0x4590, symBinAddr: 0xACB00, symSize: 0xA0 }
  - { offset: 0x2A0C2B, size: 0x8, addend: 0x0, symName: _ggml_neg_inplace.cold.1, symObjAddr: 0x14F50, symBinAddr: 0x1BF200, symSize: 0x30 }
  - { offset: 0x2A0C71, size: 0x8, addend: 0x0, symName: _ggml_step, symObjAddr: 0x4630, symBinAddr: 0xACBA0, symSize: 0x70 }
  - { offset: 0x2A0DDC, size: 0x8, addend: 0x0, symName: _ggml_step.cold.1, symObjAddr: 0x14F80, symBinAddr: 0x1BF230, symSize: 0x30 }
  - { offset: 0x2A0E22, size: 0x8, addend: 0x0, symName: _ggml_step_inplace, symObjAddr: 0x46A0, symBinAddr: 0xACC10, symSize: 0xA0 }
  - { offset: 0x2A0F9A, size: 0x8, addend: 0x0, symName: _ggml_step_inplace.cold.1, symObjAddr: 0x14FB0, symBinAddr: 0x1BF260, symSize: 0x30 }
  - { offset: 0x2A0FE0, size: 0x8, addend: 0x0, symName: _ggml_tanh, symObjAddr: 0x4740, symBinAddr: 0xACCB0, symSize: 0x70 }
  - { offset: 0x2A114B, size: 0x8, addend: 0x0, symName: _ggml_tanh.cold.1, symObjAddr: 0x14FE0, symBinAddr: 0x1BF290, symSize: 0x30 }
  - { offset: 0x2A1191, size: 0x8, addend: 0x0, symName: _ggml_tanh_inplace, symObjAddr: 0x47B0, symBinAddr: 0xACD20, symSize: 0xA0 }
  - { offset: 0x2A1309, size: 0x8, addend: 0x0, symName: _ggml_tanh_inplace.cold.1, symObjAddr: 0x15010, symBinAddr: 0x1BF2C0, symSize: 0x30 }
  - { offset: 0x2A134F, size: 0x8, addend: 0x0, symName: _ggml_elu, symObjAddr: 0x4850, symBinAddr: 0xACDC0, symSize: 0x70 }
  - { offset: 0x2A14BA, size: 0x8, addend: 0x0, symName: _ggml_elu.cold.1, symObjAddr: 0x15040, symBinAddr: 0x1BF2F0, symSize: 0x30 }
  - { offset: 0x2A1500, size: 0x8, addend: 0x0, symName: _ggml_elu_inplace, symObjAddr: 0x48C0, symBinAddr: 0xACE30, symSize: 0xA0 }
  - { offset: 0x2A1678, size: 0x8, addend: 0x0, symName: _ggml_elu_inplace.cold.1, symObjAddr: 0x15070, symBinAddr: 0x1BF320, symSize: 0x30 }
  - { offset: 0x2A16BE, size: 0x8, addend: 0x0, symName: _ggml_relu, symObjAddr: 0x4960, symBinAddr: 0xACED0, symSize: 0x70 }
  - { offset: 0x2A1829, size: 0x8, addend: 0x0, symName: _ggml_relu.cold.1, symObjAddr: 0x150A0, symBinAddr: 0x1BF350, symSize: 0x30 }
  - { offset: 0x2A186F, size: 0x8, addend: 0x0, symName: _ggml_relu_inplace, symObjAddr: 0x49D0, symBinAddr: 0xACF40, symSize: 0xA0 }
  - { offset: 0x2A19E7, size: 0x8, addend: 0x0, symName: _ggml_relu_inplace.cold.1, symObjAddr: 0x150D0, symBinAddr: 0x1BF380, symSize: 0x30 }
  - { offset: 0x2A1A2D, size: 0x8, addend: 0x0, symName: _ggml_leaky_relu, symObjAddr: 0x4A70, symBinAddr: 0xACFE0, symSize: 0xB0 }
  - { offset: 0x2A1BD6, size: 0x8, addend: 0x0, symName: _ggml_leaky_relu.cold.1, symObjAddr: 0x15100, symBinAddr: 0x1BF3B0, symSize: 0x30 }
  - { offset: 0x2A1C05, size: 0x8, addend: 0x0, symName: _ggml_sigmoid, symObjAddr: 0x4B20, symBinAddr: 0xAD090, symSize: 0x70 }
  - { offset: 0x2A1D70, size: 0x8, addend: 0x0, symName: _ggml_sigmoid.cold.1, symObjAddr: 0x15130, symBinAddr: 0x1BF3E0, symSize: 0x30 }
  - { offset: 0x2A1DB6, size: 0x8, addend: 0x0, symName: _ggml_sigmoid_inplace, symObjAddr: 0x4B90, symBinAddr: 0xAD100, symSize: 0xA0 }
  - { offset: 0x2A1F2E, size: 0x8, addend: 0x0, symName: _ggml_sigmoid_inplace.cold.1, symObjAddr: 0x15160, symBinAddr: 0x1BF410, symSize: 0x30 }
  - { offset: 0x2A1F74, size: 0x8, addend: 0x0, symName: _ggml_gelu, symObjAddr: 0x4C30, symBinAddr: 0xAD1A0, symSize: 0x70 }
  - { offset: 0x2A20DF, size: 0x8, addend: 0x0, symName: _ggml_gelu.cold.1, symObjAddr: 0x15190, symBinAddr: 0x1BF440, symSize: 0x30 }
  - { offset: 0x2A2125, size: 0x8, addend: 0x0, symName: _ggml_gelu_inplace, symObjAddr: 0x4CA0, symBinAddr: 0xAD210, symSize: 0xA0 }
  - { offset: 0x2A229D, size: 0x8, addend: 0x0, symName: _ggml_gelu_inplace.cold.1, symObjAddr: 0x151C0, symBinAddr: 0x1BF470, symSize: 0x30 }
  - { offset: 0x2A22E3, size: 0x8, addend: 0x0, symName: _ggml_gelu_erf, symObjAddr: 0x4D40, symBinAddr: 0xAD2B0, symSize: 0x70 }
  - { offset: 0x2A244E, size: 0x8, addend: 0x0, symName: _ggml_gelu_erf.cold.1, symObjAddr: 0x151F0, symBinAddr: 0x1BF4A0, symSize: 0x30 }
  - { offset: 0x2A2494, size: 0x8, addend: 0x0, symName: _ggml_gelu_erf_inplace, symObjAddr: 0x4DB0, symBinAddr: 0xAD320, symSize: 0xA0 }
  - { offset: 0x2A260C, size: 0x8, addend: 0x0, symName: _ggml_gelu_erf_inplace.cold.1, symObjAddr: 0x15220, symBinAddr: 0x1BF4D0, symSize: 0x30 }
  - { offset: 0x2A2652, size: 0x8, addend: 0x0, symName: _ggml_gelu_quick, symObjAddr: 0x4E50, symBinAddr: 0xAD3C0, symSize: 0x70 }
  - { offset: 0x2A27BD, size: 0x8, addend: 0x0, symName: _ggml_gelu_quick.cold.1, symObjAddr: 0x15250, symBinAddr: 0x1BF500, symSize: 0x30 }
  - { offset: 0x2A2803, size: 0x8, addend: 0x0, symName: _ggml_gelu_quick_inplace, symObjAddr: 0x4EC0, symBinAddr: 0xAD430, symSize: 0xA0 }
  - { offset: 0x2A297B, size: 0x8, addend: 0x0, symName: _ggml_gelu_quick_inplace.cold.1, symObjAddr: 0x15280, symBinAddr: 0x1BF530, symSize: 0x30 }
  - { offset: 0x2A29C1, size: 0x8, addend: 0x0, symName: _ggml_silu, symObjAddr: 0x4F60, symBinAddr: 0xAD4D0, symSize: 0x70 }
  - { offset: 0x2A2B17, size: 0x8, addend: 0x0, symName: _ggml_silu.cold.1, symObjAddr: 0x152B0, symBinAddr: 0x1BF560, symSize: 0x30 }
  - { offset: 0x2A2B5D, size: 0x8, addend: 0x0, symName: _ggml_silu_inplace, symObjAddr: 0x4FD0, symBinAddr: 0xAD540, symSize: 0xA0 }
  - { offset: 0x2A2CD5, size: 0x8, addend: 0x0, symName: _ggml_silu_inplace.cold.1, symObjAddr: 0x152E0, symBinAddr: 0x1BF590, symSize: 0x30 }
  - { offset: 0x2A2D63, size: 0x8, addend: 0x0, symName: _ggml_xielu, symObjAddr: 0x5070, symBinAddr: 0xAD5E0, symSize: 0xD0 }
  - { offset: 0x2A2FB2, size: 0x8, addend: 0x0, symName: _ggml_silu_back, symObjAddr: 0x5140, symBinAddr: 0xAD6B0, symSize: 0x40 }
  - { offset: 0x2A307C, size: 0x8, addend: 0x0, symName: _ggml_hardswish, symObjAddr: 0x5180, symBinAddr: 0xAD6F0, symSize: 0x70 }
  - { offset: 0x2A31E7, size: 0x8, addend: 0x0, symName: _ggml_hardswish.cold.1, symObjAddr: 0x15310, symBinAddr: 0x1BF5C0, symSize: 0x30 }
  - { offset: 0x2A322D, size: 0x8, addend: 0x0, symName: _ggml_hardsigmoid, symObjAddr: 0x51F0, symBinAddr: 0xAD760, symSize: 0x70 }
  - { offset: 0x2A3398, size: 0x8, addend: 0x0, symName: _ggml_hardsigmoid.cold.1, symObjAddr: 0x15340, symBinAddr: 0x1BF5F0, symSize: 0x30 }
  - { offset: 0x2A33DE, size: 0x8, addend: 0x0, symName: _ggml_exp, symObjAddr: 0x5260, symBinAddr: 0xAD7D0, symSize: 0x70 }
  - { offset: 0x2A3549, size: 0x8, addend: 0x0, symName: _ggml_exp.cold.1, symObjAddr: 0x15370, symBinAddr: 0x1BF620, symSize: 0x30 }
  - { offset: 0x2A358F, size: 0x8, addend: 0x0, symName: _ggml_exp_inplace, symObjAddr: 0x52D0, symBinAddr: 0xAD840, symSize: 0xA0 }
  - { offset: 0x2A3707, size: 0x8, addend: 0x0, symName: _ggml_exp_inplace.cold.1, symObjAddr: 0x153A0, symBinAddr: 0x1BF650, symSize: 0x30 }
  - { offset: 0x2A374D, size: 0x8, addend: 0x0, symName: _ggml_floor, symObjAddr: 0x5370, symBinAddr: 0xAD8E0, symSize: 0x70 }
  - { offset: 0x2A38B8, size: 0x8, addend: 0x0, symName: _ggml_floor.cold.1, symObjAddr: 0x153D0, symBinAddr: 0x1BF680, symSize: 0x30 }
  - { offset: 0x2A38FE, size: 0x8, addend: 0x0, symName: _ggml_floor_inplace, symObjAddr: 0x53E0, symBinAddr: 0xAD950, symSize: 0xA0 }
  - { offset: 0x2A3A76, size: 0x8, addend: 0x0, symName: _ggml_floor_inplace.cold.1, symObjAddr: 0x15400, symBinAddr: 0x1BF6B0, symSize: 0x30 }
  - { offset: 0x2A3ABC, size: 0x8, addend: 0x0, symName: _ggml_ceil, symObjAddr: 0x5480, symBinAddr: 0xAD9F0, symSize: 0x70 }
  - { offset: 0x2A3C27, size: 0x8, addend: 0x0, symName: _ggml_ceil.cold.1, symObjAddr: 0x15430, symBinAddr: 0x1BF6E0, symSize: 0x30 }
  - { offset: 0x2A3C6D, size: 0x8, addend: 0x0, symName: _ggml_ceil_inplace, symObjAddr: 0x54F0, symBinAddr: 0xADA60, symSize: 0xA0 }
  - { offset: 0x2A3DE5, size: 0x8, addend: 0x0, symName: _ggml_ceil_inplace.cold.1, symObjAddr: 0x15460, symBinAddr: 0x1BF710, symSize: 0x30 }
  - { offset: 0x2A3E2B, size: 0x8, addend: 0x0, symName: _ggml_round, symObjAddr: 0x5590, symBinAddr: 0xADB00, symSize: 0x70 }
  - { offset: 0x2A3F96, size: 0x8, addend: 0x0, symName: _ggml_round.cold.1, symObjAddr: 0x15490, symBinAddr: 0x1BF740, symSize: 0x30 }
  - { offset: 0x2A3FDC, size: 0x8, addend: 0x0, symName: _ggml_round_inplace, symObjAddr: 0x5600, symBinAddr: 0xADB70, symSize: 0xA0 }
  - { offset: 0x2A4154, size: 0x8, addend: 0x0, symName: _ggml_round_inplace.cold.1, symObjAddr: 0x154C0, symBinAddr: 0x1BF770, symSize: 0x30 }
  - { offset: 0x2A419A, size: 0x8, addend: 0x0, symName: _ggml_trunc, symObjAddr: 0x56A0, symBinAddr: 0xADC10, symSize: 0x70 }
  - { offset: 0x2A4305, size: 0x8, addend: 0x0, symName: _ggml_trunc.cold.1, symObjAddr: 0x154F0, symBinAddr: 0x1BF7A0, symSize: 0x30 }
  - { offset: 0x2A434B, size: 0x8, addend: 0x0, symName: _ggml_trunc_inplace, symObjAddr: 0x5710, symBinAddr: 0xADC80, symSize: 0xA0 }
  - { offset: 0x2A44C3, size: 0x8, addend: 0x0, symName: _ggml_trunc_inplace.cold.1, symObjAddr: 0x15520, symBinAddr: 0x1BF7D0, symSize: 0x30 }
  - { offset: 0x2A459F, size: 0x8, addend: 0x0, symName: _ggml_glu, symObjAddr: 0x57B0, symBinAddr: 0xADD20, symSize: 0x100 }
  - { offset: 0x2A4766, size: 0x8, addend: 0x0, symName: _ggml_glu.cold.1, symObjAddr: 0x15550, symBinAddr: 0x1BF800, symSize: 0x30 }
  - { offset: 0x2A4795, size: 0x8, addend: 0x0, symName: _ggml_glu_impl, symObjAddr: 0x58B0, symBinAddr: 0xADE20, symSize: 0x1D0 }
  - { offset: 0x2A49ED, size: 0x8, addend: 0x0, symName: _ggml_glu_impl.cold.1, symObjAddr: 0x15580, symBinAddr: 0x1BF830, symSize: 0x30 }
  - { offset: 0x2A4A05, size: 0x8, addend: 0x0, symName: _ggml_glu_impl.cold.2, symObjAddr: 0x155B0, symBinAddr: 0x1BF860, symSize: 0x30 }
  - { offset: 0x2A4A1D, size: 0x8, addend: 0x0, symName: _ggml_glu_impl.cold.3, symObjAddr: 0x155E0, symBinAddr: 0x1BF890, symSize: 0x30 }
  - { offset: 0x2A4A35, size: 0x8, addend: 0x0, symName: _ggml_glu_impl.cold.4, symObjAddr: 0x15610, symBinAddr: 0x1BF8C0, symSize: 0x30 }
  - { offset: 0x2A4A4D, size: 0x8, addend: 0x0, symName: _ggml_glu_split, symObjAddr: 0x5A80, symBinAddr: 0xADFF0, symSize: 0x10 }
  - { offset: 0x2A4ADA, size: 0x8, addend: 0x0, symName: _ggml_reglu, symObjAddr: 0x5A90, symBinAddr: 0xAE000, symSize: 0xF0 }
  - { offset: 0x2A4C64, size: 0x8, addend: 0x0, symName: _ggml_reglu.cold.1, symObjAddr: 0x15640, symBinAddr: 0x1BF8F0, symSize: 0x30 }
  - { offset: 0x2A4C93, size: 0x8, addend: 0x0, symName: _ggml_reglu_swapped, symObjAddr: 0x5B80, symBinAddr: 0xAE0F0, symSize: 0xF0 }
  - { offset: 0x2A4E1D, size: 0x8, addend: 0x0, symName: _ggml_reglu_swapped.cold.1, symObjAddr: 0x15670, symBinAddr: 0x1BF920, symSize: 0x30 }
  - { offset: 0x2A4E4C, size: 0x8, addend: 0x0, symName: _ggml_reglu_split, symObjAddr: 0x5C70, symBinAddr: 0xAE1E0, symSize: 0x10 }
  - { offset: 0x2A4EC8, size: 0x8, addend: 0x0, symName: _ggml_geglu, symObjAddr: 0x5C80, symBinAddr: 0xAE1F0, symSize: 0xF0 }
  - { offset: 0x2A5052, size: 0x8, addend: 0x0, symName: _ggml_geglu.cold.1, symObjAddr: 0x156A0, symBinAddr: 0x1BF950, symSize: 0x30 }
  - { offset: 0x2A5081, size: 0x8, addend: 0x0, symName: _ggml_geglu_swapped, symObjAddr: 0x5D70, symBinAddr: 0xAE2E0, symSize: 0xF0 }
  - { offset: 0x2A520B, size: 0x8, addend: 0x0, symName: _ggml_geglu_swapped.cold.1, symObjAddr: 0x156D0, symBinAddr: 0x1BF980, symSize: 0x30 }
  - { offset: 0x2A523A, size: 0x8, addend: 0x0, symName: _ggml_geglu_split, symObjAddr: 0x5E60, symBinAddr: 0xAE3D0, symSize: 0x20 }
  - { offset: 0x2A52B6, size: 0x8, addend: 0x0, symName: _ggml_swiglu, symObjAddr: 0x5E80, symBinAddr: 0xAE3F0, symSize: 0xF0 }
  - { offset: 0x2A5440, size: 0x8, addend: 0x0, symName: _ggml_swiglu.cold.1, symObjAddr: 0x15700, symBinAddr: 0x1BF9B0, symSize: 0x30 }
  - { offset: 0x2A546F, size: 0x8, addend: 0x0, symName: _ggml_swiglu_swapped, symObjAddr: 0x5F70, symBinAddr: 0xAE4E0, symSize: 0xF0 }
  - { offset: 0x2A55F9, size: 0x8, addend: 0x0, symName: _ggml_swiglu_swapped.cold.1, symObjAddr: 0x15730, symBinAddr: 0x1BF9E0, symSize: 0x30 }
  - { offset: 0x2A5628, size: 0x8, addend: 0x0, symName: _ggml_swiglu_split, symObjAddr: 0x6060, symBinAddr: 0xAE5D0, symSize: 0x20 }
  - { offset: 0x2A56A4, size: 0x8, addend: 0x0, symName: _ggml_geglu_erf, symObjAddr: 0x6080, symBinAddr: 0xAE5F0, symSize: 0xF0 }
  - { offset: 0x2A582E, size: 0x8, addend: 0x0, symName: _ggml_geglu_erf.cold.1, symObjAddr: 0x15760, symBinAddr: 0x1BFA10, symSize: 0x30 }
  - { offset: 0x2A585D, size: 0x8, addend: 0x0, symName: _ggml_geglu_erf_swapped, symObjAddr: 0x6170, symBinAddr: 0xAE6E0, symSize: 0xF0 }
  - { offset: 0x2A59E7, size: 0x8, addend: 0x0, symName: _ggml_geglu_erf_swapped.cold.1, symObjAddr: 0x15790, symBinAddr: 0x1BFA40, symSize: 0x30 }
  - { offset: 0x2A5A16, size: 0x8, addend: 0x0, symName: _ggml_geglu_erf_split, symObjAddr: 0x6260, symBinAddr: 0xAE7D0, symSize: 0x20 }
  - { offset: 0x2A5A92, size: 0x8, addend: 0x0, symName: _ggml_geglu_quick, symObjAddr: 0x6280, symBinAddr: 0xAE7F0, symSize: 0xF0 }
  - { offset: 0x2A5C1C, size: 0x8, addend: 0x0, symName: _ggml_geglu_quick.cold.1, symObjAddr: 0x157C0, symBinAddr: 0x1BFA70, symSize: 0x30 }
  - { offset: 0x2A5C4B, size: 0x8, addend: 0x0, symName: _ggml_geglu_quick_swapped, symObjAddr: 0x6370, symBinAddr: 0xAE8E0, symSize: 0xF0 }
  - { offset: 0x2A5DD5, size: 0x8, addend: 0x0, symName: _ggml_geglu_quick_swapped.cold.1, symObjAddr: 0x157F0, symBinAddr: 0x1BFAA0, symSize: 0x30 }
  - { offset: 0x2A5E04, size: 0x8, addend: 0x0, symName: _ggml_geglu_quick_split, symObjAddr: 0x6460, symBinAddr: 0xAE9D0, symSize: 0x20 }
  - { offset: 0x2A5E80, size: 0x8, addend: 0x0, symName: _ggml_swiglu_oai, symObjAddr: 0x6480, symBinAddr: 0xAE9F0, symSize: 0x40 }
  - { offset: 0x2A5FE1, size: 0x8, addend: 0x0, symName: _ggml_norm, symObjAddr: 0x64C0, symBinAddr: 0xAEA30, symSize: 0x50 }
  - { offset: 0x2A6128, size: 0x8, addend: 0x0, symName: _ggml_norm.cold.1, symObjAddr: 0x15820, symBinAddr: 0x1BFAD0, symSize: 0x30 }
  - { offset: 0x2A616E, size: 0x8, addend: 0x0, symName: _ggml_norm_inplace, symObjAddr: 0x6510, symBinAddr: 0xAEA80, symSize: 0x90 }
  - { offset: 0x2A6311, size: 0x8, addend: 0x0, symName: _ggml_rms_norm, symObjAddr: 0x65A0, symBinAddr: 0xAEB10, symSize: 0x50 }
  - { offset: 0x2A6458, size: 0x8, addend: 0x0, symName: _ggml_rms_norm.cold.1, symObjAddr: 0x15850, symBinAddr: 0x1BFB00, symSize: 0x30 }
  - { offset: 0x2A649E, size: 0x8, addend: 0x0, symName: _ggml_rms_norm_inplace, symObjAddr: 0x65F0, symBinAddr: 0xAEB60, symSize: 0x90 }
  - { offset: 0x2A65F1, size: 0x8, addend: 0x0, symName: _ggml_rms_norm_back, symObjAddr: 0x6680, symBinAddr: 0xAEBF0, symSize: 0x60 }
  - { offset: 0x2A66F1, size: 0x8, addend: 0x0, symName: _ggml_rms_norm_back.cold.1, symObjAddr: 0x15880, symBinAddr: 0x1BFB30, symSize: 0x30 }
  - { offset: 0x2A677D, size: 0x8, addend: 0x0, symName: _ggml_group_norm, symObjAddr: 0x66E0, symBinAddr: 0xAEC50, symSize: 0x50 }
  - { offset: 0x2A6914, size: 0x8, addend: 0x0, symName: _ggml_group_norm_inplace, symObjAddr: 0x6730, symBinAddr: 0xAECA0, symSize: 0xA0 }
  - { offset: 0x2A6B06, size: 0x8, addend: 0x0, symName: _ggml_l2_norm, symObjAddr: 0x67D0, symBinAddr: 0xAED40, symSize: 0x50 }
  - { offset: 0x2A6C5E, size: 0x8, addend: 0x0, symName: _ggml_l2_norm_inplace, symObjAddr: 0x6820, symBinAddr: 0xAED90, symSize: 0x90 }
  - { offset: 0x2A6DFE, size: 0x8, addend: 0x0, symName: _ggml_mul_mat, symObjAddr: 0x68B0, symBinAddr: 0xAEE20, symSize: 0x110 }
  - { offset: 0x2A6F31, size: 0x8, addend: 0x0, symName: _ggml_mul_mat.cold.1, symObjAddr: 0x158B0, symBinAddr: 0x1BFB60, symSize: 0x30 }
  - { offset: 0x2A6F49, size: 0x8, addend: 0x0, symName: _ggml_mul_mat.cold.2, symObjAddr: 0x158E0, symBinAddr: 0x1BFB90, symSize: 0x30 }
  - { offset: 0x2A6F61, size: 0x8, addend: 0x0, symName: _ggml_mul_mat_set_prec, symObjAddr: 0x69C0, symBinAddr: 0xAEF30, symSize: 0x20 }
  - { offset: 0x2A6FE8, size: 0x8, addend: 0x0, symName: _ggml_mul_mat_set_prec.cold.1, symObjAddr: 0x15910, symBinAddr: 0x1BFBC0, symSize: 0x30 }
  - { offset: 0x2A7000, size: 0x8, addend: 0x0, symName: _ggml_mul_mat_set_hint, symObjAddr: 0x69E0, symBinAddr: 0xAEF50, symSize: 0x20 }
  - { offset: 0x2A7087, size: 0x8, addend: 0x0, symName: _ggml_mul_mat_set_hint.cold.1, symObjAddr: 0x15940, symBinAddr: 0x1BFBF0, symSize: 0x30 }
  - { offset: 0x2A709F, size: 0x8, addend: 0x0, symName: _ggml_mul_mat_id, symObjAddr: 0x6A00, symBinAddr: 0xAEF70, symSize: 0x150 }
  - { offset: 0x2A7214, size: 0x8, addend: 0x0, symName: _ggml_mul_mat_id.cold.7, symObjAddr: 0x15A90, symBinAddr: 0x1BFD40, symSize: 0x30 }
  - { offset: 0x2A722C, size: 0x8, addend: 0x0, symName: _ggml_mul_mat_id.cold.4, symObjAddr: 0x15A00, symBinAddr: 0x1BFCB0, symSize: 0x30 }
  - { offset: 0x2A7244, size: 0x8, addend: 0x0, symName: _ggml_mul_mat_id.cold.8, symObjAddr: 0x15AC0, symBinAddr: 0x1BFD70, symSize: 0x30 }
  - { offset: 0x2A725C, size: 0x8, addend: 0x0, symName: _ggml_mul_mat_id.cold.1, symObjAddr: 0x15970, symBinAddr: 0x1BFC20, symSize: 0x30 }
  - { offset: 0x2A7274, size: 0x8, addend: 0x0, symName: _ggml_mul_mat_id.cold.2, symObjAddr: 0x159A0, symBinAddr: 0x1BFC50, symSize: 0x30 }
  - { offset: 0x2A728C, size: 0x8, addend: 0x0, symName: _ggml_mul_mat_id.cold.3, symObjAddr: 0x159D0, symBinAddr: 0x1BFC80, symSize: 0x30 }
  - { offset: 0x2A72A4, size: 0x8, addend: 0x0, symName: _ggml_mul_mat_id.cold.5, symObjAddr: 0x15A30, symBinAddr: 0x1BFCE0, symSize: 0x30 }
  - { offset: 0x2A72BC, size: 0x8, addend: 0x0, symName: _ggml_mul_mat_id.cold.6, symObjAddr: 0x15A60, symBinAddr: 0x1BFD10, symSize: 0x30 }
  - { offset: 0x2A72FD, size: 0x8, addend: 0x0, symName: _ggml_out_prod, symObjAddr: 0x6B50, symBinAddr: 0xAF0C0, symSize: 0x110 }
  - { offset: 0x2A7430, size: 0x8, addend: 0x0, symName: _ggml_out_prod.cold.1, symObjAddr: 0x15AF0, symBinAddr: 0x1BFDA0, symSize: 0x30 }
  - { offset: 0x2A7448, size: 0x8, addend: 0x0, symName: _ggml_out_prod.cold.2, symObjAddr: 0x15B20, symBinAddr: 0x1BFDD0, symSize: 0x30 }
  - { offset: 0x2A74D8, size: 0x8, addend: 0x0, symName: _ggml_scale, symObjAddr: 0x6C60, symBinAddr: 0xAF1D0, symSize: 0x90 }
  - { offset: 0x2A7654, size: 0x8, addend: 0x0, symName: _ggml_scale.cold.1, symObjAddr: 0x15B50, symBinAddr: 0x1BFE00, symSize: 0x30 }
  - { offset: 0x2A7683, size: 0x8, addend: 0x0, symName: _ggml_scale.cold.2, symObjAddr: 0x15B80, symBinAddr: 0x1BFE30, symSize: 0x30 }
  - { offset: 0x2A76C9, size: 0x8, addend: 0x0, symName: _ggml_scale_impl, symObjAddr: 0x6CF0, symBinAddr: 0xAF260, symSize: 0x100 }
  - { offset: 0x2A788D, size: 0x8, addend: 0x0, symName: _ggml_scale_impl.cold.1, symObjAddr: 0x15BB0, symBinAddr: 0x1BFE60, symSize: 0x30 }
  - { offset: 0x2A78A5, size: 0x8, addend: 0x0, symName: _ggml_scale_impl.cold.2, symObjAddr: 0x15BE0, symBinAddr: 0x1BFE90, symSize: 0x30 }
  - { offset: 0x2A78D4, size: 0x8, addend: 0x0, symName: _ggml_scale_inplace, symObjAddr: 0x6DF0, symBinAddr: 0xAF360, symSize: 0x20 }
  - { offset: 0x2A794A, size: 0x8, addend: 0x0, symName: _ggml_scale_bias, symObjAddr: 0x6E10, symBinAddr: 0xAF380, symSize: 0xA0 }
  - { offset: 0x2A7AF5, size: 0x8, addend: 0x0, symName: _ggml_scale_bias.cold.1, symObjAddr: 0x15C10, symBinAddr: 0x1BFEC0, symSize: 0x30 }
  - { offset: 0x2A7B24, size: 0x8, addend: 0x0, symName: _ggml_scale_bias.cold.2, symObjAddr: 0x15C40, symBinAddr: 0x1BFEF0, symSize: 0x30 }
  - { offset: 0x2A7B6A, size: 0x8, addend: 0x0, symName: _ggml_scale_bias_inplace, symObjAddr: 0x6EB0, symBinAddr: 0xAF420, symSize: 0x10 }
  - { offset: 0x2A7BF7, size: 0x8, addend: 0x0, symName: _ggml_set, symObjAddr: 0x6EC0, symBinAddr: 0xAF430, symSize: 0x20 }
  - { offset: 0x2A7CC8, size: 0x8, addend: 0x0, symName: _ggml_set_impl, symObjAddr: 0x6EE0, symBinAddr: 0xAF450, symSize: 0x120 }
  - { offset: 0x2A7F07, size: 0x8, addend: 0x0, symName: _ggml_set_impl.cold.3, symObjAddr: 0x15CD0, symBinAddr: 0x1BFF80, symSize: 0x30 }
  - { offset: 0x2A7F1F, size: 0x8, addend: 0x0, symName: _ggml_set_impl.cold.1, symObjAddr: 0x15C70, symBinAddr: 0x1BFF20, symSize: 0x30 }
  - { offset: 0x2A7F37, size: 0x8, addend: 0x0, symName: _ggml_set_impl.cold.2, symObjAddr: 0x15CA0, symBinAddr: 0x1BFF50, symSize: 0x30 }
  - { offset: 0x2A7F66, size: 0x8, addend: 0x0, symName: _ggml_set_inplace, symObjAddr: 0x7000, symBinAddr: 0xAF570, symSize: 0x20 }
  - { offset: 0x2A8037, size: 0x8, addend: 0x0, symName: _ggml_set_1d, symObjAddr: 0x7020, symBinAddr: 0xAF590, symSize: 0x30 }
  - { offset: 0x2A80BE, size: 0x8, addend: 0x0, symName: _ggml_set_1d_inplace, symObjAddr: 0x7050, symBinAddr: 0xAF5C0, symSize: 0x30 }
  - { offset: 0x2A8145, size: 0x8, addend: 0x0, symName: _ggml_set_2d, symObjAddr: 0x7080, symBinAddr: 0xAF5F0, symSize: 0x20 }
  - { offset: 0x2A81E5, size: 0x8, addend: 0x0, symName: _ggml_set_2d_inplace, symObjAddr: 0x70A0, symBinAddr: 0xAF610, symSize: 0x20 }
  - { offset: 0x2A82C8, size: 0x8, addend: 0x0, symName: _ggml_cpy, symObjAddr: 0x70C0, symBinAddr: 0xAF630, symSize: 0x100 }
  - { offset: 0x2A8455, size: 0x8, addend: 0x0, symName: _ggml_cpy.cold.1, symObjAddr: 0x15D00, symBinAddr: 0x1BFFB0, symSize: 0x30 }
  - { offset: 0x2A8484, size: 0x8, addend: 0x0, symName: _ggml_cast, symObjAddr: 0x71C0, symBinAddr: 0xAF730, symSize: 0x60 }
  - { offset: 0x2A859E, size: 0x8, addend: 0x0, symName: _ggml_cont, symObjAddr: 0x7220, symBinAddr: 0xAF790, symSize: 0x60 }
  - { offset: 0x2A8710, size: 0x8, addend: 0x0, symName: _ggml_cont_1d, symObjAddr: 0x7280, symBinAddr: 0xAF7F0, symSize: 0xC0 }
  - { offset: 0x2A88A5, size: 0x8, addend: 0x0, symName: _ggml_cont_1d.cold.1, symObjAddr: 0x15D30, symBinAddr: 0x1BFFE0, symSize: 0x30 }
  - { offset: 0x2A88D4, size: 0x8, addend: 0x0, symName: _ggml_cont_4d, symObjAddr: 0x7340, symBinAddr: 0xAF8B0, symSize: 0xC0 }
  - { offset: 0x2A8A33, size: 0x8, addend: 0x0, symName: _ggml_cont_4d.cold.1, symObjAddr: 0x15D60, symBinAddr: 0x1C0010, symSize: 0x30 }
  - { offset: 0x2A8A4B, size: 0x8, addend: 0x0, symName: _ggml_cont_2d, symObjAddr: 0x7400, symBinAddr: 0xAF970, symSize: 0xC0 }
  - { offset: 0x2A8BF4, size: 0x8, addend: 0x0, symName: _ggml_cont_2d.cold.1, symObjAddr: 0x15D90, symBinAddr: 0x1C0040, symSize: 0x30 }
  - { offset: 0x2A8C23, size: 0x8, addend: 0x0, symName: _ggml_cont_3d, symObjAddr: 0x74C0, symBinAddr: 0xAFA30, symSize: 0xC0 }
  - { offset: 0x2A8DE0, size: 0x8, addend: 0x0, symName: _ggml_cont_3d.cold.1, symObjAddr: 0x15DC0, symBinAddr: 0x1C0070, symSize: 0x30 }
  - { offset: 0x2A8E0F, size: 0x8, addend: 0x0, symName: _ggml_reshape, symObjAddr: 0x7580, symBinAddr: 0xAFAF0, symSize: 0x120 }
  - { offset: 0x2A8F9B, size: 0x8, addend: 0x0, symName: _ggml_reshape.cold.1, symObjAddr: 0x15DF0, symBinAddr: 0x1C00A0, symSize: 0x30 }
  - { offset: 0x2A8FB3, size: 0x8, addend: 0x0, symName: _ggml_reshape.cold.2, symObjAddr: 0x15E20, symBinAddr: 0x1C00D0, symSize: 0x30 }
  - { offset: 0x2A8FCB, size: 0x8, addend: 0x0, symName: _ggml_reshape_1d, symObjAddr: 0x76A0, symBinAddr: 0xAFC10, symSize: 0x140 }
  - { offset: 0x2A915D, size: 0x8, addend: 0x0, symName: _ggml_reshape_1d.cold.1, symObjAddr: 0x15E50, symBinAddr: 0x1C0100, symSize: 0x30 }
  - { offset: 0x2A9175, size: 0x8, addend: 0x0, symName: _ggml_reshape_1d.cold.2, symObjAddr: 0x15E80, symBinAddr: 0x1C0130, symSize: 0x30 }
  - { offset: 0x2A918D, size: 0x8, addend: 0x0, symName: _ggml_reshape_2d, symObjAddr: 0x77E0, symBinAddr: 0xAFD50, symSize: 0x150 }
  - { offset: 0x2A9330, size: 0x8, addend: 0x0, symName: _ggml_reshape_2d.cold.1, symObjAddr: 0x15EB0, symBinAddr: 0x1C0160, symSize: 0x30 }
  - { offset: 0x2A9348, size: 0x8, addend: 0x0, symName: _ggml_reshape_2d.cold.2, symObjAddr: 0x15EE0, symBinAddr: 0x1C0190, symSize: 0x30 }
  - { offset: 0x2A9360, size: 0x8, addend: 0x0, symName: _ggml_reshape_3d, symObjAddr: 0x7930, symBinAddr: 0xAFEA0, symSize: 0x150 }
  - { offset: 0x2A9514, size: 0x8, addend: 0x0, symName: _ggml_reshape_3d.cold.1, symObjAddr: 0x15F10, symBinAddr: 0x1C01C0, symSize: 0x30 }
  - { offset: 0x2A952C, size: 0x8, addend: 0x0, symName: _ggml_reshape_3d.cold.2, symObjAddr: 0x15F40, symBinAddr: 0x1C01F0, symSize: 0x30 }
  - { offset: 0x2A9544, size: 0x8, addend: 0x0, symName: _ggml_reshape_4d, symObjAddr: 0x7A80, symBinAddr: 0xAFFF0, symSize: 0x160 }
  - { offset: 0x2A9709, size: 0x8, addend: 0x0, symName: _ggml_reshape_4d.cold.1, symObjAddr: 0x15F70, symBinAddr: 0x1C0220, symSize: 0x30 }
  - { offset: 0x2A9721, size: 0x8, addend: 0x0, symName: _ggml_reshape_4d.cold.2, symObjAddr: 0x15FA0, symBinAddr: 0x1C0250, symSize: 0x30 }
  - { offset: 0x2A9796, size: 0x8, addend: 0x0, symName: _ggml_view_1d, symObjAddr: 0x7BE0, symBinAddr: 0xB0150, symSize: 0x70 }
  - { offset: 0x2A98BB, size: 0x8, addend: 0x0, symName: _ggml_view_2d, symObjAddr: 0x7C50, symBinAddr: 0xB01C0, symSize: 0xC0 }
  - { offset: 0x2A98C6, size: 0x8, addend: 0x0, symName: _ggml_view_1d.cold.1, symObjAddr: 0x15FD0, symBinAddr: 0x1C0280, symSize: 0x30 }
  - { offset: 0x2A990C, size: 0x8, addend: 0x0, symName: _ggml_view_2d, symObjAddr: 0x7C50, symBinAddr: 0xB01C0, symSize: 0xC0 }
  - { offset: 0x2A9A75, size: 0x8, addend: 0x0, symName: _ggml_view_2d.cold.1, symObjAddr: 0x16000, symBinAddr: 0x1C02B0, symSize: 0x30 }
  - { offset: 0x2A9ABB, size: 0x8, addend: 0x0, symName: _ggml_view_3d, symObjAddr: 0x7D10, symBinAddr: 0xB0280, symSize: 0xD0 }
  - { offset: 0x2A9C45, size: 0x8, addend: 0x0, symName: _ggml_view_3d.cold.1, symObjAddr: 0x16030, symBinAddr: 0x1C02E0, symSize: 0x30 }
  - { offset: 0x2A9C8B, size: 0x8, addend: 0x0, symName: _ggml_view_4d, symObjAddr: 0x7DE0, symBinAddr: 0xB0350, symSize: 0xC0 }
  - { offset: 0x2A9DD8, size: 0x8, addend: 0x0, symName: _ggml_view_4d.cold.1, symObjAddr: 0x16060, symBinAddr: 0x1C0310, symSize: 0x30 }
  - { offset: 0x2A9E1E, size: 0x8, addend: 0x0, symName: _ggml_permute, symObjAddr: 0x7EA0, symBinAddr: 0xB0410, symSize: 0x220 }
  - { offset: 0x2A9FF4, size: 0x8, addend: 0x0, symName: _ggml_permute.cold.1, symObjAddr: 0x16090, symBinAddr: 0x1C0340, symSize: 0x30 }
  - { offset: 0x2AA00C, size: 0x8, addend: 0x0, symName: _ggml_permute.cold.2, symObjAddr: 0x160C0, symBinAddr: 0x1C0370, symSize: 0x30 }
  - { offset: 0x2AA024, size: 0x8, addend: 0x0, symName: _ggml_permute.cold.3, symObjAddr: 0x160F0, symBinAddr: 0x1C03A0, symSize: 0x30 }
  - { offset: 0x2AA03C, size: 0x8, addend: 0x0, symName: _ggml_permute.cold.4, symObjAddr: 0x16120, symBinAddr: 0x1C03D0, symSize: 0x30 }
  - { offset: 0x2AA054, size: 0x8, addend: 0x0, symName: _ggml_permute.cold.10, symObjAddr: 0x16240, symBinAddr: 0x1C04F0, symSize: 0x30 }
  - { offset: 0x2AA06C, size: 0x8, addend: 0x0, symName: _ggml_permute.cold.9, symObjAddr: 0x16210, symBinAddr: 0x1C04C0, symSize: 0x30 }
  - { offset: 0x2AA084, size: 0x8, addend: 0x0, symName: _ggml_permute.cold.8, symObjAddr: 0x161E0, symBinAddr: 0x1C0490, symSize: 0x30 }
  - { offset: 0x2AA09C, size: 0x8, addend: 0x0, symName: _ggml_permute.cold.7, symObjAddr: 0x161B0, symBinAddr: 0x1C0460, symSize: 0x30 }
  - { offset: 0x2AA0B4, size: 0x8, addend: 0x0, symName: _ggml_permute.cold.6, symObjAddr: 0x16180, symBinAddr: 0x1C0430, symSize: 0x30 }
  - { offset: 0x2AA0CC, size: 0x8, addend: 0x0, symName: _ggml_permute.cold.5, symObjAddr: 0x16150, symBinAddr: 0x1C0400, symSize: 0x30 }
  - { offset: 0x2AA0E4, size: 0x8, addend: 0x0, symName: _ggml_transpose, symObjAddr: 0x80C0, symBinAddr: 0xB0630, symSize: 0xC0 }
  - { offset: 0x2AA1CB, size: 0x8, addend: 0x0, symName: _ggml_get_rows, symObjAddr: 0x8180, symBinAddr: 0xB06F0, symSize: 0xD0 }
  - { offset: 0x2AA318, size: 0x8, addend: 0x0, symName: _ggml_get_rows.cold.1, symObjAddr: 0x16270, symBinAddr: 0x1C0520, symSize: 0x30 }
  - { offset: 0x2AA330, size: 0x8, addend: 0x0, symName: _ggml_get_rows.cold.2, symObjAddr: 0x162A0, symBinAddr: 0x1C0550, symSize: 0x30 }
  - { offset: 0x2AA348, size: 0x8, addend: 0x0, symName: _ggml_get_rows.cold.3, symObjAddr: 0x162D0, symBinAddr: 0x1C0580, symSize: 0x30 }
  - { offset: 0x2AA360, size: 0x8, addend: 0x0, symName: _ggml_get_rows.cold.4, symObjAddr: 0x16300, symBinAddr: 0x1C05B0, symSize: 0x30 }
  - { offset: 0x2AA3F2, size: 0x8, addend: 0x0, symName: _ggml_get_rows_back, symObjAddr: 0x8250, symBinAddr: 0xB07C0, symSize: 0xD0 }
  - { offset: 0x2AA57C, size: 0x8, addend: 0x0, symName: _ggml_get_rows_back.cold.1, symObjAddr: 0x16330, symBinAddr: 0x1C05E0, symSize: 0x30 }
  - { offset: 0x2AA594, size: 0x8, addend: 0x0, symName: _ggml_get_rows_back.cold.2, symObjAddr: 0x16360, symBinAddr: 0x1C0610, symSize: 0x30 }
  - { offset: 0x2AA5AC, size: 0x8, addend: 0x0, symName: _ggml_set_rows, symObjAddr: 0x8320, symBinAddr: 0xB0890, symSize: 0x1C0 }
  - { offset: 0x2AA79B, size: 0x8, addend: 0x0, symName: _ggml_set_rows.cold.5, symObjAddr: 0x16450, symBinAddr: 0x1C0700, symSize: 0x30 }
  - { offset: 0x2AA7B3, size: 0x8, addend: 0x0, symName: _ggml_set_rows.cold.6, symObjAddr: 0x16480, symBinAddr: 0x1C0730, symSize: 0x30 }
  - { offset: 0x2AA7CB, size: 0x8, addend: 0x0, symName: _ggml_set_rows.cold.1, symObjAddr: 0x16390, symBinAddr: 0x1C0640, symSize: 0x30 }
  - { offset: 0x2AA7E3, size: 0x8, addend: 0x0, symName: _ggml_set_rows.cold.2, symObjAddr: 0x163C0, symBinAddr: 0x1C0670, symSize: 0x30 }
  - { offset: 0x2AA7FB, size: 0x8, addend: 0x0, symName: _ggml_set_rows.cold.3, symObjAddr: 0x163F0, symBinAddr: 0x1C06A0, symSize: 0x30 }
  - { offset: 0x2AA813, size: 0x8, addend: 0x0, symName: _ggml_set_rows.cold.4, symObjAddr: 0x16420, symBinAddr: 0x1C06D0, symSize: 0x30 }
  - { offset: 0x2AA82B, size: 0x8, addend: 0x0, symName: _ggml_set_rows.cold.7, symObjAddr: 0x164B0, symBinAddr: 0x1C0760, symSize: 0x30 }
  - { offset: 0x2AA843, size: 0x8, addend: 0x0, symName: _ggml_set_rows.cold.8, symObjAddr: 0x164E0, symBinAddr: 0x1C0790, symSize: 0x30 }
  - { offset: 0x2AA85B, size: 0x8, addend: 0x0, symName: _ggml_set_rows.cold.9, symObjAddr: 0x16510, symBinAddr: 0x1C07C0, symSize: 0x30 }
  - { offset: 0x2AA873, size: 0x8, addend: 0x0, symName: _ggml_set_rows.cold.10, symObjAddr: 0x16540, symBinAddr: 0x1C07F0, symSize: 0x30 }
  - { offset: 0x2AA88B, size: 0x8, addend: 0x0, symName: _ggml_set_rows.cold.11, symObjAddr: 0x16570, symBinAddr: 0x1C0820, symSize: 0x30 }
  - { offset: 0x2AA8A3, size: 0x8, addend: 0x0, symName: _ggml_diag, symObjAddr: 0x84E0, symBinAddr: 0xB0A50, symSize: 0x80 }
  - { offset: 0x2AA970, size: 0x8, addend: 0x0, symName: _ggml_diag.cold.1, symObjAddr: 0x165A0, symBinAddr: 0x1C0850, symSize: 0x30 }
  - { offset: 0x2AA9F3, size: 0x8, addend: 0x0, symName: _ggml_diag_mask_inf, symObjAddr: 0x8560, symBinAddr: 0xB0AD0, symSize: 0x50 }
  - { offset: 0x2AAB3B, size: 0x8, addend: 0x0, symName: _ggml_diag_mask_inf.cold.1, symObjAddr: 0x165D0, symBinAddr: 0x1C0880, symSize: 0x30 }
  - { offset: 0x2AAB81, size: 0x8, addend: 0x0, symName: _ggml_diag_mask_inf_inplace, symObjAddr: 0x85B0, symBinAddr: 0xB0B20, symSize: 0x90 }
  - { offset: 0x2AAD39, size: 0x8, addend: 0x0, symName: _ggml_diag_mask_zero, symObjAddr: 0x8640, symBinAddr: 0xB0BB0, symSize: 0x50 }
  - { offset: 0x2AAE81, size: 0x8, addend: 0x0, symName: _ggml_diag_mask_zero.cold.1, symObjAddr: 0x16600, symBinAddr: 0x1C08B0, symSize: 0x30 }
  - { offset: 0x2AAEC7, size: 0x8, addend: 0x0, symName: _ggml_diag_mask_zero_inplace, symObjAddr: 0x8690, symBinAddr: 0xB0C00, symSize: 0x90 }
  - { offset: 0x2AB022, size: 0x8, addend: 0x0, symName: _ggml_soft_max, symObjAddr: 0x8720, symBinAddr: 0xB0C90, symSize: 0x20 }
  - { offset: 0x2AB087, size: 0x8, addend: 0x0, symName: _ggml_soft_max_impl, symObjAddr: 0x8740, symBinAddr: 0xB0CB0, symSize: 0x2C0 }
  - { offset: 0x2AB3F4, size: 0x8, addend: 0x0, symName: _ggml_soft_max_impl.cold.8, symObjAddr: 0x16780, symBinAddr: 0x1C0A30, symSize: 0x30 }
  - { offset: 0x2AB40C, size: 0x8, addend: 0x0, symName: _ggml_soft_max_impl.cold.5, symObjAddr: 0x166F0, symBinAddr: 0x1C09A0, symSize: 0x30 }
  - { offset: 0x2AB424, size: 0x8, addend: 0x0, symName: _ggml_soft_max_impl.cold.6, symObjAddr: 0x16720, symBinAddr: 0x1C09D0, symSize: 0x30 }
  - { offset: 0x2AB43C, size: 0x8, addend: 0x0, symName: _ggml_soft_max_impl.cold.1, symObjAddr: 0x16630, symBinAddr: 0x1C08E0, symSize: 0x30 }
  - { offset: 0x2AB454, size: 0x8, addend: 0x0, symName: _ggml_soft_max_impl.cold.3, symObjAddr: 0x16690, symBinAddr: 0x1C0940, symSize: 0x30 }
  - { offset: 0x2AB46C, size: 0x8, addend: 0x0, symName: _ggml_soft_max_impl.cold.2, symObjAddr: 0x16660, symBinAddr: 0x1C0910, symSize: 0x30 }
  - { offset: 0x2AB484, size: 0x8, addend: 0x0, symName: _ggml_soft_max_impl.cold.4, symObjAddr: 0x166C0, symBinAddr: 0x1C0970, symSize: 0x30 }
  - { offset: 0x2AB49C, size: 0x8, addend: 0x0, symName: _ggml_soft_max_impl.cold.7, symObjAddr: 0x16750, symBinAddr: 0x1C0A00, symSize: 0x30 }
  - { offset: 0x2AB4B4, size: 0x8, addend: 0x0, symName: _ggml_soft_max_impl.cold.9, symObjAddr: 0x167B0, symBinAddr: 0x1C0A60, symSize: 0x30 }
  - { offset: 0x2AB4E3, size: 0x8, addend: 0x0, symName: _ggml_soft_max_inplace, symObjAddr: 0x8A00, symBinAddr: 0xB0F70, symSize: 0x20 }
  - { offset: 0x2AB548, size: 0x8, addend: 0x0, symName: _ggml_soft_max_ext, symObjAddr: 0x8A20, symBinAddr: 0xB0F90, symSize: 0x10 }
  - { offset: 0x2AB5EC, size: 0x8, addend: 0x0, symName: _ggml_soft_max_ext_inplace, symObjAddr: 0x8A30, symBinAddr: 0xB0FA0, symSize: 0x10 }
  - { offset: 0x2AB690, size: 0x8, addend: 0x0, symName: _ggml_soft_max_add_sinks, symObjAddr: 0x8A40, symBinAddr: 0xB0FB0, symSize: 0x60 }
  - { offset: 0x2AB702, size: 0x8, addend: 0x0, symName: _ggml_soft_max_add_sinks.cold.1, symObjAddr: 0x167E0, symBinAddr: 0x1C0A90, symSize: 0x30 }
  - { offset: 0x2AB71A, size: 0x8, addend: 0x0, symName: _ggml_soft_max_add_sinks.cold.2, symObjAddr: 0x16810, symBinAddr: 0x1C0AC0, symSize: 0x30 }
  - { offset: 0x2AB732, size: 0x8, addend: 0x0, symName: _ggml_soft_max_add_sinks.cold.3, symObjAddr: 0x16840, symBinAddr: 0x1C0AF0, symSize: 0x30 }
  - { offset: 0x2AB74A, size: 0x8, addend: 0x0, symName: _ggml_soft_max_add_sinks.cold.4, symObjAddr: 0x16870, symBinAddr: 0x1C0B20, symSize: 0x30 }
  - { offset: 0x2AB7CC, size: 0x8, addend: 0x0, symName: _ggml_soft_max_ext_back, symObjAddr: 0x8AA0, symBinAddr: 0xB1010, symSize: 0x70 }
  - { offset: 0x2AB8F8, size: 0x8, addend: 0x0, symName: _ggml_soft_max_ext_back_inplace, symObjAddr: 0x8B10, symBinAddr: 0xB1080, symSize: 0xB0 }
  - { offset: 0x2ABA59, size: 0x8, addend: 0x0, symName: _ggml_rope, symObjAddr: 0x8BC0, symBinAddr: 0xB1130, symSize: 0x40 }
  - { offset: 0x2ABB05, size: 0x8, addend: 0x0, symName: _ggml_rope_impl, symObjAddr: 0x8C00, symBinAddr: 0xB1170, symSize: 0x240 }
  - { offset: 0x2ABDEF, size: 0x8, addend: 0x0, symName: _ggml_rope_impl.cold.5, symObjAddr: 0x16960, symBinAddr: 0x1C0C10, symSize: 0x30 }
  - { offset: 0x2ABE07, size: 0x8, addend: 0x0, symName: _ggml_rope_impl.cold.2, symObjAddr: 0x168D0, symBinAddr: 0x1C0B80, symSize: 0x30 }
  - { offset: 0x2ABE1F, size: 0x8, addend: 0x0, symName: _ggml_rope_impl.cold.1, symObjAddr: 0x168A0, symBinAddr: 0x1C0B50, symSize: 0x30 }
  - { offset: 0x2ABE37, size: 0x8, addend: 0x0, symName: _ggml_rope_impl.cold.3, symObjAddr: 0x16900, symBinAddr: 0x1C0BB0, symSize: 0x30 }
  - { offset: 0x2ABE4F, size: 0x8, addend: 0x0, symName: _ggml_rope_impl.cold.8, symObjAddr: 0x169F0, symBinAddr: 0x1C0CA0, symSize: 0x30 }
  - { offset: 0x2ABE7E, size: 0x8, addend: 0x0, symName: _ggml_rope_impl.cold.6, symObjAddr: 0x16990, symBinAddr: 0x1C0C40, symSize: 0x30 }
  - { offset: 0x2ABE96, size: 0x8, addend: 0x0, symName: _ggml_rope_impl.cold.7, symObjAddr: 0x169C0, symBinAddr: 0x1C0C70, symSize: 0x30 }
  - { offset: 0x2ABEAE, size: 0x8, addend: 0x0, symName: _ggml_rope_impl.cold.4, symObjAddr: 0x16930, symBinAddr: 0x1C0BE0, symSize: 0x30 }
  - { offset: 0x2ABEC6, size: 0x8, addend: 0x0, symName: _ggml_rope_multi, symObjAddr: 0x8E40, symBinAddr: 0xB13B0, symSize: 0x20 }
  - { offset: 0x2ABFD4, size: 0x8, addend: 0x0, symName: _ggml_rope_multi_inplace, symObjAddr: 0x8E60, symBinAddr: 0xB13D0, symSize: 0x20 }
  - { offset: 0x2AC14B, size: 0x8, addend: 0x0, symName: _ggml_rope_inplace, symObjAddr: 0x8E80, symBinAddr: 0xB13F0, symSize: 0x40 }
  - { offset: 0x2AC1F7, size: 0x8, addend: 0x0, symName: _ggml_rope_ext, symObjAddr: 0x8EC0, symBinAddr: 0xB1430, symSize: 0x30 }
  - { offset: 0x2AC2FA, size: 0x8, addend: 0x0, symName: _ggml_rope_ext_inplace, symObjAddr: 0x8EF0, symBinAddr: 0xB1460, symSize: 0x30 }
  - { offset: 0x2AC45F, size: 0x8, addend: 0x0, symName: _ggml_rope_custom, symObjAddr: 0x8F20, symBinAddr: 0xB1490, symSize: 0x30 }
  - { offset: 0x2AC5B2, size: 0x8, addend: 0x0, symName: _ggml_rope_custom_inplace, symObjAddr: 0x8F50, symBinAddr: 0xB14C0, symSize: 0x30 }
  - { offset: 0x2AC748, size: 0x8, addend: 0x0, symName: _ggml_rope_yarn_corr_dims, symObjAddr: 0x8F80, symBinAddr: 0xB14F0, symSize: 0xE0 }
  - { offset: 0x2AC905, size: 0x8, addend: 0x0, symName: _ggml_rope_ext_back, symObjAddr: 0x9060, symBinAddr: 0xB15D0, symSize: 0x30 }
  - { offset: 0x2ACBD8, size: 0x8, addend: 0x0, symName: _ggml_rope_multi_back, symObjAddr: 0x9090, symBinAddr: 0xB1600, symSize: 0x30 }
  - { offset: 0x2ACE01, size: 0x8, addend: 0x0, symName: _ggml_clamp, symObjAddr: 0x90C0, symBinAddr: 0xB1630, symSize: 0xA0 }
  - { offset: 0x2ACF91, size: 0x8, addend: 0x0, symName: _ggml_im2col, symObjAddr: 0x9160, symBinAddr: 0xB16D0, symSize: 0x1E0 }
  - { offset: 0x2AD1F0, size: 0x8, addend: 0x0, symName: _ggml_im2col.cold.6, symObjAddr: 0x16B10, symBinAddr: 0x1C0DC0, symSize: 0x30 }
  - { offset: 0x2AD208, size: 0x8, addend: 0x0, symName: _ggml_im2col.cold.4, symObjAddr: 0x16AB0, symBinAddr: 0x1C0D60, symSize: 0x30 }
  - { offset: 0x2AD220, size: 0x8, addend: 0x0, symName: _ggml_im2col.cold.5, symObjAddr: 0x16AE0, symBinAddr: 0x1C0D90, symSize: 0x30 }
  - { offset: 0x2AD24F, size: 0x8, addend: 0x0, symName: _ggml_im2col.cold.3, symObjAddr: 0x16A80, symBinAddr: 0x1C0D30, symSize: 0x30 }
  - { offset: 0x2AD267, size: 0x8, addend: 0x0, symName: _ggml_im2col.cold.1, symObjAddr: 0x16A20, symBinAddr: 0x1C0CD0, symSize: 0x30 }
  - { offset: 0x2AD27F, size: 0x8, addend: 0x0, symName: _ggml_im2col.cold.2, symObjAddr: 0x16A50, symBinAddr: 0x1C0D00, symSize: 0x30 }
  - { offset: 0x2AD297, size: 0x8, addend: 0x0, symName: _ggml_im2col_back, symObjAddr: 0x9340, symBinAddr: 0xB18B0, symSize: 0x80 }
  - { offset: 0x2AD3BE, size: 0x8, addend: 0x0, symName: _ggml_im2col_back.cold.1, symObjAddr: 0x16B40, symBinAddr: 0x1C0DF0, symSize: 0x30 }
  - { offset: 0x2AD3ED, size: 0x8, addend: 0x0, symName: _ggml_conv_1d, symObjAddr: 0x93C0, symBinAddr: 0xB1930, symSize: 0xA0 }
  - { offset: 0x2AD564, size: 0x8, addend: 0x0, symName: _ggml_conv_1d_ph, symObjAddr: 0x9460, symBinAddr: 0xB19D0, symSize: 0xB0 }
  - { offset: 0x2AD6CE, size: 0x8, addend: 0x0, symName: _ggml_conv_1d_dw, symObjAddr: 0x9510, symBinAddr: 0xB1A80, symSize: 0xA0 }
  - { offset: 0x2AD849, size: 0x8, addend: 0x0, symName: _ggml_conv_1d_dw_ph, symObjAddr: 0x95B0, symBinAddr: 0xB1B20, symSize: 0xB0 }
  - { offset: 0x2AD9B3, size: 0x8, addend: 0x0, symName: _ggml_col2im_1d, symObjAddr: 0x9660, symBinAddr: 0xB1BD0, symSize: 0x1E0 }
  - { offset: 0x2ADC57, size: 0x8, addend: 0x0, symName: _ggml_col2im_1d.cold.6, symObjAddr: 0x16C60, symBinAddr: 0x1C0F10, symSize: 0x30 }
  - { offset: 0x2ADC6F, size: 0x8, addend: 0x0, symName: _ggml_col2im_1d.cold.2, symObjAddr: 0x16BA0, symBinAddr: 0x1C0E50, symSize: 0x30 }
  - { offset: 0x2ADC87, size: 0x8, addend: 0x0, symName: _ggml_col2im_1d.cold.1, symObjAddr: 0x16B70, symBinAddr: 0x1C0E20, symSize: 0x30 }
  - { offset: 0x2ADC9F, size: 0x8, addend: 0x0, symName: _ggml_col2im_1d.cold.3, symObjAddr: 0x16BD0, symBinAddr: 0x1C0E80, symSize: 0x30 }
  - { offset: 0x2ADCB7, size: 0x8, addend: 0x0, symName: _ggml_col2im_1d.cold.4, symObjAddr: 0x16C00, symBinAddr: 0x1C0EB0, symSize: 0x30 }
  - { offset: 0x2ADCCF, size: 0x8, addend: 0x0, symName: _ggml_col2im_1d.cold.5, symObjAddr: 0x16C30, symBinAddr: 0x1C0EE0, symSize: 0x30 }
  - { offset: 0x2ADCE7, size: 0x8, addend: 0x0, symName: _ggml_col2im_1d.cold.7, symObjAddr: 0x16C90, symBinAddr: 0x1C0F40, symSize: 0x30 }
  - { offset: 0x2ADCFF, size: 0x8, addend: 0x0, symName: _ggml_col2im_1d.cold.8, symObjAddr: 0x16CC0, symBinAddr: 0x1C0F70, symSize: 0x30 }
  - { offset: 0x2ADD2E, size: 0x8, addend: 0x0, symName: _ggml_col2im_1d.cold.9, symObjAddr: 0x16CF0, symBinAddr: 0x1C0FA0, symSize: 0x30 }
  - { offset: 0x2ADD96, size: 0x8, addend: 0x0, symName: _ggml_conv_transpose_1d, symObjAddr: 0x9840, symBinAddr: 0xB1DB0, symSize: 0x120 }
  - { offset: 0x2ADF7E, size: 0x8, addend: 0x0, symName: _ggml_conv_transpose_1d.cold.1, symObjAddr: 0x16D20, symBinAddr: 0x1C0FD0, symSize: 0x30 }
  - { offset: 0x2ADF96, size: 0x8, addend: 0x0, symName: _ggml_conv_transpose_1d.cold.2, symObjAddr: 0x16D50, symBinAddr: 0x1C1000, symSize: 0x30 }
  - { offset: 0x2ADFAE, size: 0x8, addend: 0x0, symName: _ggml_conv_transpose_1d.cold.3, symObjAddr: 0x16D80, symBinAddr: 0x1C1030, symSize: 0x30 }
  - { offset: 0x2ADFC6, size: 0x8, addend: 0x0, symName: _ggml_conv_transpose_1d.cold.4, symObjAddr: 0x16DB0, symBinAddr: 0x1C1060, symSize: 0x30 }
  - { offset: 0x2ADFDE, size: 0x8, addend: 0x0, symName: _ggml_conv_transpose_1d.cold.5, symObjAddr: 0x16DE0, symBinAddr: 0x1C1090, symSize: 0x30 }
  - { offset: 0x2ADFF6, size: 0x8, addend: 0x0, symName: _ggml_conv_transpose_1d.cold.6, symObjAddr: 0x16E10, symBinAddr: 0x1C10C0, symSize: 0x30 }
  - { offset: 0x2AE0FB, size: 0x8, addend: 0x0, symName: _ggml_conv_2d, symObjAddr: 0x9960, symBinAddr: 0xB1ED0, symSize: 0x210 }
  - { offset: 0x2AE497, size: 0x8, addend: 0x0, symName: _ggml_im2col_3d, symObjAddr: 0x9B70, symBinAddr: 0xB20E0, symSize: 0x220 }
  - { offset: 0x2AE7EB, size: 0x8, addend: 0x0, symName: _ggml_im2col_3d.cold.1, symObjAddr: 0x16E40, symBinAddr: 0x1C10F0, symSize: 0x30 }
  - { offset: 0x2AE803, size: 0x8, addend: 0x0, symName: _ggml_im2col_3d.cold.2, symObjAddr: 0x16E70, symBinAddr: 0x1C1120, symSize: 0x30 }
  - { offset: 0x2AE81B, size: 0x8, addend: 0x0, symName: _ggml_im2col_3d.cold.3, symObjAddr: 0x16EA0, symBinAddr: 0x1C1150, symSize: 0x30 }
  - { offset: 0x2AE833, size: 0x8, addend: 0x0, symName: _ggml_im2col_3d.cold.4, symObjAddr: 0x16ED0, symBinAddr: 0x1C1180, symSize: 0x30 }
  - { offset: 0x2AE862, size: 0x8, addend: 0x0, symName: _ggml_conv_3d, symObjAddr: 0x9D90, symBinAddr: 0xB2300, symSize: 0x2D0 }
  - { offset: 0x2AEC9C, size: 0x8, addend: 0x0, symName: _ggml_conv_2d_sk_p0, symObjAddr: 0xA060, symBinAddr: 0xB25D0, symSize: 0x30 }
  - { offset: 0x2AED18, size: 0x8, addend: 0x0, symName: _ggml_conv_2d_s1_ph, symObjAddr: 0xA090, symBinAddr: 0xB2600, symSize: 0x50 }
  - { offset: 0x2AED9A, size: 0x8, addend: 0x0, symName: _ggml_conv_2d_dw, symObjAddr: 0xA0E0, symBinAddr: 0xB2650, symSize: 0x130 }
  - { offset: 0x2AEF8E, size: 0x8, addend: 0x0, symName: _ggml_conv_2d_dw_direct, symObjAddr: 0xA210, symBinAddr: 0xB2780, symSize: 0x1C0 }
  - { offset: 0x2AF20B, size: 0x8, addend: 0x0, symName: _ggml_conv_2d_dw_direct.cold.1, symObjAddr: 0x16F00, symBinAddr: 0x1C11B0, symSize: 0x30 }
  - { offset: 0x2AF223, size: 0x8, addend: 0x0, symName: _ggml_conv_2d_dw_direct.cold.2, symObjAddr: 0x16F30, symBinAddr: 0x1C11E0, symSize: 0x30 }
  - { offset: 0x2AF23B, size: 0x8, addend: 0x0, symName: _ggml_conv_2d_dw_direct.cold.4, symObjAddr: 0x16F90, symBinAddr: 0x1C1240, symSize: 0x30 }
  - { offset: 0x2AF26A, size: 0x8, addend: 0x0, symName: _ggml_conv_2d_dw_direct.cold.3, symObjAddr: 0x16F60, symBinAddr: 0x1C1210, symSize: 0x30 }
  - { offset: 0x2AF282, size: 0x8, addend: 0x0, symName: _ggml_conv_2d_direct, symObjAddr: 0xA3D0, symBinAddr: 0xB2940, symSize: 0x150 }
  - { offset: 0x2AF551, size: 0x8, addend: 0x0, symName: _ggml_conv_2d_direct.cold.1, symObjAddr: 0x16FC0, symBinAddr: 0x1C1270, symSize: 0x30 }
  - { offset: 0x2AF569, size: 0x8, addend: 0x0, symName: _ggml_conv_3d_direct, symObjAddr: 0xA520, symBinAddr: 0xB2A90, symSize: 0x1E0 }
  - { offset: 0x2AF9EF, size: 0x8, addend: 0x0, symName: _ggml_conv_3d_direct.cold.1, symObjAddr: 0x16FF0, symBinAddr: 0x1C12A0, symSize: 0x30 }
  - { offset: 0x2AFA07, size: 0x8, addend: 0x0, symName: _ggml_conv_3d_direct.cold.2, symObjAddr: 0x17020, symBinAddr: 0x1C12D0, symSize: 0x30 }
  - { offset: 0x2AFA62, size: 0x8, addend: 0x0, symName: _ggml_conv_transpose_2d_p0, symObjAddr: 0xA700, symBinAddr: 0xB2C70, symSize: 0xC0 }
  - { offset: 0x2AFBD4, size: 0x8, addend: 0x0, symName: _ggml_conv_transpose_2d_p0.cold.1, symObjAddr: 0x17050, symBinAddr: 0x1C1300, symSize: 0x30 }
  - { offset: 0x2AFC2F, size: 0x8, addend: 0x0, symName: _ggml_pool_1d, symObjAddr: 0xA7C0, symBinAddr: 0xB2D30, symSize: 0xF0 }
  - { offset: 0x2AFDBB, size: 0x8, addend: 0x0, symName: _ggml_pool_1d.cold.1, symObjAddr: 0x17080, symBinAddr: 0x1C1330, symSize: 0x30 }
  - { offset: 0x2AFDD3, size: 0x8, addend: 0x0, symName: _ggml_pool_1d.cold.2, symObjAddr: 0x170B0, symBinAddr: 0x1C1360, symSize: 0x30 }
  - { offset: 0x2AFE02, size: 0x8, addend: 0x0, symName: _ggml_pool_2d, symObjAddr: 0xA8B0, symBinAddr: 0xB2E20, symSize: 0x140 }
  - { offset: 0x2AFFCE, size: 0x8, addend: 0x0, symName: _ggml_pool_2d.cold.1, symObjAddr: 0x170E0, symBinAddr: 0x1C1390, symSize: 0x30 }
  - { offset: 0x2AFFE6, size: 0x8, addend: 0x0, symName: _ggml_pool_2d.cold.2, symObjAddr: 0x17110, symBinAddr: 0x1C13C0, symSize: 0x30 }
  - { offset: 0x2AFFFE, size: 0x8, addend: 0x0, symName: _ggml_pool_2d.cold.3, symObjAddr: 0x17140, symBinAddr: 0x1C13F0, symSize: 0x30 }
  - { offset: 0x2B002D, size: 0x8, addend: 0x0, symName: _ggml_pool_2d_back, symObjAddr: 0xA9F0, symBinAddr: 0xB2F60, symSize: 0xA0 }
  - { offset: 0x2B0148, size: 0x8, addend: 0x0, symName: _ggml_pool_2d_back.cold.1, symObjAddr: 0x17170, symBinAddr: 0x1C1420, symSize: 0x30 }
  - { offset: 0x2B01EE, size: 0x8, addend: 0x0, symName: _ggml_upscale, symObjAddr: 0xAA90, symBinAddr: 0xB3000, symSize: 0xD0 }
  - { offset: 0x2B03A5, size: 0x8, addend: 0x0, symName: _ggml_upscale.cold.1, symObjAddr: 0x171A0, symBinAddr: 0x1C1450, symSize: 0x30 }
  - { offset: 0x2B03BD, size: 0x8, addend: 0x0, symName: _ggml_upscale.cold.2, symObjAddr: 0x171D0, symBinAddr: 0x1C1480, symSize: 0x30 }
  - { offset: 0x2B03EC, size: 0x8, addend: 0x0, symName: _ggml_upscale.cold.3, symObjAddr: 0x17200, symBinAddr: 0x1C14B0, symSize: 0x30 }
  - { offset: 0x2B041B, size: 0x8, addend: 0x0, symName: _ggml_upscale.cold.4, symObjAddr: 0x17230, symBinAddr: 0x1C14E0, symSize: 0x30 }
  - { offset: 0x2B044A, size: 0x8, addend: 0x0, symName: _ggml_upscale_ext, symObjAddr: 0xAB60, symBinAddr: 0xB30D0, symSize: 0xC0 }
  - { offset: 0x2B0639, size: 0x8, addend: 0x0, symName: _ggml_upscale_ext.cold.1, symObjAddr: 0x17260, symBinAddr: 0x1C1510, symSize: 0x30 }
  - { offset: 0x2B0668, size: 0x8, addend: 0x0, symName: _ggml_upscale_ext.cold.2, symObjAddr: 0x17290, symBinAddr: 0x1C1540, symSize: 0x30 }
  - { offset: 0x2B0697, size: 0x8, addend: 0x0, symName: _ggml_upscale_ext.cold.3, symObjAddr: 0x172C0, symBinAddr: 0x1C1570, symSize: 0x30 }
  - { offset: 0x2B06C6, size: 0x8, addend: 0x0, symName: _ggml_interpolate, symObjAddr: 0xAC20, symBinAddr: 0xB3190, symSize: 0xB0 }
  - { offset: 0x2B088F, size: 0x8, addend: 0x0, symName: _ggml_interpolate.cold.1, symObjAddr: 0x172F0, symBinAddr: 0x1C15A0, symSize: 0x30 }
  - { offset: 0x2B08BE, size: 0x8, addend: 0x0, symName: _ggml_interpolate.cold.2, symObjAddr: 0x17320, symBinAddr: 0x1C15D0, symSize: 0x30 }
  - { offset: 0x2B08ED, size: 0x8, addend: 0x0, symName: _ggml_interpolate.cold.3, symObjAddr: 0x17350, symBinAddr: 0x1C1600, symSize: 0x30 }
  - { offset: 0x2B09BA, size: 0x8, addend: 0x0, symName: _ggml_pad, symObjAddr: 0xACD0, symBinAddr: 0xB3240, symSize: 0xD0 }
  - { offset: 0x2B0CC0, size: 0x8, addend: 0x0, symName: _ggml_pad_ext, symObjAddr: 0xADA0, symBinAddr: 0xB3310, symSize: 0x100 }
  - { offset: 0x2B1013, size: 0x8, addend: 0x0, symName: _ggml_pad_circular, symObjAddr: 0xAEA0, symBinAddr: 0xB3410, symSize: 0xD0 }
  - { offset: 0x2B1390, size: 0x8, addend: 0x0, symName: _ggml_pad_ext_circular, symObjAddr: 0xAF70, symBinAddr: 0xB34E0, symSize: 0x100 }
  - { offset: 0x2B16C8, size: 0x8, addend: 0x0, symName: _ggml_pad_reflect_1d, symObjAddr: 0xB070, symBinAddr: 0xB35E0, symSize: 0x180 }
  - { offset: 0x2B1930, size: 0x8, addend: 0x0, symName: _ggml_pad_reflect_1d.cold.5, symObjAddr: 0x17440, symBinAddr: 0x1C16F0, symSize: 0x30 }
  - { offset: 0x2B1948, size: 0x8, addend: 0x0, symName: _ggml_pad_reflect_1d.cold.1, symObjAddr: 0x17380, symBinAddr: 0x1C1630, symSize: 0x30 }
  - { offset: 0x2B1960, size: 0x8, addend: 0x0, symName: _ggml_pad_reflect_1d.cold.2, symObjAddr: 0x173B0, symBinAddr: 0x1C1660, symSize: 0x30 }
  - { offset: 0x2B1978, size: 0x8, addend: 0x0, symName: _ggml_pad_reflect_1d.cold.3, symObjAddr: 0x173E0, symBinAddr: 0x1C1690, symSize: 0x30 }
  - { offset: 0x2B1990, size: 0x8, addend: 0x0, symName: _ggml_pad_reflect_1d.cold.4, symObjAddr: 0x17410, symBinAddr: 0x1C16C0, symSize: 0x30 }
  - { offset: 0x2B19A8, size: 0x8, addend: 0x0, symName: _ggml_pad_reflect_1d.cold.6, symObjAddr: 0x17470, symBinAddr: 0x1C1720, symSize: 0x30 }
  - { offset: 0x2B19C0, size: 0x8, addend: 0x0, symName: _ggml_pad_reflect_1d.cold.7, symObjAddr: 0x174A0, symBinAddr: 0x1C1750, symSize: 0x30 }
  - { offset: 0x2B19EF, size: 0x8, addend: 0x0, symName: _ggml_roll, symObjAddr: 0xB1F0, symBinAddr: 0xB3760, symSize: 0xD0 }
  - { offset: 0x2B1C1B, size: 0x8, addend: 0x0, symName: _ggml_roll.cold.1, symObjAddr: 0x174D0, symBinAddr: 0x1C1780, symSize: 0x30 }
  - { offset: 0x2B1C33, size: 0x8, addend: 0x0, symName: _ggml_roll.cold.2, symObjAddr: 0x17500, symBinAddr: 0x1C17B0, symSize: 0x30 }
  - { offset: 0x2B1C4B, size: 0x8, addend: 0x0, symName: _ggml_roll.cold.3, symObjAddr: 0x17530, symBinAddr: 0x1C17E0, symSize: 0x30 }
  - { offset: 0x2B1C63, size: 0x8, addend: 0x0, symName: _ggml_roll.cold.4, symObjAddr: 0x17560, symBinAddr: 0x1C1810, symSize: 0x30 }
  - { offset: 0x2B1C7B, size: 0x8, addend: 0x0, symName: _ggml_roll.cold.5, symObjAddr: 0x17590, symBinAddr: 0x1C1840, symSize: 0x30 }
  - { offset: 0x2B1C93, size: 0x8, addend: 0x0, symName: _ggml_timestep_embedding, symObjAddr: 0xB2C0, symBinAddr: 0xB3830, symSize: 0x80 }
  - { offset: 0x2B1E04, size: 0x8, addend: 0x0, symName: _ggml_tri, symObjAddr: 0xB340, symBinAddr: 0xB38B0, symSize: 0xB0 }
  - { offset: 0x2B1FCA, size: 0x8, addend: 0x0, symName: _ggml_tri.cold.2, symObjAddr: 0x175F0, symBinAddr: 0x1C18A0, symSize: 0x30 }
  - { offset: 0x2B1FE2, size: 0x8, addend: 0x0, symName: _ggml_tri.cold.1, symObjAddr: 0x175C0, symBinAddr: 0x1C1870, symSize: 0x30 }
  - { offset: 0x2B1FFA, size: 0x8, addend: 0x0, symName: _ggml_tri.cold.3, symObjAddr: 0x17620, symBinAddr: 0x1C18D0, symSize: 0x30 }
  - { offset: 0x2B2012, size: 0x8, addend: 0x0, symName: _ggml_fill, symObjAddr: 0xB3F0, symBinAddr: 0xB3960, symSize: 0x10 }
  - { offset: 0x2B2088, size: 0x8, addend: 0x0, symName: _ggml_fill_impl, symObjAddr: 0xB400, symBinAddr: 0xB3970, symSize: 0x150 }
  - { offset: 0x2B22CB, size: 0x8, addend: 0x0, symName: _ggml_fill_impl.cold.2, symObjAddr: 0x17680, symBinAddr: 0x1C1930, symSize: 0x30 }
  - { offset: 0x2B22E3, size: 0x8, addend: 0x0, symName: _ggml_fill_impl.cold.1, symObjAddr: 0x17650, symBinAddr: 0x1C1900, symSize: 0x30 }
  - { offset: 0x2B22FB, size: 0x8, addend: 0x0, symName: _ggml_fill_inplace, symObjAddr: 0xB550, symBinAddr: 0xB3AC0, symSize: 0x10 }
  - { offset: 0x2B2371, size: 0x8, addend: 0x0, symName: _ggml_argsort, symObjAddr: 0xB560, symBinAddr: 0xB3AD0, symSize: 0x50 }
  - { offset: 0x2B2446, size: 0x8, addend: 0x0, symName: _ggml_argsort.cold.1, symObjAddr: 0x176B0, symBinAddr: 0x1C1960, symSize: 0x30 }
  - { offset: 0x2B254C, size: 0x8, addend: 0x0, symName: _ggml_argsort_top_k, symObjAddr: 0xB5B0, symBinAddr: 0xB3B20, symSize: 0x130 }
  - { offset: 0x2B2780, size: 0x8, addend: 0x0, symName: _ggml_argsort_top_k.cold.3, symObjAddr: 0x17740, symBinAddr: 0x1C19F0, symSize: 0x30 }
  - { offset: 0x2B2798, size: 0x8, addend: 0x0, symName: _ggml_argsort_top_k.cold.1, symObjAddr: 0x176E0, symBinAddr: 0x1C1990, symSize: 0x30 }
  - { offset: 0x2B27C7, size: 0x8, addend: 0x0, symName: _ggml_argsort_top_k.cold.2, symObjAddr: 0x17710, symBinAddr: 0x1C19C0, symSize: 0x30 }
  - { offset: 0x2B2824, size: 0x8, addend: 0x0, symName: _ggml_top_k, symObjAddr: 0xB6E0, symBinAddr: 0xB3C50, symSize: 0x80 }
  - { offset: 0x2B2930, size: 0x8, addend: 0x0, symName: _ggml_top_k.cold.1, symObjAddr: 0x17770, symBinAddr: 0x1C1A20, symSize: 0x30 }
  - { offset: 0x2B2948, size: 0x8, addend: 0x0, symName: _ggml_arange, symObjAddr: 0xB760, symBinAddr: 0xB3CD0, symSize: 0x90 }
  - { offset: 0x2B2AFD, size: 0x8, addend: 0x0, symName: _ggml_arange.cold.1, symObjAddr: 0x177A0, symBinAddr: 0x1C1A50, symSize: 0x30 }
  - { offset: 0x2B2B15, size: 0x8, addend: 0x0, symName: _ggml_flash_attn_ext, symObjAddr: 0xB7F0, symBinAddr: 0xB3D60, symSize: 0x260 }
  - { offset: 0x2B2DA2, size: 0x8, addend: 0x0, symName: _ggml_flash_attn_ext.cold.1, symObjAddr: 0x177D0, symBinAddr: 0x1C1A80, symSize: 0x30 }
  - { offset: 0x2B2DBA, size: 0x8, addend: 0x0, symName: _ggml_flash_attn_ext.cold.8, symObjAddr: 0x17920, symBinAddr: 0x1C1BD0, symSize: 0x30 }
  - { offset: 0x2B2DD2, size: 0x8, addend: 0x0, symName: _ggml_flash_attn_ext.cold.6, symObjAddr: 0x178C0, symBinAddr: 0x1C1B70, symSize: 0x30 }
  - { offset: 0x2B2DEA, size: 0x8, addend: 0x0, symName: _ggml_flash_attn_ext.cold.5, symObjAddr: 0x17890, symBinAddr: 0x1C1B40, symSize: 0x30 }
  - { offset: 0x2B2E02, size: 0x8, addend: 0x0, symName: _ggml_flash_attn_ext.cold.2, symObjAddr: 0x17800, symBinAddr: 0x1C1AB0, symSize: 0x30 }
  - { offset: 0x2B2E1A, size: 0x8, addend: 0x0, symName: _ggml_flash_attn_ext.cold.3, symObjAddr: 0x17830, symBinAddr: 0x1C1AE0, symSize: 0x30 }
  - { offset: 0x2B2E32, size: 0x8, addend: 0x0, symName: _ggml_flash_attn_ext.cold.9, symObjAddr: 0x17950, symBinAddr: 0x1C1C00, symSize: 0x30 }
  - { offset: 0x2B2E61, size: 0x8, addend: 0x0, symName: _ggml_flash_attn_ext.cold.4, symObjAddr: 0x17860, symBinAddr: 0x1C1B10, symSize: 0x30 }
  - { offset: 0x2B2E79, size: 0x8, addend: 0x0, symName: _ggml_flash_attn_ext.cold.7, symObjAddr: 0x178F0, symBinAddr: 0x1C1BA0, symSize: 0x30 }
  - { offset: 0x2B2E91, size: 0x8, addend: 0x0, symName: _ggml_flash_attn_ext_set_prec, symObjAddr: 0xBA50, symBinAddr: 0xB3FC0, symSize: 0x20 }
  - { offset: 0x2B2F18, size: 0x8, addend: 0x0, symName: _ggml_flash_attn_ext_set_prec.cold.1, symObjAddr: 0x17980, symBinAddr: 0x1C1C30, symSize: 0x30 }
  - { offset: 0x2B2F30, size: 0x8, addend: 0x0, symName: _ggml_flash_attn_ext_get_prec, symObjAddr: 0xBA70, symBinAddr: 0xB3FE0, symSize: 0x20 }
  - { offset: 0x2B2FA2, size: 0x8, addend: 0x0, symName: _ggml_flash_attn_ext_get_prec.cold.1, symObjAddr: 0x179B0, symBinAddr: 0x1C1C60, symSize: 0x30 }
  - { offset: 0x2B2FBA, size: 0x8, addend: 0x0, symName: _ggml_flash_attn_ext_add_sinks, symObjAddr: 0xBA90, symBinAddr: 0xB4000, symSize: 0x60 }
  - { offset: 0x2B302C, size: 0x8, addend: 0x0, symName: _ggml_flash_attn_ext_add_sinks.cold.1, symObjAddr: 0x179E0, symBinAddr: 0x1C1C90, symSize: 0x30 }
  - { offset: 0x2B3044, size: 0x8, addend: 0x0, symName: _ggml_flash_attn_ext_add_sinks.cold.2, symObjAddr: 0x17A10, symBinAddr: 0x1C1CC0, symSize: 0x30 }
  - { offset: 0x2B305C, size: 0x8, addend: 0x0, symName: _ggml_flash_attn_ext_add_sinks.cold.3, symObjAddr: 0x17A40, symBinAddr: 0x1C1CF0, symSize: 0x30 }
  - { offset: 0x2B3074, size: 0x8, addend: 0x0, symName: _ggml_flash_attn_ext_add_sinks.cold.4, symObjAddr: 0x17A70, symBinAddr: 0x1C1D20, symSize: 0x30 }
  - { offset: 0x2B308C, size: 0x8, addend: 0x0, symName: _ggml_flash_attn_back, symObjAddr: 0xBAF0, symBinAddr: 0x1BE840, symSize: 0x20 }
  - { offset: 0x2B31B6, size: 0x8, addend: 0x0, symName: _ggml_ssm_conv, symObjAddr: 0xBB10, symBinAddr: 0xB4060, symSize: 0xC0 }
  - { offset: 0x2B337C, size: 0x8, addend: 0x0, symName: _ggml_ssm_conv.cold.2, symObjAddr: 0x17AD0, symBinAddr: 0x1C1D80, symSize: 0x30 }
  - { offset: 0x2B3394, size: 0x8, addend: 0x0, symName: _ggml_ssm_conv.cold.1, symObjAddr: 0x17AA0, symBinAddr: 0x1C1D50, symSize: 0x30 }
  - { offset: 0x2B33AC, size: 0x8, addend: 0x0, symName: _ggml_ssm_conv.cold.3, symObjAddr: 0x17B00, symBinAddr: 0x1C1DB0, symSize: 0x30 }
  - { offset: 0x2B33C4, size: 0x8, addend: 0x0, symName: _ggml_ssm_conv.cold.4, symObjAddr: 0x17B30, symBinAddr: 0x1C1DE0, symSize: 0x30 }
  - { offset: 0x2B33DC, size: 0x8, addend: 0x0, symName: _ggml_ssm_scan, symObjAddr: 0xBBD0, symBinAddr: 0xB4120, symSize: 0x4D0 }
  - { offset: 0x2B3983, size: 0x8, addend: 0x0, symName: _ggml_ssm_scan.cold.10, symObjAddr: 0x17D10, symBinAddr: 0x1C1FC0, symSize: 0x30 }
  - { offset: 0x2B399B, size: 0x8, addend: 0x0, symName: _ggml_ssm_scan.cold.22, symObjAddr: 0x17F50, symBinAddr: 0x1C2200, symSize: 0x30 }
  - { offset: 0x2B39B3, size: 0x8, addend: 0x0, symName: _ggml_ssm_scan.cold.1, symObjAddr: 0x17B60, symBinAddr: 0x1C1E10, symSize: 0x30 }
  - { offset: 0x2B39CB, size: 0x8, addend: 0x0, symName: _ggml_ssm_scan.cold.2, symObjAddr: 0x17B90, symBinAddr: 0x1C1E40, symSize: 0x30 }
  - { offset: 0x2B39E3, size: 0x8, addend: 0x0, symName: _ggml_ssm_scan.cold.3, symObjAddr: 0x17BC0, symBinAddr: 0x1C1E70, symSize: 0x30 }
  - { offset: 0x2B39FB, size: 0x8, addend: 0x0, symName: _ggml_ssm_scan.cold.4, symObjAddr: 0x17BF0, symBinAddr: 0x1C1EA0, symSize: 0x30 }
  - { offset: 0x2B3A13, size: 0x8, addend: 0x0, symName: _ggml_ssm_scan.cold.5, symObjAddr: 0x17C20, symBinAddr: 0x1C1ED0, symSize: 0x30 }
  - { offset: 0x2B3A2B, size: 0x8, addend: 0x0, symName: _ggml_ssm_scan.cold.6, symObjAddr: 0x17C50, symBinAddr: 0x1C1F00, symSize: 0x30 }
  - { offset: 0x2B3A43, size: 0x8, addend: 0x0, symName: _ggml_ssm_scan.cold.7, symObjAddr: 0x17C80, symBinAddr: 0x1C1F30, symSize: 0x30 }
  - { offset: 0x2B3A5B, size: 0x8, addend: 0x0, symName: _ggml_ssm_scan.cold.8, symObjAddr: 0x17CB0, symBinAddr: 0x1C1F60, symSize: 0x30 }
  - { offset: 0x2B3A73, size: 0x8, addend: 0x0, symName: _ggml_ssm_scan.cold.9, symObjAddr: 0x17CE0, symBinAddr: 0x1C1F90, symSize: 0x30 }
  - { offset: 0x2B3A8B, size: 0x8, addend: 0x0, symName: _ggml_ssm_scan.cold.11, symObjAddr: 0x17D40, symBinAddr: 0x1C1FF0, symSize: 0x30 }
  - { offset: 0x2B3AA3, size: 0x8, addend: 0x0, symName: _ggml_ssm_scan.cold.12, symObjAddr: 0x17D70, symBinAddr: 0x1C2020, symSize: 0x30 }
  - { offset: 0x2B3ABB, size: 0x8, addend: 0x0, symName: _ggml_ssm_scan.cold.13, symObjAddr: 0x17DA0, symBinAddr: 0x1C2050, symSize: 0x30 }
  - { offset: 0x2B3AD3, size: 0x8, addend: 0x0, symName: _ggml_ssm_scan.cold.14, symObjAddr: 0x17DD0, symBinAddr: 0x1C2080, symSize: 0x30 }
  - { offset: 0x2B3AEB, size: 0x8, addend: 0x0, symName: _ggml_ssm_scan.cold.15, symObjAddr: 0x17E00, symBinAddr: 0x1C20B0, symSize: 0x30 }
  - { offset: 0x2B3B03, size: 0x8, addend: 0x0, symName: _ggml_ssm_scan.cold.16, symObjAddr: 0x17E30, symBinAddr: 0x1C20E0, symSize: 0x30 }
  - { offset: 0x2B3B1B, size: 0x8, addend: 0x0, symName: _ggml_ssm_scan.cold.17, symObjAddr: 0x17E60, symBinAddr: 0x1C2110, symSize: 0x30 }
  - { offset: 0x2B3B33, size: 0x8, addend: 0x0, symName: _ggml_ssm_scan.cold.18, symObjAddr: 0x17E90, symBinAddr: 0x1C2140, symSize: 0x30 }
  - { offset: 0x2B3B4B, size: 0x8, addend: 0x0, symName: _ggml_ssm_scan.cold.19, symObjAddr: 0x17EC0, symBinAddr: 0x1C2170, symSize: 0x30 }
  - { offset: 0x2B3B63, size: 0x8, addend: 0x0, symName: _ggml_ssm_scan.cold.20, symObjAddr: 0x17EF0, symBinAddr: 0x1C21A0, symSize: 0x30 }
  - { offset: 0x2B3B7B, size: 0x8, addend: 0x0, symName: _ggml_ssm_scan.cold.21, symObjAddr: 0x17F20, symBinAddr: 0x1C21D0, symSize: 0x30 }
  - { offset: 0x2B3B93, size: 0x8, addend: 0x0, symName: _ggml_ssm_scan.cold.23, symObjAddr: 0x17F80, symBinAddr: 0x1C2230, symSize: 0x30 }
  - { offset: 0x2B3BAB, size: 0x8, addend: 0x0, symName: _ggml_ssm_scan.cold.25, symObjAddr: 0x17FE0, symBinAddr: 0x1C2290, symSize: 0x30 }
  - { offset: 0x2B3BC3, size: 0x8, addend: 0x0, symName: _ggml_ssm_scan.cold.24, symObjAddr: 0x17FB0, symBinAddr: 0x1C2260, symSize: 0x30 }
  - { offset: 0x2B3BDB, size: 0x8, addend: 0x0, symName: _ggml_win_part, symObjAddr: 0xC0A0, symBinAddr: 0xB45F0, symSize: 0x1A0 }
  - { offset: 0x2B3D66, size: 0x8, addend: 0x0, symName: _ggml_win_part.cold.1, symObjAddr: 0x18010, symBinAddr: 0x1C22C0, symSize: 0x30 }
  - { offset: 0x2B3D7E, size: 0x8, addend: 0x0, symName: _ggml_win_part.cold.2, symObjAddr: 0x18040, symBinAddr: 0x1C22F0, symSize: 0x30 }
  - { offset: 0x2B3D96, size: 0x8, addend: 0x0, symName: _ggml_win_part.cold.3, symObjAddr: 0x18070, symBinAddr: 0x1C2320, symSize: 0x30 }
  - { offset: 0x2B3DC5, size: 0x8, addend: 0x0, symName: _ggml_win_unpart, symObjAddr: 0xC240, symBinAddr: 0xB4790, symSize: 0xA0 }
  - { offset: 0x2B3F0C, size: 0x8, addend: 0x0, symName: _ggml_win_unpart.cold.1, symObjAddr: 0x180A0, symBinAddr: 0x1C2350, symSize: 0x30 }
  - { offset: 0x2B3F24, size: 0x8, addend: 0x0, symName: _ggml_win_unpart.cold.2, symObjAddr: 0x180D0, symBinAddr: 0x1C2380, symSize: 0x30 }
  - { offset: 0x2B3F53, size: 0x8, addend: 0x0, symName: _ggml_get_rel_pos, symObjAddr: 0xC2E0, symBinAddr: 0xB4830, symSize: 0xA0 }
  - { offset: 0x2B4055, size: 0x8, addend: 0x0, symName: _ggml_get_rel_pos.cold.1, symObjAddr: 0x18100, symBinAddr: 0x1C23B0, symSize: 0x30 }
  - { offset: 0x2B406D, size: 0x8, addend: 0x0, symName: _ggml_get_rel_pos.cold.2, symObjAddr: 0x18130, symBinAddr: 0x1C23E0, symSize: 0x30 }
  - { offset: 0x2B4085, size: 0x8, addend: 0x0, symName: _ggml_add_rel_pos, symObjAddr: 0xC380, symBinAddr: 0xB48D0, symSize: 0x10 }
  - { offset: 0x2B4112, size: 0x8, addend: 0x0, symName: _ggml_add_rel_pos_impl, symObjAddr: 0xC390, symBinAddr: 0xB48E0, symSize: 0x320 }
  - { offset: 0x2B4551, size: 0x8, addend: 0x0, symName: _ggml_add_rel_pos_impl.cold.1, symObjAddr: 0x18160, symBinAddr: 0x1C2410, symSize: 0x30 }
  - { offset: 0x2B4569, size: 0x8, addend: 0x0, symName: _ggml_add_rel_pos_impl.cold.2, symObjAddr: 0x18190, symBinAddr: 0x1C2440, symSize: 0x30 }
  - { offset: 0x2B4581, size: 0x8, addend: 0x0, symName: _ggml_add_rel_pos_impl.cold.3, symObjAddr: 0x181C0, symBinAddr: 0x1C2470, symSize: 0x30 }
  - { offset: 0x2B4599, size: 0x8, addend: 0x0, symName: _ggml_add_rel_pos_impl.cold.4, symObjAddr: 0x181F0, symBinAddr: 0x1C24A0, symSize: 0x30 }
  - { offset: 0x2B45B1, size: 0x8, addend: 0x0, symName: _ggml_add_rel_pos_impl.cold.5, symObjAddr: 0x18220, symBinAddr: 0x1C24D0, symSize: 0x30 }
  - { offset: 0x2B45C9, size: 0x8, addend: 0x0, symName: _ggml_add_rel_pos_impl.cold.6, symObjAddr: 0x18250, symBinAddr: 0x1C2500, symSize: 0x30 }
  - { offset: 0x2B45E1, size: 0x8, addend: 0x0, symName: _ggml_add_rel_pos_impl.cold.7, symObjAddr: 0x18280, symBinAddr: 0x1C2530, symSize: 0x30 }
  - { offset: 0x2B45F9, size: 0x8, addend: 0x0, symName: _ggml_add_rel_pos_impl.cold.8, symObjAddr: 0x182B0, symBinAddr: 0x1C2560, symSize: 0x30 }
  - { offset: 0x2B4611, size: 0x8, addend: 0x0, symName: _ggml_add_rel_pos_impl.cold.9, symObjAddr: 0x182E0, symBinAddr: 0x1C2590, symSize: 0x30 }
  - { offset: 0x2B4629, size: 0x8, addend: 0x0, symName: _ggml_add_rel_pos_inplace, symObjAddr: 0xC6B0, symBinAddr: 0xB4C00, symSize: 0x10 }
  - { offset: 0x2B46B6, size: 0x8, addend: 0x0, symName: _ggml_rwkv_wkv6, symObjAddr: 0xC6C0, symBinAddr: 0xB4C10, symSize: 0x550 }
  - { offset: 0x2B4CAA, size: 0x8, addend: 0x0, symName: _ggml_rwkv_wkv6.cold.1, symObjAddr: 0x18310, symBinAddr: 0x1C25C0, symSize: 0x30 }
  - { offset: 0x2B4CC2, size: 0x8, addend: 0x0, symName: _ggml_rwkv_wkv6.cold.2, symObjAddr: 0x18340, symBinAddr: 0x1C25F0, symSize: 0x30 }
  - { offset: 0x2B4CDA, size: 0x8, addend: 0x0, symName: _ggml_rwkv_wkv6.cold.3, symObjAddr: 0x18370, symBinAddr: 0x1C2620, symSize: 0x30 }
  - { offset: 0x2B4CF2, size: 0x8, addend: 0x0, symName: _ggml_rwkv_wkv6.cold.4, symObjAddr: 0x183A0, symBinAddr: 0x1C2650, symSize: 0x30 }
  - { offset: 0x2B4D0A, size: 0x8, addend: 0x0, symName: _ggml_rwkv_wkv6.cold.5, symObjAddr: 0x183D0, symBinAddr: 0x1C2680, symSize: 0x30 }
  - { offset: 0x2B4D22, size: 0x8, addend: 0x0, symName: _ggml_rwkv_wkv6.cold.6, symObjAddr: 0x18400, symBinAddr: 0x1C26B0, symSize: 0x30 }
  - { offset: 0x2B4D3A, size: 0x8, addend: 0x0, symName: _ggml_rwkv_wkv6.cold.7, symObjAddr: 0x18430, symBinAddr: 0x1C26E0, symSize: 0x30 }
  - { offset: 0x2B4D52, size: 0x8, addend: 0x0, symName: _ggml_rwkv_wkv6.cold.8, symObjAddr: 0x18460, symBinAddr: 0x1C2710, symSize: 0x30 }
  - { offset: 0x2B4D6A, size: 0x8, addend: 0x0, symName: _ggml_rwkv_wkv6.cold.9, symObjAddr: 0x18490, symBinAddr: 0x1C2740, symSize: 0x30 }
  - { offset: 0x2B4D82, size: 0x8, addend: 0x0, symName: _ggml_rwkv_wkv6.cold.10, symObjAddr: 0x184C0, symBinAddr: 0x1C2770, symSize: 0x30 }
  - { offset: 0x2B4D9A, size: 0x8, addend: 0x0, symName: _ggml_gated_linear_attn, symObjAddr: 0xCC10, symBinAddr: 0xB5160, symSize: 0x4D0 }
  - { offset: 0x2B5324, size: 0x8, addend: 0x0, symName: _ggml_gated_linear_attn.cold.1, symObjAddr: 0x184F0, symBinAddr: 0x1C27A0, symSize: 0x30 }
  - { offset: 0x2B533C, size: 0x8, addend: 0x0, symName: _ggml_gated_linear_attn.cold.2, symObjAddr: 0x18520, symBinAddr: 0x1C27D0, symSize: 0x30 }
  - { offset: 0x2B5354, size: 0x8, addend: 0x0, symName: _ggml_gated_linear_attn.cold.3, symObjAddr: 0x18550, symBinAddr: 0x1C2800, symSize: 0x30 }
  - { offset: 0x2B536C, size: 0x8, addend: 0x0, symName: _ggml_gated_linear_attn.cold.4, symObjAddr: 0x18580, symBinAddr: 0x1C2830, symSize: 0x30 }
  - { offset: 0x2B5384, size: 0x8, addend: 0x0, symName: _ggml_gated_linear_attn.cold.5, symObjAddr: 0x185B0, symBinAddr: 0x1C2860, symSize: 0x30 }
  - { offset: 0x2B539C, size: 0x8, addend: 0x0, symName: _ggml_gated_linear_attn.cold.6, symObjAddr: 0x185E0, symBinAddr: 0x1C2890, symSize: 0x30 }
  - { offset: 0x2B53B4, size: 0x8, addend: 0x0, symName: _ggml_gated_linear_attn.cold.7, symObjAddr: 0x18610, symBinAddr: 0x1C28C0, symSize: 0x30 }
  - { offset: 0x2B53CC, size: 0x8, addend: 0x0, symName: _ggml_gated_linear_attn.cold.8, symObjAddr: 0x18640, symBinAddr: 0x1C28F0, symSize: 0x30 }
  - { offset: 0x2B53E4, size: 0x8, addend: 0x0, symName: _ggml_gated_linear_attn.cold.9, symObjAddr: 0x18670, symBinAddr: 0x1C2920, symSize: 0x30 }
  - { offset: 0x2B53FC, size: 0x8, addend: 0x0, symName: _ggml_rwkv_wkv7, symObjAddr: 0xD0E0, symBinAddr: 0xB5630, symSize: 0x650 }
  - { offset: 0x2B5ADD, size: 0x8, addend: 0x0, symName: _ggml_rwkv_wkv7.cold.1, symObjAddr: 0x186A0, symBinAddr: 0x1C2950, symSize: 0x30 }
  - { offset: 0x2B5AF5, size: 0x8, addend: 0x0, symName: _ggml_rwkv_wkv7.cold.2, symObjAddr: 0x186D0, symBinAddr: 0x1C2980, symSize: 0x30 }
  - { offset: 0x2B5B0D, size: 0x8, addend: 0x0, symName: _ggml_rwkv_wkv7.cold.3, symObjAddr: 0x18700, symBinAddr: 0x1C29B0, symSize: 0x30 }
  - { offset: 0x2B5B25, size: 0x8, addend: 0x0, symName: _ggml_rwkv_wkv7.cold.4, symObjAddr: 0x18730, symBinAddr: 0x1C29E0, symSize: 0x30 }
  - { offset: 0x2B5B3D, size: 0x8, addend: 0x0, symName: _ggml_rwkv_wkv7.cold.5, symObjAddr: 0x18760, symBinAddr: 0x1C2A10, symSize: 0x30 }
  - { offset: 0x2B5B55, size: 0x8, addend: 0x0, symName: _ggml_rwkv_wkv7.cold.6, symObjAddr: 0x18790, symBinAddr: 0x1C2A40, symSize: 0x30 }
  - { offset: 0x2B5B6D, size: 0x8, addend: 0x0, symName: _ggml_rwkv_wkv7.cold.7, symObjAddr: 0x187C0, symBinAddr: 0x1C2A70, symSize: 0x30 }
  - { offset: 0x2B5B85, size: 0x8, addend: 0x0, symName: _ggml_rwkv_wkv7.cold.8, symObjAddr: 0x187F0, symBinAddr: 0x1C2AA0, symSize: 0x30 }
  - { offset: 0x2B5B9D, size: 0x8, addend: 0x0, symName: _ggml_rwkv_wkv7.cold.9, symObjAddr: 0x18820, symBinAddr: 0x1C2AD0, symSize: 0x30 }
  - { offset: 0x2B5BB5, size: 0x8, addend: 0x0, symName: _ggml_rwkv_wkv7.cold.10, symObjAddr: 0x18850, symBinAddr: 0x1C2B00, symSize: 0x30 }
  - { offset: 0x2B5BCD, size: 0x8, addend: 0x0, symName: _ggml_rwkv_wkv7.cold.11, symObjAddr: 0x18880, symBinAddr: 0x1C2B30, symSize: 0x30 }
  - { offset: 0x2B5BE5, size: 0x8, addend: 0x0, symName: _ggml_rwkv_wkv7.cold.12, symObjAddr: 0x188B0, symBinAddr: 0x1C2B60, symSize: 0x30 }
  - { offset: 0x2B5CDF, size: 0x8, addend: 0x0, symName: _ggml_map_custom1, symObjAddr: 0xD730, symBinAddr: 0xB5C80, symSize: 0x80 }
  - { offset: 0x2B5E72, size: 0x8, addend: 0x0, symName: _ggml_map_custom1.cold.1, symObjAddr: 0x188E0, symBinAddr: 0x1C2B90, symSize: 0x30 }
  - { offset: 0x2B5EA1, size: 0x8, addend: 0x0, symName: _ggml_map_custom1.cold.2, symObjAddr: 0x18910, symBinAddr: 0x1C2BC0, symSize: 0x30 }
  - { offset: 0x2B5EE7, size: 0x8, addend: 0x0, symName: _ggml_map_custom1_inplace, symObjAddr: 0xD7B0, symBinAddr: 0xB5D00, symSize: 0xC0 }
  - { offset: 0x2B607A, size: 0x8, addend: 0x0, symName: _ggml_map_custom1_inplace.cold.1, symObjAddr: 0x18940, symBinAddr: 0x1C2BF0, symSize: 0x30 }
  - { offset: 0x2B619E, size: 0x8, addend: 0x0, symName: _ggml_map_custom2, symObjAddr: 0xD870, symBinAddr: 0xB5DC0, symSize: 0x90 }
  - { offset: 0x2B634C, size: 0x8, addend: 0x0, symName: _ggml_map_custom2.cold.1, symObjAddr: 0x18970, symBinAddr: 0x1C2C20, symSize: 0x30 }
  - { offset: 0x2B637B, size: 0x8, addend: 0x0, symName: _ggml_map_custom2.cold.2, symObjAddr: 0x189A0, symBinAddr: 0x1C2C50, symSize: 0x30 }
  - { offset: 0x2B63C1, size: 0x8, addend: 0x0, symName: _ggml_map_custom2_inplace, symObjAddr: 0xD900, symBinAddr: 0xB5E50, symSize: 0xD0 }
  - { offset: 0x2B656E, size: 0x8, addend: 0x0, symName: _ggml_map_custom2_inplace.cold.1, symObjAddr: 0x189D0, symBinAddr: 0x1C2C80, symSize: 0x30 }
  - { offset: 0x2B66A5, size: 0x8, addend: 0x0, symName: _ggml_map_custom3, symObjAddr: 0xD9D0, symBinAddr: 0xB5F20, symSize: 0xA0 }
  - { offset: 0x2B686C, size: 0x8, addend: 0x0, symName: _ggml_map_custom3.cold.1, symObjAddr: 0x18A00, symBinAddr: 0x1C2CB0, symSize: 0x30 }
  - { offset: 0x2B689B, size: 0x8, addend: 0x0, symName: _ggml_map_custom3.cold.2, symObjAddr: 0x18A30, symBinAddr: 0x1C2CE0, symSize: 0x30 }
  - { offset: 0x2B68E1, size: 0x8, addend: 0x0, symName: _ggml_map_custom3_inplace, symObjAddr: 0xDA70, symBinAddr: 0xB5FC0, symSize: 0xE0 }
  - { offset: 0x2B6AA7, size: 0x8, addend: 0x0, symName: _ggml_map_custom3_inplace.cold.1, symObjAddr: 0x18A60, symBinAddr: 0x1C2D10, symSize: 0x30 }
  - { offset: 0x2B6AD6, size: 0x8, addend: 0x0, symName: _ggml_custom_4d, symObjAddr: 0xDB50, symBinAddr: 0xB60A0, symSize: 0x140 }
  - { offset: 0x2B6CE1, size: 0x8, addend: 0x0, symName: _ggml_custom_4d.cold.1, symObjAddr: 0x18A90, symBinAddr: 0x1C2D40, symSize: 0x30 }
  - { offset: 0x2B6CF9, size: 0x8, addend: 0x0, symName: _ggml_custom_4d.cold.2, symObjAddr: 0x18AC0, symBinAddr: 0x1C2D70, symSize: 0x30 }
  - { offset: 0x2B6D28, size: 0x8, addend: 0x0, symName: _ggml_custom_inplace, symObjAddr: 0xDC90, symBinAddr: 0xB61E0, symSize: 0x150 }
  - { offset: 0x2B6EC0, size: 0x8, addend: 0x0, symName: _ggml_custom_inplace.cold.1, symObjAddr: 0x18AF0, symBinAddr: 0x1C2DA0, symSize: 0x30 }
  - { offset: 0x2B6ED8, size: 0x8, addend: 0x0, symName: _ggml_cross_entropy_loss, symObjAddr: 0xDDE0, symBinAddr: 0xB6330, symSize: 0x80 }
  - { offset: 0x2B7001, size: 0x8, addend: 0x0, symName: _ggml_cross_entropy_loss.cold.1, symObjAddr: 0x18B20, symBinAddr: 0x1C2DD0, symSize: 0x30 }
  - { offset: 0x2B7019, size: 0x8, addend: 0x0, symName: _ggml_cross_entropy_loss_back, symObjAddr: 0xDE60, symBinAddr: 0xB63B0, symSize: 0xB0 }
  - { offset: 0x2B7173, size: 0x8, addend: 0x0, symName: _ggml_cross_entropy_loss_back.cold.1, symObjAddr: 0x18B50, symBinAddr: 0x1C2E00, symSize: 0x30 }
  - { offset: 0x2B718B, size: 0x8, addend: 0x0, symName: _ggml_cross_entropy_loss_back.cold.2, symObjAddr: 0x18B80, symBinAddr: 0x1C2E30, symSize: 0x30 }
  - { offset: 0x2B71A3, size: 0x8, addend: 0x0, symName: _ggml_opt_step_adamw, symObjAddr: 0xDF10, symBinAddr: 0xB6460, symSize: 0x190 }
  - { offset: 0x2B73AE, size: 0x8, addend: 0x0, symName: _ggml_opt_step_adamw.cold.1, symObjAddr: 0x18BB0, symBinAddr: 0x1C2E60, symSize: 0x30 }
  - { offset: 0x2B73C6, size: 0x8, addend: 0x0, symName: _ggml_opt_step_adamw.cold.2, symObjAddr: 0x18BE0, symBinAddr: 0x1C2E90, symSize: 0x30 }
  - { offset: 0x2B73DE, size: 0x8, addend: 0x0, symName: _ggml_opt_step_adamw.cold.3, symObjAddr: 0x18C10, symBinAddr: 0x1C2EC0, symSize: 0x30 }
  - { offset: 0x2B73F6, size: 0x8, addend: 0x0, symName: _ggml_opt_step_adamw.cold.6, symObjAddr: 0x18CA0, symBinAddr: 0x1C2F50, symSize: 0x30 }
  - { offset: 0x2B740E, size: 0x8, addend: 0x0, symName: _ggml_opt_step_adamw.cold.4, symObjAddr: 0x18C40, symBinAddr: 0x1C2EF0, symSize: 0x30 }
  - { offset: 0x2B7426, size: 0x8, addend: 0x0, symName: _ggml_opt_step_adamw.cold.5, symObjAddr: 0x18C70, symBinAddr: 0x1C2F20, symSize: 0x30 }
  - { offset: 0x2B743E, size: 0x8, addend: 0x0, symName: _ggml_opt_step_sgd, symObjAddr: 0xE0A0, symBinAddr: 0xB65F0, symSize: 0x120 }
  - { offset: 0x2B75BD, size: 0x8, addend: 0x0, symName: _ggml_opt_step_sgd.cold.1, symObjAddr: 0x18CD0, symBinAddr: 0x1C2F80, symSize: 0x30 }
  - { offset: 0x2B75D5, size: 0x8, addend: 0x0, symName: _ggml_opt_step_sgd.cold.4, symObjAddr: 0x18D60, symBinAddr: 0x1C3010, symSize: 0x30 }
  - { offset: 0x2B75ED, size: 0x8, addend: 0x0, symName: _ggml_opt_step_sgd.cold.2, symObjAddr: 0x18D00, symBinAddr: 0x1C2FB0, symSize: 0x30 }
  - { offset: 0x2B7605, size: 0x8, addend: 0x0, symName: _ggml_opt_step_sgd.cold.3, symObjAddr: 0x18D30, symBinAddr: 0x1C2FE0, symSize: 0x30 }
  - { offset: 0x2B761D, size: 0x8, addend: 0x0, symName: _ggml_solve_tri, symObjAddr: 0xE1C0, symBinAddr: 0xB6710, symSize: 0x1A0 }
  - { offset: 0x2B78A9, size: 0x8, addend: 0x0, symName: _ggml_solve_tri.cold.7, symObjAddr: 0x18EB0, symBinAddr: 0x1C3160, symSize: 0x30 }
  - { offset: 0x2B78C1, size: 0x8, addend: 0x0, symName: _ggml_solve_tri.cold.8, symObjAddr: 0x18EE0, symBinAddr: 0x1C3190, symSize: 0x30 }
  - { offset: 0x2B78D9, size: 0x8, addend: 0x0, symName: _ggml_solve_tri.cold.1, symObjAddr: 0x18D90, symBinAddr: 0x1C3040, symSize: 0x30 }
  - { offset: 0x2B78F1, size: 0x8, addend: 0x0, symName: _ggml_solve_tri.cold.2, symObjAddr: 0x18DC0, symBinAddr: 0x1C3070, symSize: 0x30 }
  - { offset: 0x2B7909, size: 0x8, addend: 0x0, symName: _ggml_solve_tri.cold.3, symObjAddr: 0x18DF0, symBinAddr: 0x1C30A0, symSize: 0x30 }
  - { offset: 0x2B7921, size: 0x8, addend: 0x0, symName: _ggml_solve_tri.cold.4, symObjAddr: 0x18E20, symBinAddr: 0x1C30D0, symSize: 0x30 }
  - { offset: 0x2B7939, size: 0x8, addend: 0x0, symName: _ggml_solve_tri.cold.5, symObjAddr: 0x18E50, symBinAddr: 0x1C3100, symSize: 0x30 }
  - { offset: 0x2B7951, size: 0x8, addend: 0x0, symName: _ggml_solve_tri.cold.6, symObjAddr: 0x18E80, symBinAddr: 0x1C3130, symSize: 0x30 }
  - { offset: 0x2B7969, size: 0x8, addend: 0x0, symName: _ggml_solve_tri.cold.9, symObjAddr: 0x18F10, symBinAddr: 0x1C31C0, symSize: 0x30 }
  - { offset: 0x2B7981, size: 0x8, addend: 0x0, symName: _ggml_gated_delta_net, symObjAddr: 0xE360, symBinAddr: 0xB68B0, symSize: 0x430 }
  - { offset: 0x2B7ECD, size: 0x8, addend: 0x0, symName: _ggml_gated_delta_net.cold.4, symObjAddr: 0x18FD0, symBinAddr: 0x1C3280, symSize: 0x30 }
  - { offset: 0x2B7EE5, size: 0x8, addend: 0x0, symName: _ggml_gated_delta_net.cold.5, symObjAddr: 0x19000, symBinAddr: 0x1C32B0, symSize: 0x30 }
  - { offset: 0x2B7EFD, size: 0x8, addend: 0x0, symName: _ggml_gated_delta_net.cold.6, symObjAddr: 0x19030, symBinAddr: 0x1C32E0, symSize: 0x30 }
  - { offset: 0x2B7F15, size: 0x8, addend: 0x0, symName: _ggml_gated_delta_net.cold.7, symObjAddr: 0x19060, symBinAddr: 0x1C3310, symSize: 0x30 }
  - { offset: 0x2B7F2D, size: 0x8, addend: 0x0, symName: _ggml_gated_delta_net.cold.8, symObjAddr: 0x19090, symBinAddr: 0x1C3340, symSize: 0x30 }
  - { offset: 0x2B7F45, size: 0x8, addend: 0x0, symName: _ggml_gated_delta_net.cold.9, symObjAddr: 0x190C0, symBinAddr: 0x1C3370, symSize: 0x30 }
  - { offset: 0x2B7F5D, size: 0x8, addend: 0x0, symName: _ggml_gated_delta_net.cold.10, symObjAddr: 0x190F0, symBinAddr: 0x1C33A0, symSize: 0x30 }
  - { offset: 0x2B7F75, size: 0x8, addend: 0x0, symName: _ggml_gated_delta_net.cold.11, symObjAddr: 0x19120, symBinAddr: 0x1C33D0, symSize: 0x30 }
  - { offset: 0x2B7F8D, size: 0x8, addend: 0x0, symName: _ggml_gated_delta_net.cold.12, symObjAddr: 0x19150, symBinAddr: 0x1C3400, symSize: 0x30 }
  - { offset: 0x2B7FA5, size: 0x8, addend: 0x0, symName: _ggml_gated_delta_net.cold.13, symObjAddr: 0x19180, symBinAddr: 0x1C3430, symSize: 0x30 }
  - { offset: 0x2B7FBD, size: 0x8, addend: 0x0, symName: _ggml_gated_delta_net.cold.14, symObjAddr: 0x191B0, symBinAddr: 0x1C3460, symSize: 0x30 }
  - { offset: 0x2B7FD5, size: 0x8, addend: 0x0, symName: _ggml_gated_delta_net.cold.15, symObjAddr: 0x191E0, symBinAddr: 0x1C3490, symSize: 0x30 }
  - { offset: 0x2B7FED, size: 0x8, addend: 0x0, symName: _ggml_gated_delta_net.cold.16, symObjAddr: 0x19210, symBinAddr: 0x1C34C0, symSize: 0x30 }
  - { offset: 0x2B8005, size: 0x8, addend: 0x0, symName: _ggml_gated_delta_net.cold.17, symObjAddr: 0x19240, symBinAddr: 0x1C34F0, symSize: 0x30 }
  - { offset: 0x2B801D, size: 0x8, addend: 0x0, symName: _ggml_gated_delta_net.cold.18, symObjAddr: 0x19270, symBinAddr: 0x1C3520, symSize: 0x30 }
  - { offset: 0x2B8035, size: 0x8, addend: 0x0, symName: _ggml_gated_delta_net.cold.19, symObjAddr: 0x192A0, symBinAddr: 0x1C3550, symSize: 0x30 }
  - { offset: 0x2B804D, size: 0x8, addend: 0x0, symName: _ggml_gated_delta_net.cold.1, symObjAddr: 0x18F40, symBinAddr: 0x1C31F0, symSize: 0x30 }
  - { offset: 0x2B8065, size: 0x8, addend: 0x0, symName: _ggml_gated_delta_net.cold.2, symObjAddr: 0x18F70, symBinAddr: 0x1C3220, symSize: 0x30 }
  - { offset: 0x2B807D, size: 0x8, addend: 0x0, symName: _ggml_gated_delta_net.cold.3, symObjAddr: 0x18FA0, symBinAddr: 0x1C3250, symSize: 0x30 }
  - { offset: 0x2B8138, size: 0x8, addend: 0x0, symName: _ggml_hash_set_new, symObjAddr: 0xE790, symBinAddr: 0xB6CE0, symSize: 0x120 }
  - { offset: 0x2B82A9, size: 0x8, addend: 0x0, symName: _ggml_hash_set_new.cold.1, symObjAddr: 0x192D0, symBinAddr: 0x1C3580, symSize: 0x60 }
  - { offset: 0x2B82E3, size: 0x8, addend: 0x0, symName: _ggml_hash_set_new.cold.2, symObjAddr: 0x19330, symBinAddr: 0x1C35E0, symSize: 0x40 }
  - { offset: 0x2B8312, size: 0x8, addend: 0x0, symName: _ggml_hash_set_reset, symObjAddr: 0xE910, symBinAddr: 0xB6E60, symSize: 0x20 }
  - { offset: 0x2B8350, size: 0x8, addend: 0x0, symName: _ggml_hash_set_free, symObjAddr: 0xE930, symBinAddr: 0xB6E80, symSize: 0x30 }
  - { offset: 0x2B83EE, size: 0x8, addend: 0x0, symName: _ggml_build_forward_select, symObjAddr: 0xE960, symBinAddr: 0xB6EB0, symSize: 0xA0 }
  - { offset: 0x2B84F2, size: 0x8, addend: 0x0, symName: _ggml_visit_parents_graph, symObjAddr: 0x13E10, symBinAddr: 0xBC360, symSize: 0x510 }
  - { offset: 0x2B88D3, size: 0x8, addend: 0x0, symName: _ggml_build_forward_select.cold.2, symObjAddr: 0x193A0, symBinAddr: 0x1C3650, symSize: 0x30 }
  - { offset: 0x2B8902, size: 0x8, addend: 0x0, symName: _ggml_build_forward_select.cold.1, symObjAddr: 0x19370, symBinAddr: 0x1C3620, symSize: 0x30 }
  - { offset: 0x2B891A, size: 0x8, addend: 0x0, symName: _ggml_build_forward_expand, symObjAddr: 0xEA00, symBinAddr: 0xB6F50, symSize: 0x50 }
  - { offset: 0x2B89C1, size: 0x8, addend: 0x0, symName: _ggml_build_forward_expand.cold.1, symObjAddr: 0x193D0, symBinAddr: 0x1C3680, symSize: 0x30 }
  - { offset: 0x2B93FC, size: 0x8, addend: 0x0, symName: _ggml_build_backward_expand, symObjAddr: 0xEA50, symBinAddr: 0xB6FA0, symSize: 0x2790 }
  - { offset: 0x2BCC62, size: 0x8, addend: 0x0, symName: _ggml_build_backward_expand.cold.5, symObjAddr: 0x194C0, symBinAddr: 0x1C3770, symSize: 0x30 }
  - { offset: 0x2BCC7A, size: 0x8, addend: 0x0, symName: _ggml_add_or_set, symObjAddr: 0x14320, symBinAddr: 0xBC870, symSize: 0xC0 }
  - { offset: 0x2BCDB8, size: 0x8, addend: 0x0, symName: _ggml_sub_or_set, symObjAddr: 0x143E0, symBinAddr: 0xBC930, symSize: 0x110 }
  - { offset: 0x2BD048, size: 0x8, addend: 0x0, symName: _ggml_add1_or_set, symObjAddr: 0x144F0, symBinAddr: 0xBCA40, symSize: 0xC0 }
  - { offset: 0x2BD19C, size: 0x8, addend: 0x0, symName: _ggml_build_backward_expand.cold.25, symObjAddr: 0x198B0, symBinAddr: 0x1C3B60, symSize: 0x30 }
  - { offset: 0x2BD210, size: 0x8, addend: 0x0, symName: _ggml_build_backward_expand.cold.7, symObjAddr: 0x19520, symBinAddr: 0x1C37D0, symSize: 0x30 }
  - { offset: 0x2BD228, size: 0x8, addend: 0x0, symName: _ggml_build_backward_expand.cold.6, symObjAddr: 0x194F0, symBinAddr: 0x1C37A0, symSize: 0x30 }
  - { offset: 0x2BD240, size: 0x8, addend: 0x0, symName: _ggml_build_backward_expand.cold.52, symObjAddr: 0x19DC0, symBinAddr: 0x1C4070, symSize: 0x30 }
  - { offset: 0x2BD26F, size: 0x8, addend: 0x0, symName: _ggml_build_backward_expand.cold.53, symObjAddr: 0x19DF0, symBinAddr: 0x1C40A0, symSize: 0x30 }
  - { offset: 0x2BD29E, size: 0x8, addend: 0x0, symName: _ggml_build_backward_expand.cold.54, symObjAddr: 0x19E20, symBinAddr: 0x1C40D0, symSize: 0x30 }
  - { offset: 0x2BD2CD, size: 0x8, addend: 0x0, symName: _ggml_build_backward_expand.cold.4, symObjAddr: 0x19490, symBinAddr: 0x1C3740, symSize: 0x30 }
  - { offset: 0x2BD2E5, size: 0x8, addend: 0x0, symName: _ggml_build_backward_expand.cold.1, symObjAddr: 0x19400, symBinAddr: 0x1C36B0, symSize: 0x30 }
  - { offset: 0x2BD2FD, size: 0x8, addend: 0x0, symName: _ggml_build_backward_expand.cold.57, symObjAddr: 0x19EC0, symBinAddr: 0x1C4170, symSize: 0x30 }
  - { offset: 0x2BD315, size: 0x8, addend: 0x0, symName: _ggml_build_backward_expand.cold.56, symObjAddr: 0x19E90, symBinAddr: 0x1C4140, symSize: 0x30 }
  - { offset: 0x2BD32D, size: 0x8, addend: 0x0, symName: _ggml_build_backward_expand.cold.2, symObjAddr: 0x19430, symBinAddr: 0x1C36E0, symSize: 0x30 }
  - { offset: 0x2BD345, size: 0x8, addend: 0x0, symName: _ggml_build_backward_expand.cold.3, symObjAddr: 0x19460, symBinAddr: 0x1C3710, symSize: 0x30 }
  - { offset: 0x2BD35D, size: 0x8, addend: 0x0, symName: _ggml_build_backward_expand.cold.12, symObjAddr: 0x19610, symBinAddr: 0x1C38C0, symSize: 0x30 }
  - { offset: 0x2BD3A3, size: 0x8, addend: 0x0, symName: _ggml_build_backward_expand.cold.36, symObjAddr: 0x19AC0, symBinAddr: 0x1C3D70, symSize: 0x30 }
  - { offset: 0x2BD3E9, size: 0x8, addend: 0x0, symName: _ggml_build_backward_expand.cold.47, symObjAddr: 0x19CD0, symBinAddr: 0x1C3F80, symSize: 0x30 }
  - { offset: 0x2BD446, size: 0x8, addend: 0x0, symName: _ggml_build_backward_expand.cold.49, symObjAddr: 0x19D30, symBinAddr: 0x1C3FE0, symSize: 0x30 }
  - { offset: 0x2BD4A3, size: 0x8, addend: 0x0, symName: _ggml_build_backward_expand.cold.45, symObjAddr: 0x19C70, symBinAddr: 0x1C3F20, symSize: 0x30 }
  - { offset: 0x2BD4E9, size: 0x8, addend: 0x0, symName: _ggml_build_backward_expand.cold.8, symObjAddr: 0x19550, symBinAddr: 0x1C3800, symSize: 0x30 }
  - { offset: 0x2BD544, size: 0x8, addend: 0x0, symName: _ggml_build_backward_expand.cold.11, symObjAddr: 0x195E0, symBinAddr: 0x1C3890, symSize: 0x30 }
  - { offset: 0x2BD573, size: 0x8, addend: 0x0, symName: _ggml_build_backward_expand.cold.17, symObjAddr: 0x19730, symBinAddr: 0x1C39E0, symSize: 0x30 }
  - { offset: 0x2BD5A2, size: 0x8, addend: 0x0, symName: _ggml_build_backward_expand.cold.16, symObjAddr: 0x19700, symBinAddr: 0x1C39B0, symSize: 0x30 }
  - { offset: 0x2BD5D1, size: 0x8, addend: 0x0, symName: _ggml_build_backward_expand.cold.29, symObjAddr: 0x19970, symBinAddr: 0x1C3C20, symSize: 0x30 }
  - { offset: 0x2BD600, size: 0x8, addend: 0x0, symName: _ggml_build_backward_expand.cold.55, symObjAddr: 0x19E50, symBinAddr: 0x1C4100, symSize: 0x40 }
  - { offset: 0x2BD64F, size: 0x8, addend: 0x0, symName: _ggml_build_backward_expand.cold.24, symObjAddr: 0x19880, symBinAddr: 0x1C3B30, symSize: 0x30 }
  - { offset: 0x2BD6C3, size: 0x8, addend: 0x0, symName: _ggml_build_backward_expand.cold.9, symObjAddr: 0x19580, symBinAddr: 0x1C3830, symSize: 0x30 }
  - { offset: 0x2BD6F2, size: 0x8, addend: 0x0, symName: _ggml_build_backward_expand.cold.14, symObjAddr: 0x196A0, symBinAddr: 0x1C3950, symSize: 0x30 }
  - { offset: 0x2BD74F, size: 0x8, addend: 0x0, symName: _ggml_build_backward_expand.cold.15, symObjAddr: 0x196D0, symBinAddr: 0x1C3980, symSize: 0x30 }
  - { offset: 0x2BD7AC, size: 0x8, addend: 0x0, symName: _ggml_build_backward_expand.cold.37, symObjAddr: 0x19AF0, symBinAddr: 0x1C3DA0, symSize: 0x30 }
  - { offset: 0x2BD809, size: 0x8, addend: 0x0, symName: _ggml_build_backward_expand.cold.48, symObjAddr: 0x19D00, symBinAddr: 0x1C3FB0, symSize: 0x30 }
  - { offset: 0x2BD87D, size: 0x8, addend: 0x0, symName: _ggml_build_backward_expand.cold.38, symObjAddr: 0x19B20, symBinAddr: 0x1C3DD0, symSize: 0x30 }
  - { offset: 0x2BD8AC, size: 0x8, addend: 0x0, symName: _ggml_build_backward_expand.cold.39, symObjAddr: 0x19B50, symBinAddr: 0x1C3E00, symSize: 0x30 }
  - { offset: 0x2BD8DB, size: 0x8, addend: 0x0, symName: _ggml_build_backward_expand.cold.40, symObjAddr: 0x19B80, symBinAddr: 0x1C3E30, symSize: 0x30 }
  - { offset: 0x2BD90A, size: 0x8, addend: 0x0, symName: _ggml_build_backward_expand.cold.41, symObjAddr: 0x19BB0, symBinAddr: 0x1C3E60, symSize: 0x30 }
  - { offset: 0x2BD939, size: 0x8, addend: 0x0, symName: _ggml_build_backward_expand.cold.51, symObjAddr: 0x19D90, symBinAddr: 0x1C4040, symSize: 0x30 }
  - { offset: 0x2BD9AD, size: 0x8, addend: 0x0, symName: _ggml_build_backward_expand.cold.50, symObjAddr: 0x19D60, symBinAddr: 0x1C4010, symSize: 0x30 }
  - { offset: 0x2BDA21, size: 0x8, addend: 0x0, symName: _ggml_build_backward_expand.cold.31, symObjAddr: 0x199D0, symBinAddr: 0x1C3C80, symSize: 0x30 }
  - { offset: 0x2BDA50, size: 0x8, addend: 0x0, symName: _ggml_build_backward_expand.cold.35, symObjAddr: 0x19A90, symBinAddr: 0x1C3D40, symSize: 0x30 }
  - { offset: 0x2BDAC4, size: 0x8, addend: 0x0, symName: _ggml_build_backward_expand.cold.46, symObjAddr: 0x19CA0, symBinAddr: 0x1C3F50, symSize: 0x30 }
  - { offset: 0x2BDB21, size: 0x8, addend: 0x0, symName: _ggml_build_backward_expand.cold.18, symObjAddr: 0x19760, symBinAddr: 0x1C3A10, symSize: 0x30 }
  - { offset: 0x2BDB7E, size: 0x8, addend: 0x0, symName: _ggml_build_backward_expand.cold.19, symObjAddr: 0x19790, symBinAddr: 0x1C3A40, symSize: 0x30 }
  - { offset: 0x2BDBDB, size: 0x8, addend: 0x0, symName: _ggml_build_backward_expand.cold.44, symObjAddr: 0x19C40, symBinAddr: 0x1C3EF0, symSize: 0x30 }
  - { offset: 0x2BDC38, size: 0x8, addend: 0x0, symName: _ggml_build_backward_expand.cold.30, symObjAddr: 0x199A0, symBinAddr: 0x1C3C50, symSize: 0x30 }
  - { offset: 0x2BDC67, size: 0x8, addend: 0x0, symName: _ggml_build_backward_expand.cold.27, symObjAddr: 0x19910, symBinAddr: 0x1C3BC0, symSize: 0x30 }
  - { offset: 0x2BDCAD, size: 0x8, addend: 0x0, symName: _ggml_build_backward_expand.cold.42, symObjAddr: 0x19BE0, symBinAddr: 0x1C3E90, symSize: 0x30 }
  - { offset: 0x2BDCDC, size: 0x8, addend: 0x0, symName: _ggml_build_backward_expand.cold.43, symObjAddr: 0x19C10, symBinAddr: 0x1C3EC0, symSize: 0x30 }
  - { offset: 0x2BDD50, size: 0x8, addend: 0x0, symName: _ggml_build_backward_expand.cold.13, symObjAddr: 0x19640, symBinAddr: 0x1C38F0, symSize: 0x60 }
  - { offset: 0x2BDDAB, size: 0x8, addend: 0x0, symName: _ggml_build_backward_expand.cold.28, symObjAddr: 0x19940, symBinAddr: 0x1C3BF0, symSize: 0x30 }
  - { offset: 0x2BDDDA, size: 0x8, addend: 0x0, symName: _ggml_build_backward_expand.cold.32, symObjAddr: 0x19A00, symBinAddr: 0x1C3CB0, symSize: 0x30 }
  - { offset: 0x2BDE09, size: 0x8, addend: 0x0, symName: _ggml_build_backward_expand.cold.10, symObjAddr: 0x195B0, symBinAddr: 0x1C3860, symSize: 0x30 }
  - { offset: 0x2BDE7D, size: 0x8, addend: 0x0, symName: _ggml_build_backward_expand.cold.33, symObjAddr: 0x19A30, symBinAddr: 0x1C3CE0, symSize: 0x30 }
  - { offset: 0x2BDEAC, size: 0x8, addend: 0x0, symName: _ggml_build_backward_expand.cold.34, symObjAddr: 0x19A60, symBinAddr: 0x1C3D10, symSize: 0x30 }
  - { offset: 0x2BDF20, size: 0x8, addend: 0x0, symName: _ggml_build_backward_expand.cold.26, symObjAddr: 0x198E0, symBinAddr: 0x1C3B90, symSize: 0x30 }
  - { offset: 0x2BDFAB, size: 0x8, addend: 0x0, symName: _ggml_build_backward_expand.cold.20, symObjAddr: 0x197C0, symBinAddr: 0x1C3A70, symSize: 0x30 }
  - { offset: 0x2BDFDA, size: 0x8, addend: 0x0, symName: _ggml_build_backward_expand.cold.21, symObjAddr: 0x197F0, symBinAddr: 0x1C3AA0, symSize: 0x30 }
  - { offset: 0x2BE009, size: 0x8, addend: 0x0, symName: _ggml_build_backward_expand.cold.22, symObjAddr: 0x19820, symBinAddr: 0x1C3AD0, symSize: 0x30 }
  - { offset: 0x2BE038, size: 0x8, addend: 0x0, symName: _ggml_build_backward_expand.cold.23, symObjAddr: 0x19850, symBinAddr: 0x1C3B00, symSize: 0x30 }
  - { offset: 0x2BE0FA, size: 0x8, addend: 0x0, symName: _ggml_graph_overhead_custom, symObjAddr: 0x111E0, symBinAddr: 0xB9730, symSize: 0xA0 }
  - { offset: 0x2BE258, size: 0x8, addend: 0x0, symName: _ggml_graph_overhead, symObjAddr: 0x11280, symBinAddr: 0xB97D0, symSize: 0x80 }
  - { offset: 0x2BE3AD, size: 0x8, addend: 0x0, symName: _ggml_new_graph_custom, symObjAddr: 0x11300, symBinAddr: 0xB9850, symSize: 0x1F0 }
  - { offset: 0x2BE6D2, size: 0x8, addend: 0x0, symName: _ggml_new_graph, symObjAddr: 0x114F0, symBinAddr: 0xB9A40, symSize: 0x20 }
  - { offset: 0x2BE722, size: 0x8, addend: 0x0, symName: _ggml_graph_view, symObjAddr: 0x11510, symBinAddr: 0xB9A60, symSize: 0x70 }
  - { offset: 0x2BE7E3, size: 0x8, addend: 0x0, symName: _ggml_graph_cpy, symObjAddr: 0x11580, symBinAddr: 0xB9AD0, symSize: 0x510 }
  - { offset: 0x2BEB79, size: 0x8, addend: 0x0, symName: _ggml_graph_cpy.cold.1, symObjAddr: 0x19EF0, symBinAddr: 0x1C41A0, symSize: 0x20 }
  - { offset: 0x2BEBA8, size: 0x8, addend: 0x0, symName: _ggml_graph_cpy.cold.5, symObjAddr: 0x19FA0, symBinAddr: 0x1C4250, symSize: 0x30 }
  - { offset: 0x2BEBC0, size: 0x8, addend: 0x0, symName: _ggml_graph_cpy.cold.4, symObjAddr: 0x19F70, symBinAddr: 0x1C4220, symSize: 0x30 }
  - { offset: 0x2BEBD8, size: 0x8, addend: 0x0, symName: _ggml_graph_cpy.cold.3, symObjAddr: 0x19F40, symBinAddr: 0x1C41F0, symSize: 0x30 }
  - { offset: 0x2BEBF0, size: 0x8, addend: 0x0, symName: _ggml_graph_cpy.cold.2, symObjAddr: 0x19F10, symBinAddr: 0x1C41C0, symSize: 0x30 }
  - { offset: 0x2BEC08, size: 0x8, addend: 0x0, symName: _ggml_graph_cpy.cold.10, symObjAddr: 0x1A090, symBinAddr: 0x1C4340, symSize: 0x30 }
  - { offset: 0x2BEC20, size: 0x8, addend: 0x0, symName: _ggml_graph_cpy.cold.9, symObjAddr: 0x1A060, symBinAddr: 0x1C4310, symSize: 0x30 }
  - { offset: 0x2BEC38, size: 0x8, addend: 0x0, symName: _ggml_graph_cpy.cold.8, symObjAddr: 0x1A030, symBinAddr: 0x1C42E0, symSize: 0x30 }
  - { offset: 0x2BEC50, size: 0x8, addend: 0x0, symName: _ggml_graph_cpy.cold.7, symObjAddr: 0x1A000, symBinAddr: 0x1C42B0, symSize: 0x30 }
  - { offset: 0x2BEC68, size: 0x8, addend: 0x0, symName: _ggml_graph_cpy.cold.6, symObjAddr: 0x19FD0, symBinAddr: 0x1C4280, symSize: 0x30 }
  - { offset: 0x2BEC80, size: 0x8, addend: 0x0, symName: _ggml_graph_dup, symObjAddr: 0x11A90, symBinAddr: 0xB9FE0, symSize: 0x40 }
  - { offset: 0x2BED0D, size: 0x8, addend: 0x0, symName: _ggml_set_zero, symObjAddr: 0x11AD0, symBinAddr: 0xBA020, symSize: 0x1B0 }
  - { offset: 0x2BEEB2, size: 0x8, addend: 0x0, symName: _ggml_set_zero.cold.1, symObjAddr: 0x1A0C0, symBinAddr: 0x1C4370, symSize: 0x30 }
  - { offset: 0x2BEF00, size: 0x8, addend: 0x0, symName: _ggml_graph_reset, symObjAddr: 0x11C80, symBinAddr: 0xBA1D0, symSize: 0x1F0 }
  - { offset: 0x2BF0D3, size: 0x8, addend: 0x0, symName: _ggml_graph_get_grad_acc, symObjAddr: 0x11E70, symBinAddr: 0xBA3C0, symSize: 0x80 }
  - { offset: 0x2BF0FF, size: 0x8, addend: 0x0, symName: _ggml_graph_reset.cold.2, symObjAddr: 0x1A120, symBinAddr: 0x1C43D0, symSize: 0x30 }
  - { offset: 0x2BF117, size: 0x8, addend: 0x0, symName: _ggml_graph_reset.cold.1, symObjAddr: 0x1A0F0, symBinAddr: 0x1C43A0, symSize: 0x30 }
  - { offset: 0x2BF12F, size: 0x8, addend: 0x0, symName: _ggml_graph_reset.cold.3, symObjAddr: 0x1A150, symBinAddr: 0x1C4400, symSize: 0x30 }
  - { offset: 0x2BF147, size: 0x8, addend: 0x0, symName: _ggml_graph_reset.cold.4, symObjAddr: 0x1A180, symBinAddr: 0x1C4430, symSize: 0x30 }
  - { offset: 0x2BF15F, size: 0x8, addend: 0x0, symName: _ggml_graph_get_grad_acc, symObjAddr: 0x11E70, symBinAddr: 0xBA3C0, symSize: 0x80 }
  - { offset: 0x2BF211, size: 0x8, addend: 0x0, symName: _ggml_graph_clear, symObjAddr: 0x11EF0, symBinAddr: 0xBA440, symSize: 0x30 }
  - { offset: 0x2BF27A, size: 0x8, addend: 0x0, symName: _ggml_graph_size, symObjAddr: 0x11F20, symBinAddr: 0xBA470, symSize: 0x10 }
  - { offset: 0x2BF2A5, size: 0x8, addend: 0x0, symName: _ggml_graph_node, symObjAddr: 0x11F30, symBinAddr: 0xBA480, symSize: 0x30 }
  - { offset: 0x2BF2FF, size: 0x8, addend: 0x0, symName: _ggml_graph_node.cold.1, symObjAddr: 0x1A1B0, symBinAddr: 0x1C4460, symSize: 0x30 }
  - { offset: 0x2BF317, size: 0x8, addend: 0x0, symName: _ggml_graph_node.cold.2, symObjAddr: 0x1A1E0, symBinAddr: 0x1C4490, symSize: 0x30 }
  - { offset: 0x2BF32F, size: 0x8, addend: 0x0, symName: _ggml_graph_nodes, symObjAddr: 0x11F60, symBinAddr: 0xBA4B0, symSize: 0x10 }
  - { offset: 0x2BF35A, size: 0x8, addend: 0x0, symName: _ggml_graph_n_nodes, symObjAddr: 0x11F70, symBinAddr: 0xBA4C0, symSize: 0x10 }
  - { offset: 0x2BF385, size: 0x8, addend: 0x0, symName: _ggml_graph_add_node, symObjAddr: 0x11F80, symBinAddr: 0xBA4D0, symSize: 0x20 }
  - { offset: 0x2BF3CD, size: 0x8, addend: 0x0, symName: _ggml_graph_add_node.cold.1, symObjAddr: 0x1A210, symBinAddr: 0x1C44C0, symSize: 0x30 }
  - { offset: 0x2BF3E5, size: 0x8, addend: 0x0, symName: _ggml_graph_get_tensor, symObjAddr: 0x11FA0, symBinAddr: 0xBA4F0, symSize: 0xB0 }
  - { offset: 0x2BF4DF, size: 0x8, addend: 0x0, symName: _ggml_graph_get_grad, symObjAddr: 0x12050, symBinAddr: 0xBA5A0, symSize: 0x80 }
  - { offset: 0x2BF5AD, size: 0x8, addend: 0x0, symName: _ggml_graph_print, symObjAddr: 0x120D0, symBinAddr: 0xBA620, symSize: 0x220 }
  - { offset: 0x2BF893, size: 0x8, addend: 0x0, symName: _ggml_can_fuse_subgraph_ext, symObjAddr: 0x122F0, symBinAddr: 0xBA840, symSize: 0x2C0 }
  - { offset: 0x2BFB68, size: 0x8, addend: 0x0, symName: _ggml_can_fuse_subgraph_ext.cold.1, symObjAddr: 0x1A240, symBinAddr: 0x1C44F0, symSize: 0x30 }
  - { offset: 0x2BFB80, size: 0x8, addend: 0x0, symName: _ggml_can_fuse_subgraph_ext.cold.2, symObjAddr: 0x1A270, symBinAddr: 0x1C4520, symSize: 0x30 }
  - { offset: 0x2BFD44, size: 0x8, addend: 0x0, symName: _ggml_graph_dump_dot, symObjAddr: 0x125B0, symBinAddr: 0xBAB00, symSize: 0xB70 }
  - { offset: 0x2C0858, size: 0x8, addend: 0x0, symName: _ggml_graph_dump_dot.cold.1, symObjAddr: 0x1A2A0, symBinAddr: 0x1C4550, symSize: 0x30 }
  - { offset: 0x2C0870, size: 0x8, addend: 0x0, symName: _ggml_set_input, symObjAddr: 0x13120, symBinAddr: 0xBB670, symSize: 0x10 }
  - { offset: 0x2C0897, size: 0x8, addend: 0x0, symName: _ggml_set_output, symObjAddr: 0x13130, symBinAddr: 0xBB680, symSize: 0x10 }
  - { offset: 0x2C08BE, size: 0x8, addend: 0x0, symName: _ggml_set_param, symObjAddr: 0x13140, symBinAddr: 0xBB690, symSize: 0x20 }
  - { offset: 0x2C08F5, size: 0x8, addend: 0x0, symName: _ggml_set_param.cold.1, symObjAddr: 0x1A2D0, symBinAddr: 0x1C4580, symSize: 0x30 }
  - { offset: 0x2C090D, size: 0x8, addend: 0x0, symName: _ggml_set_loss, symObjAddr: 0x13160, symBinAddr: 0xBB6B0, symSize: 0x40 }
  - { offset: 0x2C0971, size: 0x8, addend: 0x0, symName: _ggml_set_loss.cold.1, symObjAddr: 0x1A300, symBinAddr: 0x1C45B0, symSize: 0x30 }
  - { offset: 0x2C0989, size: 0x8, addend: 0x0, symName: _ggml_set_loss.cold.2, symObjAddr: 0x1A330, symBinAddr: 0x1C45E0, symSize: 0x30 }
  - { offset: 0x2C09A1, size: 0x8, addend: 0x0, symName: _ggml_quantize_init, symObjAddr: 0x131A0, symBinAddr: 0xBB6F0, symSize: 0x60 }
  - { offset: 0x2C0A2C, size: 0x8, addend: 0x0, symName: _ggml_quantize_free, symObjAddr: 0x13200, symBinAddr: 0xBB750, symSize: 0x60 }
  - { offset: 0x2C0B15, size: 0x8, addend: 0x0, symName: _ggml_quantize_requires_imatrix, symObjAddr: 0x13260, symBinAddr: 0xBB7B0, symSize: 0x20 }
  - { offset: 0x2C0BE7, size: 0x8, addend: 0x0, symName: _ggml_quantize_chunk, symObjAddr: 0x13280, symBinAddr: 0xBB7D0, symSize: 0xA60 }
  - { offset: 0x2C1382, size: 0x8, addend: 0x0, symName: _ggml_quantize_chunk.cold.1, symObjAddr: 0x1A360, symBinAddr: 0x1C4610, symSize: 0x30 }
  - { offset: 0x2C17A2, size: 0x8, addend: 0x0, symName: _ggml_quantize_chunk.cold.4, symObjAddr: 0x1A3F0, symBinAddr: 0x1C46A0, symSize: 0x30 }
  - { offset: 0x2C17BA, size: 0x8, addend: 0x0, symName: _ggml_quantize_chunk.cold.2, symObjAddr: 0x1A390, symBinAddr: 0x1C4640, symSize: 0x30 }
  - { offset: 0x2C17D2, size: 0x8, addend: 0x0, symName: _ggml_quantize_chunk.cold.3, symObjAddr: 0x1A3C0, symBinAddr: 0x1C4670, symSize: 0x30 }
  - { offset: 0x2C17EA, size: 0x8, addend: 0x0, symName: _ggml_log_get, symObjAddr: 0x13CE0, symBinAddr: 0xBC230, symSize: 0x20 }
  - { offset: 0x2C1820, size: 0x8, addend: 0x0, symName: _ggml_log_set, symObjAddr: 0x13D00, symBinAddr: 0xBC250, symSize: 0x30 }
  - { offset: 0x2C1856, size: 0x8, addend: 0x0, symName: _ggml_threadpool_params_init, symObjAddr: 0x13D30, symBinAddr: 0xBC280, symSize: 0x40 }
  - { offset: 0x2C191C, size: 0x8, addend: 0x0, symName: _ggml_threadpool_params_default, symObjAddr: 0x13D70, symBinAddr: 0xBC2C0, symSize: 0x40 }
  - { offset: 0x2C1983, size: 0x8, addend: 0x0, symName: _ggml_threadpool_params_match, symObjAddr: 0x13DB0, symBinAddr: 0xBC300, symSize: 0x60 }
  - { offset: 0x2C19F7, size: 0x8, addend: 0x0, symName: _ggml_visit_parents_graph.cold.3, symObjAddr: 0x1A480, symBinAddr: 0x1C4730, symSize: 0x30 }
  - { offset: 0x2C1A0F, size: 0x8, addend: 0x0, symName: _ggml_visit_parents_graph.cold.1, symObjAddr: 0x1A420, symBinAddr: 0x1C46D0, symSize: 0x30 }
  - { offset: 0x2C1A27, size: 0x8, addend: 0x0, symName: _ggml_visit_parents_graph.cold.2, symObjAddr: 0x1A450, symBinAddr: 0x1C4700, symSize: 0x30 }
  - { offset: 0x2C1A3F, size: 0x8, addend: 0x0, symName: _ggml_add_or_set.cold.2, symObjAddr: 0x1A4E0, symBinAddr: 0x1C4790, symSize: 0x30 }
  - { offset: 0x2C1A57, size: 0x8, addend: 0x0, symName: _ggml_add_or_set.cold.1, symObjAddr: 0x1A4B0, symBinAddr: 0x1C4760, symSize: 0x30 }
  - { offset: 0x2C1A9D, size: 0x8, addend: 0x0, symName: _ggml_sub_or_set.cold.3, symObjAddr: 0x1A570, symBinAddr: 0x1C4820, symSize: 0x30 }
  - { offset: 0x2C1AB5, size: 0x8, addend: 0x0, symName: _ggml_sub_or_set.cold.2, symObjAddr: 0x1A540, symBinAddr: 0x1C47F0, symSize: 0x30 }
  - { offset: 0x2C1AFB, size: 0x8, addend: 0x0, symName: _ggml_sub_or_set.cold.1, symObjAddr: 0x1A510, symBinAddr: 0x1C47C0, symSize: 0x30 }
  - { offset: 0x2C1B58, size: 0x8, addend: 0x0, symName: _ggml_add1_or_set.cold.2, symObjAddr: 0x1A5D0, symBinAddr: 0x1C4880, symSize: 0x25 }
  - { offset: 0x2C1B70, size: 0x8, addend: 0x0, symName: _ggml_add1_or_set.cold.1, symObjAddr: 0x1A5A0, symBinAddr: 0x1C4850, symSize: 0x30 }
  - { offset: 0x2C1DB1, size: 0x8, addend: 0x0, symName: __ZL26previous_terminate_handler, symObjAddr: 0x6330, symBinAddr: 0x2923A8, symSize: 0x0 }
  - { offset: 0x2C2AEB, size: 0x8, addend: 0x0, symName: __ZL23ggml_uncaught_exceptionv, symObjAddr: 0x0, symBinAddr: 0xBCB00, symSize: 0x1C }
  - { offset: 0x2C2BAC, size: 0x8, addend: 0x0, symName: __GLOBAL__sub_I_ggml.cpp, symObjAddr: 0x20, symBinAddr: 0xBCB20, symSize: 0x5D }
  - { offset: 0x2C4BAA, size: 0x8, addend: 0x0, symName: __ZL14GGUF_TYPE_SIZE, symObjAddr: 0x195B08, symBinAddr: 0x2923B0, symSize: 0x0 }
  - { offset: 0x2DEC70, size: 0x8, addend: 0x0, symName: __ZNSt3__134__uninitialized_allocator_relocateB9nqe220106INS_9allocatorI7gguf_kvEEPS2_EEvRT_T0_S7_S7_, symObjAddr: 0xA960, symBinAddr: 0xC7310, symSize: 0x150 }
  - { offset: 0x2DECCF, size: 0x8, addend: 0x0, symName: __ZNSt3__134__uninitialized_allocator_relocateB9nqe220106INS_9allocatorI7gguf_kvEEPS2_EEvRT_T0_S7_S7_, symObjAddr: 0xA960, symBinAddr: 0xC7310, symSize: 0x150 }
  - { offset: 0x2E135B, size: 0x8, addend: 0x0, symName: __ZNSt3__1plB9nqe220106IcNS_11char_traitsIcEENS_9allocatorIcEEEENS_12basic_stringIT_T0_T1_EEOS9_SA_, symObjAddr: 0x11580, symBinAddr: 0xCD8E0, symSize: 0x60 }
  - { offset: 0x2E3075, size: 0x8, addend: 0x0, symName: __ZL14GGUF_TYPE_NAME, symObjAddr: 0x195B20, symBinAddr: 0x2923C8, symSize: 0x0 }
  - { offset: 0x2E33C2, size: 0x8, addend: 0x0, symName: __ZTV15gguf_writer_buf, symObjAddr: 0x16E60, symBinAddr: 0x1F8730, symSize: 0x0 }
  - { offset: 0x2E3EC6, size: 0x8, addend: 0x0, symName: __ZTV16gguf_writer_file, symObjAddr: 0x16EB0, symBinAddr: 0x1F8780, symSize: 0x0 }
  - { offset: 0x2E4EF1, size: 0x8, addend: 0x0, symName: __ZNSt3__13mapI9gguf_typemNS_4lessIS1_EENS_9allocatorINS_4pairIKS1_mEEEEED1B9nqe220106Ev, symObjAddr: 0x0, symBinAddr: 0xBCB80, symSize: 0x30 }
  - { offset: 0x2E5028, size: 0x8, addend: 0x0, symName: __ZNSt3__16__treeINS_12__value_typeI9gguf_typemEENS_19__map_value_compareIS2_NS_4pairIKS2_mEENS_4lessIS2_EEEENS_9allocatorIS7_EEE14__tree_deleterclB9nqe220106EPNS_11__tree_nodeIS3_PvEE, symObjAddr: 0x118B0, symBinAddr: 0xCDA80, symSize: 0x50 }
  - { offset: 0x2E5205, size: 0x8, addend: 0x0, symName: __ZNSt3__13mapI9gguf_typePKcNS_4lessIS1_EENS_9allocatorINS_4pairIKS1_S3_EEEEED1B9nqe220106Ev, symObjAddr: 0x30, symBinAddr: 0xBCBB0, symSize: 0x30 }
  - { offset: 0x2E533C, size: 0x8, addend: 0x0, symName: __ZNSt3__16__treeINS_12__value_typeI9gguf_typePKcEENS_19__map_value_compareIS2_NS_4pairIKS2_S4_EENS_4lessIS2_EEEENS_9allocatorIS9_EEE14__tree_deleterclB9nqe220106EPNS_11__tree_nodeIS5_PvEE, symObjAddr: 0x11A40, symBinAddr: 0xCDC10, symSize: 0x50 }
  - { offset: 0x2E55C8, size: 0x8, addend: 0x0, symName: __Z14gguf_type_size9gguf_type, symObjAddr: 0x60, symBinAddr: 0xBCBE0, symSize: 0x60 }
  - { offset: 0x2E55F2, size: 0x8, addend: 0x0, symName: __Z14gguf_type_size9gguf_type, symObjAddr: 0x60, symBinAddr: 0xBCBE0, symSize: 0x60 }
  - { offset: 0x2E5607, size: 0x8, addend: 0x0, symName: __Z14gguf_type_size9gguf_type, symObjAddr: 0x60, symBinAddr: 0xBCBE0, symSize: 0x60 }
  - { offset: 0x2E561D, size: 0x8, addend: 0x0, symName: __Z14gguf_type_size9gguf_type, symObjAddr: 0x60, symBinAddr: 0xBCBE0, symSize: 0x60 }
  - { offset: 0x2E5633, size: 0x8, addend: 0x0, symName: __Z14gguf_type_size9gguf_type, symObjAddr: 0x60, symBinAddr: 0xBCBE0, symSize: 0x60 }
  - { offset: 0x2E5653, size: 0x8, addend: 0x0, symName: __Z14gguf_type_size9gguf_type, symObjAddr: 0x60, symBinAddr: 0xBCBE0, symSize: 0x60 }
  - { offset: 0x2E57E4, size: 0x8, addend: 0x0, symName: _gguf_init_empty, symObjAddr: 0xC0, symBinAddr: 0xBCC40, symSize: 0x40 }
  - { offset: 0x2E5E82, size: 0x8, addend: 0x0, symName: _gguf_init_from_callback, symObjAddr: 0x100, symBinAddr: 0xBCC80, symSize: 0x50 }
  - { offset: 0x2E5FA8, size: 0x8, addend: 0x0, symName: __ZL21gguf_init_from_readerRK11gguf_reader16gguf_init_params, symObjAddr: 0x150, symBinAddr: 0xBCCD0, symSize: 0x1D40 }
  - { offset: 0x2E9077, size: 0x8, addend: 0x0, symName: __ZNK11gguf_reader4readIcEEbRNSt3__16vectorIT_NS1_9allocatorIS3_EEEEm, symObjAddr: 0x7DB0, symBinAddr: 0xC48B0, symSize: 0x200 }
  - { offset: 0x2E96F2, size: 0x8, addend: 0x0, symName: __ZNSt3__16vectorI7gguf_kvNS_9allocatorIS1_EEE22__base_destruct_at_endB9nqe220106EPS1_, symObjAddr: 0x10590, symBinAddr: 0xCC8F0, symSize: 0xB0 }
  - { offset: 0x2E9C41, size: 0x8, addend: 0x0, symName: __ZNK11gguf_reader4readERNSt3__112basic_stringIcNS0_11char_traitsIcEENS0_9allocatorIcEEEE, symObjAddr: 0x7FB0, symBinAddr: 0xC4AB0, symSize: 0x1D0 }
  - { offset: 0x2E9F4D, size: 0x8, addend: 0x0, symName: __Z24gguf_read_emplace_helperIhEbRK11gguf_readerRNSt3__16vectorI7gguf_kvNS3_9allocatorIS5_EEEERKNS3_12basic_stringIcNS3_11char_traitsIcEENS6_IcEEEEbm, symObjAddr: 0x8250, symBinAddr: 0xC4D50, symSize: 0x2A0 }
  - { offset: 0x2EA8BE, size: 0x8, addend: 0x0, symName: __Z24gguf_read_emplace_helperIxEbRK11gguf_readerRNSt3__16vectorI7gguf_kvNS3_9allocatorIS5_EEEERKNS3_12basic_stringIcNS3_11char_traitsIcEENS6_IcEEEEbm, symObjAddr: 0x9D10, symBinAddr: 0xC6810, symSize: 0x2A0 }
  - { offset: 0x2EB29D, size: 0x8, addend: 0x0, symName: __Z24gguf_read_emplace_helperItEbRK11gguf_readerRNSt3__16vectorI7gguf_kvNS3_9allocatorIS5_EEEERKNS3_12basic_stringIcNS3_11char_traitsIcEENS6_IcEEEEbm, symObjAddr: 0x8790, symBinAddr: 0xC5290, symSize: 0x2A0 }
  - { offset: 0x2EBC74, size: 0x8, addend: 0x0, symName: __Z24gguf_read_emplace_helperIiEbRK11gguf_readerRNSt3__16vectorI7gguf_kvNS3_9allocatorIS5_EEEERKNS3_12basic_stringIcNS3_11char_traitsIcEENS6_IcEEEEbm, symObjAddr: 0x8F70, symBinAddr: 0xC5A70, symSize: 0x2A0 }
  - { offset: 0x2EC653, size: 0x8, addend: 0x0, symName: __Z24gguf_read_emplace_helperIdEbRK11gguf_readerRNSt3__16vectorI7gguf_kvNS3_9allocatorIS5_EEEERKNS3_12basic_stringIcNS3_11char_traitsIcEENS6_IcEEEEbm, symObjAddr: 0x9FB0, symBinAddr: 0xC6AB0, symSize: 0x2A0 }
  - { offset: 0x2ED032, size: 0x8, addend: 0x0, symName: __Z24gguf_read_emplace_helperIaEbRK11gguf_readerRNSt3__16vectorI7gguf_kvNS3_9allocatorIS5_EEEERKNS3_12basic_stringIcNS3_11char_traitsIcEENS6_IcEEEEbm, symObjAddr: 0x84F0, symBinAddr: 0xC4FF0, symSize: 0x2A0 }
  - { offset: 0x2ED9A3, size: 0x8, addend: 0x0, symName: __Z24gguf_read_emplace_helperIfEbRK11gguf_readerRNSt3__16vectorI7gguf_kvNS3_9allocatorIS5_EEEERKNS3_12basic_stringIcNS3_11char_traitsIcEENS6_IcEEEEbm, symObjAddr: 0x9210, symBinAddr: 0xC5D10, symSize: 0x2A0 }
  - { offset: 0x2EE382, size: 0x8, addend: 0x0, symName: __Z24gguf_read_emplace_helperIbEbRK11gguf_readerRNSt3__16vectorI7gguf_kvNS3_9allocatorIS5_EEEERKNS3_12basic_stringIcNS3_11char_traitsIcEENS6_IcEEEEbm, symObjAddr: 0x94B0, symBinAddr: 0xC5FB0, symSize: 0x2A0 }
  - { offset: 0x2EEC9B, size: 0x8, addend: 0x0, symName: __Z24gguf_read_emplace_helperIsEbRK11gguf_readerRNSt3__16vectorI7gguf_kvNS3_9allocatorIS5_EEEERKNS3_12basic_stringIcNS3_11char_traitsIcEENS6_IcEEEEbm, symObjAddr: 0x8A30, symBinAddr: 0xC5530, symSize: 0x2A0 }
  - { offset: 0x2EF672, size: 0x8, addend: 0x0, symName: __Z24gguf_read_emplace_helperIjEbRK11gguf_readerRNSt3__16vectorI7gguf_kvNS3_9allocatorIS5_EEEERKNS3_12basic_stringIcNS3_11char_traitsIcEENS6_IcEEEEbm, symObjAddr: 0x8CD0, symBinAddr: 0xC57D0, symSize: 0x2A0 }
  - { offset: 0x2F0051, size: 0x8, addend: 0x0, symName: __Z24gguf_read_emplace_helperIyEbRK11gguf_readerRNSt3__16vectorI7gguf_kvNS3_9allocatorIS5_EEEERKNS3_12basic_stringIcNS3_11char_traitsIcEENS6_IcEEEEbm, symObjAddr: 0x9A70, symBinAddr: 0xC6570, symSize: 0x2A0 }
  - { offset: 0x2F0A30, size: 0x8, addend: 0x0, symName: __Z24gguf_read_emplace_helperINSt3__112basic_stringIcNS0_11char_traitsIcEENS0_9allocatorIcEEEEEbRK11gguf_readerRNS0_6vectorI7gguf_kvNS4_ISB_EEEERKS6_bm, symObjAddr: 0x9750, symBinAddr: 0xC6250, symSize: 0x320 }
  - { offset: 0x2F16DB, size: 0x8, addend: 0x0, symName: _gguf_get_val_u32, symObjAddr: 0x2DA0, symBinAddr: 0xBF920, symSize: 0x170 }
  - { offset: 0x2F19A6, size: 0x8, addend: 0x0, symName: __ZNK11gguf_reader4readIyEEbRT_, symObjAddr: 0x8180, symBinAddr: 0xC4C80, symSize: 0xD0 }
  - { offset: 0x2F1AD8, size: 0x8, addend: 0x0, symName: __ZNSt3__16vectorI16gguf_tensor_infoNS_9allocatorIS1_EEE9push_backB9nqe220106ERKS1_, symObjAddr: 0x7050, symBinAddr: 0xC3B60, symSize: 0x60 }
  - { offset: 0x2F1C84, size: 0x8, addend: 0x0, symName: __ZNK11gguf_reader4readEPvm, symObjAddr: 0xA250, symBinAddr: 0xC6D50, symSize: 0xE0 }
  - { offset: 0x2F1E16, size: 0x8, addend: 0x0, symName: _gguf_free, symObjAddr: 0x2170, symBinAddr: 0xBECF0, symSize: 0x50 }
  - { offset: 0x2F20A9, size: 0x8, addend: 0x0, symName: _gguf_init_from_file_ptr, symObjAddr: 0x1E90, symBinAddr: 0xBEA10, symSize: 0xF0 }
  - { offset: 0x2F22F1, size: 0x8, addend: 0x0, symName: __ZL25gguf_file_reader_callbackPvS_ym, symObjAddr: 0x1F80, symBinAddr: 0xBEB00, symSize: 0x90 }
  - { offset: 0x2F23E0, size: 0x8, addend: 0x0, symName: _gguf_init_from_buffer, symObjAddr: 0x2010, symBinAddr: 0xBEB90, symSize: 0x70 }
  - { offset: 0x2F250C, size: 0x8, addend: 0x0, symName: __ZL27gguf_buffer_reader_callbackPvS_ym, symObjAddr: 0x2080, symBinAddr: 0xBEC00, symSize: 0x70 }
  - { offset: 0x2F25BA, size: 0x8, addend: 0x0, symName: _gguf_init_from_file, symObjAddr: 0x20F0, symBinAddr: 0xBEC70, symSize: 0x80 }
  - { offset: 0x2F2809, size: 0x8, addend: 0x0, symName: _gguf_type_name, symObjAddr: 0x21C0, symBinAddr: 0xBED40, symSize: 0x60 }
  - { offset: 0x2F2848, size: 0x8, addend: 0x0, symName: _gguf_type_name, symObjAddr: 0x21C0, symBinAddr: 0xBED40, symSize: 0x60 }
  - { offset: 0x2F285E, size: 0x8, addend: 0x0, symName: _gguf_type_name, symObjAddr: 0x21C0, symBinAddr: 0xBED40, symSize: 0x60 }
  - { offset: 0x2F2874, size: 0x8, addend: 0x0, symName: _gguf_type_name, symObjAddr: 0x21C0, symBinAddr: 0xBED40, symSize: 0x60 }
  - { offset: 0x2F288A, size: 0x8, addend: 0x0, symName: _gguf_type_name, symObjAddr: 0x21C0, symBinAddr: 0xBED40, symSize: 0x60 }
  - { offset: 0x2F28AA, size: 0x8, addend: 0x0, symName: _gguf_type_name, symObjAddr: 0x21C0, symBinAddr: 0xBED40, symSize: 0x60 }
  - { offset: 0x2F2942, size: 0x8, addend: 0x0, symName: _gguf_get_version, symObjAddr: 0x2220, symBinAddr: 0xBEDA0, symSize: 0x10 }
  - { offset: 0x2F296D, size: 0x8, addend: 0x0, symName: _gguf_get_alignment, symObjAddr: 0x2230, symBinAddr: 0xBEDB0, symSize: 0x10 }
  - { offset: 0x2F2998, size: 0x8, addend: 0x0, symName: _gguf_get_data_offset, symObjAddr: 0x2240, symBinAddr: 0xBEDC0, symSize: 0x10 }
  - { offset: 0x2F29C3, size: 0x8, addend: 0x0, symName: _gguf_get_n_kv, symObjAddr: 0x2250, symBinAddr: 0xBEDD0, symSize: 0x20 }
  - { offset: 0x2F2A01, size: 0x8, addend: 0x0, symName: _gguf_find_key, symObjAddr: 0x2270, symBinAddr: 0xBEDF0, symSize: 0xB0 }
  - { offset: 0x2F2BB0, size: 0x8, addend: 0x0, symName: _gguf_get_key, symObjAddr: 0x2320, symBinAddr: 0xBEEA0, symSize: 0x70 }
  - { offset: 0x2F2CF7, size: 0x8, addend: 0x0, symName: _gguf_get_kv_type, symObjAddr: 0x2390, symBinAddr: 0xBEF10, symSize: 0x70 }
  - { offset: 0x2F2DC0, size: 0x8, addend: 0x0, symName: _gguf_get_arr_type, symObjAddr: 0x2400, symBinAddr: 0xBEF80, symSize: 0x90 }
  - { offset: 0x2F2EBB, size: 0x8, addend: 0x0, symName: _gguf_get_arr_data, symObjAddr: 0x2490, symBinAddr: 0xBF010, symSize: 0x90 }
  - { offset: 0x2F2FE3, size: 0x8, addend: 0x0, symName: _gguf_get_arr_str, symObjAddr: 0x2520, symBinAddr: 0xBF0A0, symSize: 0xA0 }
  - { offset: 0x2F31FC, size: 0x8, addend: 0x0, symName: _gguf_get_arr_n, symObjAddr: 0x25C0, symBinAddr: 0xBF140, symSize: 0x110 }
  - { offset: 0x2F3427, size: 0x8, addend: 0x0, symName: _gguf_get_val_u8, symObjAddr: 0x26D0, symBinAddr: 0xBF250, symSize: 0x170 }
  - { offset: 0x2F3696, size: 0x8, addend: 0x0, symName: __ZNK7gguf_kv6get_neEv, symObjAddr: 0x2840, symBinAddr: 0xBF3C0, symSize: 0x110 }
  - { offset: 0x2F3881, size: 0x8, addend: 0x0, symName: _gguf_get_val_i8, symObjAddr: 0x2950, symBinAddr: 0xBF4D0, symSize: 0x170 }
  - { offset: 0x2F3B26, size: 0x8, addend: 0x0, symName: _gguf_get_val_u16, symObjAddr: 0x2AC0, symBinAddr: 0xBF640, symSize: 0x170 }
  - { offset: 0x2F3DCB, size: 0x8, addend: 0x0, symName: _gguf_get_val_i16, symObjAddr: 0x2C30, symBinAddr: 0xBF7B0, symSize: 0x170 }
  - { offset: 0x2F40A6, size: 0x8, addend: 0x0, symName: _gguf_get_val_i32, symObjAddr: 0x2F10, symBinAddr: 0xBFA90, symSize: 0x170 }
  - { offset: 0x2F434B, size: 0x8, addend: 0x0, symName: _gguf_get_val_f32, symObjAddr: 0x3080, symBinAddr: 0xBFC00, symSize: 0x170 }
  - { offset: 0x2F45F0, size: 0x8, addend: 0x0, symName: _gguf_get_val_u64, symObjAddr: 0x31F0, symBinAddr: 0xBFD70, symSize: 0x170 }
  - { offset: 0x2F4895, size: 0x8, addend: 0x0, symName: _gguf_get_val_i64, symObjAddr: 0x3360, symBinAddr: 0xBFEE0, symSize: 0x170 }
  - { offset: 0x2F4B3A, size: 0x8, addend: 0x0, symName: _gguf_get_val_f64, symObjAddr: 0x34D0, symBinAddr: 0xC0050, symSize: 0x170 }
  - { offset: 0x2F4DDF, size: 0x8, addend: 0x0, symName: _gguf_get_val_bool, symObjAddr: 0x3640, symBinAddr: 0xC01C0, symSize: 0x170 }
  - { offset: 0x2F5078, size: 0x8, addend: 0x0, symName: _gguf_get_val_str, symObjAddr: 0x37B0, symBinAddr: 0xC0330, symSize: 0x100 }
  - { offset: 0x2F5295, size: 0x8, addend: 0x0, symName: _gguf_get_val_data, symObjAddr: 0x38B0, symBinAddr: 0xC0430, symSize: 0xD0 }
  - { offset: 0x2F53E5, size: 0x8, addend: 0x0, symName: _gguf_get_n_tensors, symObjAddr: 0x3980, symBinAddr: 0xC0500, symSize: 0x20 }
  - { offset: 0x2F543E, size: 0x8, addend: 0x0, symName: _gguf_find_tensor, symObjAddr: 0x39A0, symBinAddr: 0xC0520, symSize: 0x90 }
  - { offset: 0x2F54DD, size: 0x8, addend: 0x0, symName: _gguf_get_tensor_name, symObjAddr: 0x3A30, symBinAddr: 0xC05B0, symSize: 0x60 }
  - { offset: 0x2F5572, size: 0x8, addend: 0x0, symName: _gguf_get_tensor_offset, symObjAddr: 0x3A90, symBinAddr: 0xC0610, symSize: 0x60 }
  - { offset: 0x2F5629, size: 0x8, addend: 0x0, symName: _gguf_get_tensor_type, symObjAddr: 0x3AF0, symBinAddr: 0xC0670, symSize: 0x60 }
  - { offset: 0x2F56DD, size: 0x8, addend: 0x0, symName: _gguf_get_tensor_size, symObjAddr: 0x3B50, symBinAddr: 0xC06D0, symSize: 0x60 }
  - { offset: 0x2F58AC, size: 0x8, addend: 0x0, symName: _gguf_remove_key, symObjAddr: 0x3BB0, symBinAddr: 0xC0730, symSize: 0x120 }
  - { offset: 0x2F5BEF, size: 0x8, addend: 0x0, symName: __ZN7gguf_kvaSEOS_, symObjAddr: 0x11BC0, symBinAddr: 0xCDD90, symSize: 0x130 }
  - { offset: 0x2F6663, size: 0x8, addend: 0x0, symName: _gguf_set_val_u8, symObjAddr: 0x3CD0, symBinAddr: 0xC0850, symSize: 0x290 }
  - { offset: 0x2F7146, size: 0x8, addend: 0x0, symName: __ZNSt3__19allocatorI7gguf_kvE9constructB9nqe220106IS1_JRPKcRhEEEvPT_DpOT0_, symObjAddr: 0x11CF0, symBinAddr: 0xCDEC0, symSize: 0xF0 }
  - { offset: 0x2F7777, size: 0x8, addend: 0x0, symName: __ZNSt3__16vectorI7gguf_kvNS_9allocatorIS1_EEE24__emplace_back_slow_pathIJRPKcRhEEEPS1_DpOT_, symObjAddr: 0x11DE0, symBinAddr: 0xCDFB0, symSize: 0x150 }
  - { offset: 0x2F7B69, size: 0x8, addend: 0x0, symName: __ZNSt3__16vectorIaNS_9allocatorIaEEE20__throw_length_errorB9nqe220106Ev, symObjAddr: 0xA7D0, symBinAddr: 0xC7180, symSize: 0x10 }
  - { offset: 0x2F7D7F, size: 0x8, addend: 0x0, symName: _gguf_set_val_i8, symObjAddr: 0x3F60, symBinAddr: 0xC0AE0, symSize: 0x290 }
  - { offset: 0x2F8850, size: 0x8, addend: 0x0, symName: __ZNSt3__19allocatorI7gguf_kvE9constructB9nqe220106IS1_JRPKcRaEEEvPT_DpOT0_, symObjAddr: 0x11F30, symBinAddr: 0xCE100, symSize: 0xF0 }
  - { offset: 0x2F8E81, size: 0x8, addend: 0x0, symName: __ZNSt3__16vectorI7gguf_kvNS_9allocatorIS1_EEE24__emplace_back_slow_pathIJRPKcRaEEEPS1_DpOT_, symObjAddr: 0x12020, symBinAddr: 0xCE1F0, symSize: 0x150 }
  - { offset: 0x2F9474, size: 0x8, addend: 0x0, symName: _gguf_set_val_u16, symObjAddr: 0x41F0, symBinAddr: 0xC0D70, symSize: 0x290 }
  - { offset: 0x2F9F45, size: 0x8, addend: 0x0, symName: __ZNSt3__19allocatorI7gguf_kvE9constructB9nqe220106IS1_JRPKcRtEEEvPT_DpOT0_, symObjAddr: 0x12170, symBinAddr: 0xCE340, symSize: 0xF0 }
  - { offset: 0x2FA576, size: 0x8, addend: 0x0, symName: __ZNSt3__16vectorI7gguf_kvNS_9allocatorIS1_EEE24__emplace_back_slow_pathIJRPKcRtEEEPS1_DpOT_, symObjAddr: 0x12260, symBinAddr: 0xCE430, symSize: 0x150 }
  - { offset: 0x2FAB69, size: 0x8, addend: 0x0, symName: _gguf_set_val_i16, symObjAddr: 0x4480, symBinAddr: 0xC1000, symSize: 0x290 }
  - { offset: 0x2FB63A, size: 0x8, addend: 0x0, symName: __ZNSt3__19allocatorI7gguf_kvE9constructB9nqe220106IS1_JRPKcRsEEEvPT_DpOT0_, symObjAddr: 0x123B0, symBinAddr: 0xCE580, symSize: 0xF0 }
  - { offset: 0x2FBC6B, size: 0x8, addend: 0x0, symName: __ZNSt3__16vectorI7gguf_kvNS_9allocatorIS1_EEE24__emplace_back_slow_pathIJRPKcRsEEEPS1_DpOT_, symObjAddr: 0x124A0, symBinAddr: 0xCE670, symSize: 0x150 }
  - { offset: 0x2FC25E, size: 0x8, addend: 0x0, symName: _gguf_set_val_u32, symObjAddr: 0x4710, symBinAddr: 0xC1290, symSize: 0x280 }
  - { offset: 0x2FCDF2, size: 0x8, addend: 0x0, symName: __ZNSt3__19allocatorI7gguf_kvE9constructB9nqe220106IS1_JRPKcRjEEEvPT_DpOT0_, symObjAddr: 0x125F0, symBinAddr: 0xCE7C0, symSize: 0xF0 }
  - { offset: 0x2FD42B, size: 0x8, addend: 0x0, symName: __ZNSt3__16vectorI7gguf_kvNS_9allocatorIS1_EEE24__emplace_back_slow_pathIJRPKcRjEEEPS1_DpOT_, symObjAddr: 0x126E0, symBinAddr: 0xCE8B0, symSize: 0x150 }
  - { offset: 0x2FDA1E, size: 0x8, addend: 0x0, symName: _gguf_set_val_i32, symObjAddr: 0x4990, symBinAddr: 0xC1510, symSize: 0x290 }
  - { offset: 0x2FE4EF, size: 0x8, addend: 0x0, symName: __ZNSt3__19allocatorI7gguf_kvE9constructB9nqe220106IS1_JRPKcRiEEEvPT_DpOT0_, symObjAddr: 0x12830, symBinAddr: 0xCEA00, symSize: 0xF0 }
  - { offset: 0x2FEB28, size: 0x8, addend: 0x0, symName: __ZNSt3__16vectorI7gguf_kvNS_9allocatorIS1_EEE24__emplace_back_slow_pathIJRPKcRiEEEPS1_DpOT_, symObjAddr: 0x12920, symBinAddr: 0xCEAF0, symSize: 0x150 }
  - { offset: 0x2FF11B, size: 0x8, addend: 0x0, symName: _gguf_set_val_f32, symObjAddr: 0x4C20, symBinAddr: 0xC17A0, symSize: 0x290 }
  - { offset: 0x2FFBEC, size: 0x8, addend: 0x0, symName: __ZNSt3__19allocatorI7gguf_kvE9constructB9nqe220106IS1_JRPKcRfEEEvPT_DpOT0_, symObjAddr: 0x12A70, symBinAddr: 0xCEC40, symSize: 0xF0 }
  - { offset: 0x300225, size: 0x8, addend: 0x0, symName: __ZNSt3__16vectorI7gguf_kvNS_9allocatorIS1_EEE24__emplace_back_slow_pathIJRPKcRfEEEPS1_DpOT_, symObjAddr: 0x12B60, symBinAddr: 0xCED30, symSize: 0x150 }
  - { offset: 0x300818, size: 0x8, addend: 0x0, symName: _gguf_set_val_u64, symObjAddr: 0x4EB0, symBinAddr: 0xC1A30, symSize: 0x290 }
  - { offset: 0x3012ED, size: 0x8, addend: 0x0, symName: __ZNSt3__19allocatorI7gguf_kvE9constructB9nqe220106IS1_JRPKcRyEEEvPT_DpOT0_, symObjAddr: 0x12CB0, symBinAddr: 0xCEE80, symSize: 0xF0 }
  - { offset: 0x301926, size: 0x8, addend: 0x0, symName: __ZNSt3__16vectorI7gguf_kvNS_9allocatorIS1_EEE24__emplace_back_slow_pathIJRPKcRyEEEPS1_DpOT_, symObjAddr: 0x12DA0, symBinAddr: 0xCEF70, symSize: 0x150 }
  - { offset: 0x301F19, size: 0x8, addend: 0x0, symName: _gguf_set_val_i64, symObjAddr: 0x5140, symBinAddr: 0xC1CC0, symSize: 0x290 }
  - { offset: 0x3029EE, size: 0x8, addend: 0x0, symName: __ZNSt3__19allocatorI7gguf_kvE9constructB9nqe220106IS1_JRPKcRxEEEvPT_DpOT0_, symObjAddr: 0x12EF0, symBinAddr: 0xCF0C0, symSize: 0xF0 }
  - { offset: 0x303027, size: 0x8, addend: 0x0, symName: __ZNSt3__16vectorI7gguf_kvNS_9allocatorIS1_EEE24__emplace_back_slow_pathIJRPKcRxEEEPS1_DpOT_, symObjAddr: 0x12FE0, symBinAddr: 0xCF1B0, symSize: 0x150 }
  - { offset: 0x30361A, size: 0x8, addend: 0x0, symName: _gguf_set_val_f64, symObjAddr: 0x53D0, symBinAddr: 0xC1F50, symSize: 0x290 }
  - { offset: 0x3040EF, size: 0x8, addend: 0x0, symName: __ZNSt3__19allocatorI7gguf_kvE9constructB9nqe220106IS1_JRPKcRdEEEvPT_DpOT0_, symObjAddr: 0x13130, symBinAddr: 0xCF300, symSize: 0xF0 }
  - { offset: 0x304728, size: 0x8, addend: 0x0, symName: __ZNSt3__16vectorI7gguf_kvNS_9allocatorIS1_EEE24__emplace_back_slow_pathIJRPKcRdEEEPS1_DpOT_, symObjAddr: 0x13220, symBinAddr: 0xCF3F0, symSize: 0x150 }
  - { offset: 0x304D1B, size: 0x8, addend: 0x0, symName: _gguf_set_val_bool, symObjAddr: 0x5660, symBinAddr: 0xC21E0, symSize: 0x290 }
  - { offset: 0x3057EC, size: 0x8, addend: 0x0, symName: __ZNSt3__19allocatorI7gguf_kvE9constructB9nqe220106IS1_JRPKcRbEEEvPT_DpOT0_, symObjAddr: 0x13370, symBinAddr: 0xCF540, symSize: 0xF0 }
  - { offset: 0x305E1D, size: 0x8, addend: 0x0, symName: __ZNSt3__16vectorI7gguf_kvNS_9allocatorIS1_EEE24__emplace_back_slow_pathIJRPKcRbEEEPS1_DpOT_, symObjAddr: 0x13460, symBinAddr: 0xCF630, symSize: 0x150 }
  - { offset: 0x306416, size: 0x8, addend: 0x0, symName: _gguf_set_val_str, symObjAddr: 0x58F0, symBinAddr: 0xC2470, symSize: 0x320 }
  - { offset: 0x307436, size: 0x8, addend: 0x0, symName: __ZNSt3__19allocatorI7gguf_kvE9constructB9nqe220106IS1_JRPKcNS_12basic_stringIcNS_11char_traitsIcEENS0_IcEEEEEEEvPT_DpOT0_, symObjAddr: 0x135B0, symBinAddr: 0xCF780, symSize: 0xF0 }
  - { offset: 0x307A76, size: 0x8, addend: 0x0, symName: __ZNSt3__16vectorI7gguf_kvNS_9allocatorIS1_EEE24__emplace_back_slow_pathIJRPKcNS_12basic_stringIcNS_11char_traitsIcEENS2_IcEEEEEEEPS1_DpOT_, symObjAddr: 0x136A0, symBinAddr: 0xCF870, symSize: 0x150 }
  - { offset: 0x30835D, size: 0x8, addend: 0x0, symName: _gguf_set_arr_data, symObjAddr: 0x5C10, symBinAddr: 0xC2790, symSize: 0x400 }
  - { offset: 0x309466, size: 0x8, addend: 0x0, symName: __ZNSt3__19allocatorI7gguf_kvE9constructB9nqe220106IS1_JRPKcRNS_6vectorIaNS0_IaEEEEEEEvPT_DpOT0_, symObjAddr: 0x137F0, symBinAddr: 0xCF9C0, symSize: 0xF0 }
  - { offset: 0x309AA6, size: 0x8, addend: 0x0, symName: __ZNSt3__16vectorI7gguf_kvNS_9allocatorIS1_EEE24__emplace_back_slow_pathIJRPKcRNS0_IaNS2_IaEEEEEEEPS1_DpOT_, symObjAddr: 0x138E0, symBinAddr: 0xCFAB0, symSize: 0x150 }
  - { offset: 0x309E8E, size: 0x8, addend: 0x0, symName: __ZNSt3__16vectorIaNS_9allocatorIaEEE20__throw_length_errorB9nqe220106Ev, symObjAddr: 0xA7D0, symBinAddr: 0xC7180, symSize: 0x10 }
  - { offset: 0x309EA6, size: 0x8, addend: 0x0, symName: __ZNSt3__16vectorI7gguf_kvNS_9allocatorIS1_EEE24__emplace_back_slow_pathIJRKNS_12basic_stringIcNS_11char_traitsIcEENS2_IcEEEERNS0_IhNS2_IhEEEEEEEPS1_DpOT_, symObjAddr: 0xA7E0, symBinAddr: 0xC7190, symSize: 0x140 }
  - { offset: 0x30A445, size: 0x8, addend: 0x0, symName: _gguf_set_arr_str, symObjAddr: 0x6010, symBinAddr: 0xC2B90, symSize: 0x400 }
  - { offset: 0x30B4A7, size: 0x8, addend: 0x0, symName: __ZNSt3__19allocatorI7gguf_kvE9constructB9nqe220106IS1_JRPKcRNS_6vectorINS_12basic_stringIcNS_11char_traitsIcEENS0_IcEEEENS0_ISC_EEEEEEEvPT_DpOT0_, symObjAddr: 0x13AA0, symBinAddr: 0xCFC00, symSize: 0xF0 }
  - { offset: 0x30BAE7, size: 0x8, addend: 0x0, symName: __ZNSt3__16vectorI7gguf_kvNS_9allocatorIS1_EEE24__emplace_back_slow_pathIJRPKcRNS0_INS_12basic_stringIcNS_11char_traitsIcEENS2_IcEEEENS2_ISD_EEEEEEEPS1_DpOT_, symObjAddr: 0x13B90, symBinAddr: 0xCFCF0, symSize: 0x150 }
  - { offset: 0x30BED9, size: 0x8, addend: 0x0, symName: __ZN7gguf_kvC2ERKNSt3__112basic_stringIcNS0_11char_traitsIcEENS0_9allocatorIcEEEERKNS0_6vectorIS6_NS4_IS6_EEEE, symObjAddr: 0xE5A0, symBinAddr: 0xCAC10, symSize: 0x100 }
  - { offset: 0x30C3C2, size: 0x8, addend: 0x0, symName: _gguf_set_kv, symObjAddr: 0x6480, symBinAddr: 0xC2F90, symSize: 0xA00 }
  - { offset: 0x30E0F4, size: 0x8, addend: 0x0, symName: __ZNSt3__16vectorIPKcNS_9allocatorIS2_EEE20__throw_length_errorB9nqe220106Ev, symObjAddr: 0x13CE0, symBinAddr: 0xCFE40, symSize: 0x10 }
  - { offset: 0x30E10C, size: 0x8, addend: 0x0, symName: __ZN16gguf_writer_base5writeERK7gguf_kv, symObjAddr: 0x13CF0, symBinAddr: 0xCFE50, symSize: 0x390 }
  - { offset: 0x30E37B, size: 0x8, addend: 0x0, symName: _gguf_add_tensor, symObjAddr: 0x6E80, symBinAddr: 0xC3990, symSize: 0x1D0 }
  - { offset: 0x30E60C, size: 0x8, addend: 0x0, symName: __ZZNSt3__16vectorI16gguf_tensor_infoNS_9allocatorIS1_EEE12emplace_backIJRKS1_EEERS1_DpOT_ENKUlvE0_clEv, symObjAddr: 0x11A90, symBinAddr: 0xCDC60, symSize: 0x120 }
  - { offset: 0x30E979, size: 0x8, addend: 0x0, symName: _gguf_set_tensor_type, symObjAddr: 0x70B0, symBinAddr: 0xC3BC0, symSize: 0x1C0 }
  - { offset: 0x30EBC4, size: 0x8, addend: 0x0, symName: _gguf_set_tensor_data, symObjAddr: 0x7270, symBinAddr: 0xC3D80, symSize: 0x90 }
  - { offset: 0x30F09B, size: 0x8, addend: 0x0, symName: __Z17gguf_write_to_bufPK12gguf_contextRNSt3__16vectorIaNS2_9allocatorIaEEEEb, symObjAddr: 0x7300, symBinAddr: 0xC3E10, symSize: 0x510 }
  - { offset: 0x30FC9E, size: 0x8, addend: 0x0, symName: __ZN15gguf_writer_buf5writeEa, symObjAddr: 0x10640, symBinAddr: 0xCC9A0, symSize: 0x70 }
  - { offset: 0x30FE03, size: 0x8, addend: 0x0, symName: __ZN16gguf_writer_base5writeERK7gguf_kv, symObjAddr: 0x13CF0, symBinAddr: 0xCFE50, symSize: 0x390 }
  - { offset: 0x310383, size: 0x8, addend: 0x0, symName: __ZN16gguf_writer_base17write_tensor_metaERK16gguf_tensor_info, symObjAddr: 0x14080, symBinAddr: 0xD01E0, symSize: 0x1D0 }
  - { offset: 0x310726, size: 0x8, addend: 0x0, symName: __ZN15gguf_writer_buf17write_tensor_dataERK16gguf_tensor_infomm, symObjAddr: 0x106F0, symBinAddr: 0xCCA50, symSize: 0x270 }
  - { offset: 0x310DE6, size: 0x8, addend: 0x0, symName: __ZZNSt3__16vectorIaNS_9allocatorIaEEE12emplace_backIJRKaEEERaDpOT_ENKUlvE0_clEv, symObjAddr: 0x10960, symBinAddr: 0xCCCC0, symSize: 0xE0 }
  - { offset: 0x311285, size: 0x8, addend: 0x0, symName: _gguf_write_to_file_ptr, symObjAddr: 0x7810, symBinAddr: 0xC4320, symSize: 0x400 }
  - { offset: 0x311844, size: 0x8, addend: 0x0, symName: __ZN16gguf_writer_file5writeEa, symObjAddr: 0x10EA0, symBinAddr: 0xCD200, symSize: 0x280 }
  - { offset: 0x31207E, size: 0x8, addend: 0x0, symName: __ZN16gguf_writer_file17write_tensor_dataERK16gguf_tensor_infomm, symObjAddr: 0x113B0, symBinAddr: 0xCD710, symSize: 0x1D0 }
  - { offset: 0x312623, size: 0x8, addend: 0x0, symName: _gguf_write_to_file, symObjAddr: 0x7C20, symBinAddr: 0xC4720, symSize: 0xA0 }
  - { offset: 0x312742, size: 0x8, addend: 0x0, symName: _gguf_get_meta_size, symObjAddr: 0x7CC0, symBinAddr: 0xC47C0, symSize: 0x70 }
  - { offset: 0x312A4B, size: 0x8, addend: 0x0, symName: _gguf_get_meta_data, symObjAddr: 0x7D30, symBinAddr: 0xC4830, symSize: 0x80 }
  - { offset: 0x313812, size: 0x8, addend: 0x0, symName: __ZNK11gguf_reader4readIhEEbRNSt3__16vectorIT_NS1_9allocatorIS3_EEEEm, symObjAddr: 0xA3F0, symBinAddr: 0xC6E30, symSize: 0x200 }
  - { offset: 0x313E62, size: 0x8, addend: 0x0, symName: __ZN7gguf_kvC2IhEERKNSt3__112basic_stringIcNS1_11char_traitsIcEENS1_9allocatorIcEEEERKNS1_6vectorIT_NS5_ISB_EEEE, symObjAddr: 0xA5F0, symBinAddr: 0xC7030, symSize: 0x150 }
  - { offset: 0x31447E, size: 0x8, addend: 0x0, symName: __ZN7gguf_kvC2IhEERKNSt3__112basic_stringIcNS1_11char_traitsIcEENS1_9allocatorIcEEEET_, symObjAddr: 0xAB80, symBinAddr: 0xC7530, symSize: 0xF0 }
  - { offset: 0x31493A, size: 0x8, addend: 0x0, symName: __ZNSt3__16vectorI7gguf_kvNS_9allocatorIS1_EEE24__emplace_back_slow_pathIJRKNS_12basic_stringIcNS_11char_traitsIcEENS2_IcEEEERNS0_IhNS2_IhEEEEEEEPS1_DpOT_, symObjAddr: 0xA7E0, symBinAddr: 0xC7190, symSize: 0x140 }
  - { offset: 0x314D7A, size: 0x8, addend: 0x0, symName: __ZNSt3__16vectorI7gguf_kvNS_9allocatorIS1_EEE24__emplace_back_slow_pathIJRKNS_12basic_stringIcNS_11char_traitsIcEENS2_IcEEEERhEEEPS1_DpOT_, symObjAddr: 0xAC70, symBinAddr: 0xC7620, symSize: 0x150 }
  - { offset: 0x3156B2, size: 0x8, addend: 0x0, symName: __ZNK11gguf_reader4readIaEEbRNSt3__16vectorIT_NS1_9allocatorIS3_EEEEm, symObjAddr: 0xADC0, symBinAddr: 0xC7770, symSize: 0x200 }
  - { offset: 0x315D02, size: 0x8, addend: 0x0, symName: __ZN7gguf_kvC2IaEERKNSt3__112basic_stringIcNS1_11char_traitsIcEENS1_9allocatorIcEEEERKNS1_6vectorIT_NS5_ISB_EEEE, symObjAddr: 0xAFC0, symBinAddr: 0xC7970, symSize: 0x160 }
  - { offset: 0x3162D9, size: 0x8, addend: 0x0, symName: __ZN7gguf_kvC2IaEERKNSt3__112basic_stringIcNS1_11char_traitsIcEENS1_9allocatorIcEEEET_, symObjAddr: 0xB260, symBinAddr: 0xC7C10, symSize: 0xF0 }
  - { offset: 0x31677E, size: 0x8, addend: 0x0, symName: __ZNSt3__16vectorI7gguf_kvNS_9allocatorIS1_EEE24__emplace_back_slow_pathIJRKNS_12basic_stringIcNS_11char_traitsIcEENS2_IcEEEERNS0_IaNS2_IaEEEEEEEPS1_DpOT_, symObjAddr: 0xB120, symBinAddr: 0xC7AD0, symSize: 0x140 }
  - { offset: 0x316BBE, size: 0x8, addend: 0x0, symName: __ZNSt3__16vectorI7gguf_kvNS_9allocatorIS1_EEE24__emplace_back_slow_pathIJRKNS_12basic_stringIcNS_11char_traitsIcEENS2_IcEEEERaEEEPS1_DpOT_, symObjAddr: 0xB350, symBinAddr: 0xC7D00, symSize: 0x150 }
  - { offset: 0x317636, size: 0x8, addend: 0x0, symName: __ZNK11gguf_reader4readItEEbRNSt3__16vectorIT_NS1_9allocatorIS3_EEEEm, symObjAddr: 0xB4A0, symBinAddr: 0xC7E50, symSize: 0x140 }
  - { offset: 0x3177FA, size: 0x8, addend: 0x0, symName: __ZN7gguf_kvC2ItEERKNSt3__112basic_stringIcNS1_11char_traitsIcEENS1_9allocatorIcEEEERKNS1_6vectorIT_NS5_ISB_EEEE, symObjAddr: 0xB730, symBinAddr: 0xC80E0, symSize: 0x170 }
  - { offset: 0x317DD9, size: 0x8, addend: 0x0, symName: __ZN7gguf_kvC2ItEERKNSt3__112basic_stringIcNS1_11char_traitsIcEENS1_9allocatorIcEEEET_, symObjAddr: 0xB9E0, symBinAddr: 0xC8390, symSize: 0xF0 }
  - { offset: 0x31827E, size: 0x8, addend: 0x0, symName: __ZNSt3__16vectorI7gguf_kvNS_9allocatorIS1_EEE24__emplace_back_slow_pathIJRKNS_12basic_stringIcNS_11char_traitsIcEENS2_IcEEEERNS0_ItNS2_ItEEEEEEEPS1_DpOT_, symObjAddr: 0xB8A0, symBinAddr: 0xC8250, symSize: 0x140 }
  - { offset: 0x3186BE, size: 0x8, addend: 0x0, symName: __ZNSt3__16vectorI7gguf_kvNS_9allocatorIS1_EEE24__emplace_back_slow_pathIJRKNS_12basic_stringIcNS_11char_traitsIcEENS2_IcEEEERtEEEPS1_DpOT_, symObjAddr: 0xBAD0, symBinAddr: 0xC8480, symSize: 0x150 }
  - { offset: 0x319136, size: 0x8, addend: 0x0, symName: __ZNK11gguf_reader4readIsEEbRNSt3__16vectorIT_NS1_9allocatorIS3_EEEEm, symObjAddr: 0xBC20, symBinAddr: 0xC85D0, symSize: 0x140 }
  - { offset: 0x3192FA, size: 0x8, addend: 0x0, symName: __ZN7gguf_kvC2IsEERKNSt3__112basic_stringIcNS1_11char_traitsIcEENS1_9allocatorIcEEEERKNS1_6vectorIT_NS5_ISB_EEEE, symObjAddr: 0xBEB0, symBinAddr: 0xC8860, symSize: 0x170 }
  - { offset: 0x3198D9, size: 0x8, addend: 0x0, symName: __ZN7gguf_kvC2IsEERKNSt3__112basic_stringIcNS1_11char_traitsIcEENS1_9allocatorIcEEEET_, symObjAddr: 0xC160, symBinAddr: 0xC8B10, symSize: 0xF0 }
  - { offset: 0x319D7E, size: 0x8, addend: 0x0, symName: __ZNSt3__16vectorI7gguf_kvNS_9allocatorIS1_EEE24__emplace_back_slow_pathIJRKNS_12basic_stringIcNS_11char_traitsIcEENS2_IcEEEERNS0_IsNS2_IsEEEEEEEPS1_DpOT_, symObjAddr: 0xC020, symBinAddr: 0xC89D0, symSize: 0x140 }
  - { offset: 0x31A1BE, size: 0x8, addend: 0x0, symName: __ZNSt3__16vectorI7gguf_kvNS_9allocatorIS1_EEE24__emplace_back_slow_pathIJRKNS_12basic_stringIcNS_11char_traitsIcEENS2_IcEEEERsEEEPS1_DpOT_, symObjAddr: 0xC250, symBinAddr: 0xC8C00, symSize: 0x150 }
  - { offset: 0x31ABFE, size: 0x8, addend: 0x0, symName: __ZNK11gguf_reader4readIjEEbRNSt3__16vectorIT_NS1_9allocatorIS3_EEEEm, symObjAddr: 0xC3A0, symBinAddr: 0xC8D50, symSize: 0x140 }
  - { offset: 0x31ADC2, size: 0x8, addend: 0x0, symName: __ZN7gguf_kvC2IjEERKNSt3__112basic_stringIcNS1_11char_traitsIcEENS1_9allocatorIcEEEERKNS1_6vectorIT_NS5_ISB_EEEE, symObjAddr: 0xC640, symBinAddr: 0xC8E90, symSize: 0x160 }
  - { offset: 0x31B3A1, size: 0x8, addend: 0x0, symName: __ZN7gguf_kvC2IjEERKNSt3__112basic_stringIcNS1_11char_traitsIcEENS1_9allocatorIcEEEET_, symObjAddr: 0xC8E0, symBinAddr: 0xC9130, symSize: 0xF0 }
  - { offset: 0x31B846, size: 0x8, addend: 0x0, symName: __ZNSt3__16vectorI7gguf_kvNS_9allocatorIS1_EEE24__emplace_back_slow_pathIJRKNS_12basic_stringIcNS_11char_traitsIcEENS2_IcEEEERNS0_IjNS2_IjEEEEEEEPS1_DpOT_, symObjAddr: 0xC7A0, symBinAddr: 0xC8FF0, symSize: 0x140 }
  - { offset: 0x31BC86, size: 0x8, addend: 0x0, symName: __ZNSt3__16vectorI7gguf_kvNS_9allocatorIS1_EEE24__emplace_back_slow_pathIJRKNS_12basic_stringIcNS_11char_traitsIcEENS2_IcEEEERjEEEPS1_DpOT_, symObjAddr: 0xC9D0, symBinAddr: 0xC9220, symSize: 0x150 }
  - { offset: 0x31C6CE, size: 0x8, addend: 0x0, symName: __ZNK11gguf_reader4readIiEEbRNSt3__16vectorIT_NS1_9allocatorIS3_EEEEm, symObjAddr: 0xCB20, symBinAddr: 0xC9370, symSize: 0x140 }
  - { offset: 0x31C892, size: 0x8, addend: 0x0, symName: __ZN7gguf_kvC2IiEERKNSt3__112basic_stringIcNS1_11char_traitsIcEENS1_9allocatorIcEEEERKNS1_6vectorIT_NS5_ISB_EEEE, symObjAddr: 0xCDC0, symBinAddr: 0xC9600, symSize: 0x160 }
  - { offset: 0x31CE71, size: 0x8, addend: 0x0, symName: __ZN7gguf_kvC2IiEERKNSt3__112basic_stringIcNS1_11char_traitsIcEENS1_9allocatorIcEEEET_, symObjAddr: 0xD060, symBinAddr: 0xC98A0, symSize: 0xF0 }
  - { offset: 0x31D316, size: 0x8, addend: 0x0, symName: __ZNSt3__16vectorI7gguf_kvNS_9allocatorIS1_EEE24__emplace_back_slow_pathIJRKNS_12basic_stringIcNS_11char_traitsIcEENS2_IcEEEERNS0_IiNS2_IiEEEEEEEPS1_DpOT_, symObjAddr: 0xCF20, symBinAddr: 0xC9760, symSize: 0x140 }
  - { offset: 0x31D756, size: 0x8, addend: 0x0, symName: __ZNSt3__16vectorI7gguf_kvNS_9allocatorIS1_EEE24__emplace_back_slow_pathIJRKNS_12basic_stringIcNS_11char_traitsIcEENS2_IcEEEERiEEEPS1_DpOT_, symObjAddr: 0xD150, symBinAddr: 0xC9990, symSize: 0x150 }
  - { offset: 0x31E1D6, size: 0x8, addend: 0x0, symName: __ZNK11gguf_reader4readIfEEbRNSt3__16vectorIT_NS1_9allocatorIS3_EEEEm, symObjAddr: 0xD2A0, symBinAddr: 0xC9AE0, symSize: 0x140 }
  - { offset: 0x31E39A, size: 0x8, addend: 0x0, symName: __ZN7gguf_kvC2IfEERKNSt3__112basic_stringIcNS1_11char_traitsIcEENS1_9allocatorIcEEEERKNS1_6vectorIT_NS5_ISB_EEEE, symObjAddr: 0xD540, symBinAddr: 0xC9C20, symSize: 0x170 }
  - { offset: 0x31E979, size: 0x8, addend: 0x0, symName: __ZN7gguf_kvC2IfEERKNSt3__112basic_stringIcNS1_11char_traitsIcEENS1_9allocatorIcEEEET_, symObjAddr: 0xD7F0, symBinAddr: 0xC9ED0, symSize: 0x100 }
  - { offset: 0x31EE1E, size: 0x8, addend: 0x0, symName: __ZNSt3__16vectorI7gguf_kvNS_9allocatorIS1_EEE24__emplace_back_slow_pathIJRKNS_12basic_stringIcNS_11char_traitsIcEENS2_IcEEEERNS0_IfNS2_IfEEEEEEEPS1_DpOT_, symObjAddr: 0xD6B0, symBinAddr: 0xC9D90, symSize: 0x140 }
  - { offset: 0x31F25E, size: 0x8, addend: 0x0, symName: __ZNSt3__16vectorI7gguf_kvNS_9allocatorIS1_EEE24__emplace_back_slow_pathIJRKNS_12basic_stringIcNS_11char_traitsIcEENS2_IcEEEERfEEEPS1_DpOT_, symObjAddr: 0xD8F0, symBinAddr: 0xC9FD0, symSize: 0x150 }
  - { offset: 0x31FC83, size: 0x8, addend: 0x0, symName: __ZNK11gguf_reader4readIbEEbRNSt3__16vectorIT_NS1_9allocatorIS3_EEEEm, symObjAddr: 0xDA40, symBinAddr: 0xCA120, symSize: 0x150 }
  - { offset: 0x31FE5C, size: 0x8, addend: 0x0, symName: __ZN7gguf_kvC2IbEERKNSt3__112basic_stringIcNS1_11char_traitsIcEENS1_9allocatorIcEEEERKNS1_6vectorIT_NS5_ISB_EEEE, symObjAddr: 0xDE80, symBinAddr: 0xCA560, symSize: 0x160 }
  - { offset: 0x320479, size: 0x8, addend: 0x0, symName: __ZN7gguf_kvC2IbEERKNSt3__112basic_stringIcNS1_11char_traitsIcEENS1_9allocatorIcEEEET_, symObjAddr: 0xE120, symBinAddr: 0xCA800, symSize: 0xF0 }
  - { offset: 0x32091E, size: 0x8, addend: 0x0, symName: __ZNSt3__16vectorI7gguf_kvNS_9allocatorIS1_EEE24__emplace_back_slow_pathIJRKNS_12basic_stringIcNS_11char_traitsIcEENS2_IcEEEERNS0_IbNS2_IbEEEEEEEPS1_DpOT_, symObjAddr: 0xDFE0, symBinAddr: 0xCA6C0, symSize: 0x140 }
  - { offset: 0x320D5E, size: 0x8, addend: 0x0, symName: __ZNSt3__16vectorI7gguf_kvNS_9allocatorIS1_EEE24__emplace_back_slow_pathIJRKNS_12basic_stringIcNS_11char_traitsIcEENS2_IcEEEERbEEEPS1_DpOT_, symObjAddr: 0xE210, symBinAddr: 0xCA8F0, symSize: 0x150 }
  - { offset: 0x3216C7, size: 0x8, addend: 0x0, symName: __ZN7gguf_kvC2ERKNSt3__112basic_stringIcNS0_11char_traitsIcEENS0_9allocatorIcEEEES8_, symObjAddr: 0xEB50, symBinAddr: 0xCB180, symSize: 0xE0 }
  - { offset: 0x321A7A, size: 0x8, addend: 0x0, symName: __ZNSt3__16vectorINS_12basic_stringIcNS_11char_traitsIcEENS_9allocatorIcEEEENS4_IS6_EEE6resizeEm, symObjAddr: 0xE360, symBinAddr: 0xCAA40, symSize: 0x1D0 }
  - { offset: 0x3220FF, size: 0x8, addend: 0x0, symName: __ZN7gguf_kvC2ERKNSt3__112basic_stringIcNS0_11char_traitsIcEENS0_9allocatorIcEEEERKNS0_6vectorIS6_NS4_IS6_EEEE, symObjAddr: 0xE5A0, symBinAddr: 0xCAC10, symSize: 0x100 }
  - { offset: 0x3224AC, size: 0x8, addend: 0x0, symName: __ZNSt3__16vectorI7gguf_kvNS_9allocatorIS1_EEE24__emplace_back_slow_pathIJRKNS_12basic_stringIcNS_11char_traitsIcEENS2_IcEEEERSA_EEEPS1_DpOT_, symObjAddr: 0xED90, symBinAddr: 0xCB260, symSize: 0x140 }
  - { offset: 0x3228EC, size: 0x8, addend: 0x0, symName: __ZNSt3__16vectorI7gguf_kvNS_9allocatorIS1_EEE24__emplace_back_slow_pathIJRKNS_12basic_stringIcNS_11char_traitsIcEENS2_IcEEEERNS0_ISA_NS2_ISA_EEEEEEEPS1_DpOT_, symObjAddr: 0xEA10, symBinAddr: 0xCB040, symSize: 0x140 }
  - { offset: 0x323334, size: 0x8, addend: 0x0, symName: __ZNK11gguf_reader4readIyEEbRNSt3__16vectorIT_NS1_9allocatorIS3_EEEEm, symObjAddr: 0xEED0, symBinAddr: 0xCB3A0, symSize: 0x140 }
  - { offset: 0x3234F8, size: 0x8, addend: 0x0, symName: __ZN7gguf_kvC2IyEERKNSt3__112basic_stringIcNS1_11char_traitsIcEENS1_9allocatorIcEEEERKNS1_6vectorIT_NS5_ISB_EEEE, symObjAddr: 0xF170, symBinAddr: 0xCB640, symSize: 0x170 }
  - { offset: 0x323AD7, size: 0x8, addend: 0x0, symName: __ZN7gguf_kvC2IyEERKNSt3__112basic_stringIcNS1_11char_traitsIcEENS1_9allocatorIcEEEET_, symObjAddr: 0xF420, symBinAddr: 0xCB8F0, symSize: 0xF0 }
  - { offset: 0x323F7C, size: 0x8, addend: 0x0, symName: __ZNSt3__16vectorI7gguf_kvNS_9allocatorIS1_EEE24__emplace_back_slow_pathIJRKNS_12basic_stringIcNS_11char_traitsIcEENS2_IcEEEERNS0_IyNS2_IyEEEEEEEPS1_DpOT_, symObjAddr: 0xF2E0, symBinAddr: 0xCB7B0, symSize: 0x140 }
  - { offset: 0x3243BC, size: 0x8, addend: 0x0, symName: __ZNSt3__16vectorI7gguf_kvNS_9allocatorIS1_EEE24__emplace_back_slow_pathIJRKNS_12basic_stringIcNS_11char_traitsIcEENS2_IcEEEERyEEEPS1_DpOT_, symObjAddr: 0xF510, symBinAddr: 0xCB9E0, symSize: 0x150 }
  - { offset: 0x324E04, size: 0x8, addend: 0x0, symName: __ZNK11gguf_reader4readIxEEbRNSt3__16vectorIT_NS1_9allocatorIS3_EEEEm, symObjAddr: 0xF660, symBinAddr: 0xCBB30, symSize: 0x140 }
  - { offset: 0x324FC8, size: 0x8, addend: 0x0, symName: __ZN7gguf_kvC2IxEERKNSt3__112basic_stringIcNS1_11char_traitsIcEENS1_9allocatorIcEEEERKNS1_6vectorIT_NS5_ISB_EEEE, symObjAddr: 0xF900, symBinAddr: 0xCBC70, symSize: 0x170 }
  - { offset: 0x3255A7, size: 0x8, addend: 0x0, symName: __ZN7gguf_kvC2IxEERKNSt3__112basic_stringIcNS1_11char_traitsIcEENS1_9allocatorIcEEEET_, symObjAddr: 0xFBB0, symBinAddr: 0xCBF20, symSize: 0xF0 }
  - { offset: 0x325A4C, size: 0x8, addend: 0x0, symName: __ZNSt3__16vectorI7gguf_kvNS_9allocatorIS1_EEE24__emplace_back_slow_pathIJRKNS_12basic_stringIcNS_11char_traitsIcEENS2_IcEEEERNS0_IxNS2_IxEEEEEEEPS1_DpOT_, symObjAddr: 0xFA70, symBinAddr: 0xCBDE0, symSize: 0x140 }
  - { offset: 0x325E8C, size: 0x8, addend: 0x0, symName: __ZNSt3__16vectorI7gguf_kvNS_9allocatorIS1_EEE24__emplace_back_slow_pathIJRKNS_12basic_stringIcNS_11char_traitsIcEENS2_IcEEEERxEEEPS1_DpOT_, symObjAddr: 0xFCA0, symBinAddr: 0xCC010, symSize: 0x150 }
  - { offset: 0x32690C, size: 0x8, addend: 0x0, symName: __ZNK11gguf_reader4readIdEEbRNSt3__16vectorIT_NS1_9allocatorIS3_EEEEm, symObjAddr: 0xFDF0, symBinAddr: 0xCC160, symSize: 0x140 }
  - { offset: 0x326AD0, size: 0x8, addend: 0x0, symName: __ZN7gguf_kvC2IdEERKNSt3__112basic_stringIcNS1_11char_traitsIcEENS1_9allocatorIcEEEERKNS1_6vectorIT_NS5_ISB_EEEE, symObjAddr: 0x10090, symBinAddr: 0xCC3F0, symSize: 0x170 }
  - { offset: 0x3270AF, size: 0x8, addend: 0x0, symName: __ZN7gguf_kvC2IdEERKNSt3__112basic_stringIcNS1_11char_traitsIcEENS1_9allocatorIcEEEET_, symObjAddr: 0x10340, symBinAddr: 0xCC6A0, symSize: 0x100 }
  - { offset: 0x327554, size: 0x8, addend: 0x0, symName: __ZNSt3__16vectorI7gguf_kvNS_9allocatorIS1_EEE24__emplace_back_slow_pathIJRKNS_12basic_stringIcNS_11char_traitsIcEENS2_IcEEEERNS0_IdNS2_IdEEEEEEEPS1_DpOT_, symObjAddr: 0x10200, symBinAddr: 0xCC560, symSize: 0x140 }
  - { offset: 0x327994, size: 0x8, addend: 0x0, symName: __ZNSt3__16vectorI7gguf_kvNS_9allocatorIS1_EEE24__emplace_back_slow_pathIJRKNS_12basic_stringIcNS_11char_traitsIcEENS2_IcEEEERdEEEPS1_DpOT_, symObjAddr: 0x10440, symBinAddr: 0xCC7A0, symSize: 0x150 }
  - { offset: 0x3285C0, size: 0x8, addend: 0x0, symName: __ZN7gguf_kvC2IhEERKNSt3__112basic_stringIcNS1_11char_traitsIcEENS1_9allocatorIcEEEERKNS1_6vectorIT_NS5_ISB_EEEE.cold.1, symObjAddr: 0x14430, symBinAddr: 0x1C48B0, symSize: 0x20 }
  - { offset: 0x328863, size: 0x8, addend: 0x0, symName: __ZNSt3__16vectorI7gguf_kvNS_9allocatorIS1_EEE20__throw_length_errorB9nqe220106Ev, symObjAddr: 0xA950, symBinAddr: 0xC7300, symSize: 0x10 }
  - { offset: 0x32887B, size: 0x8, addend: 0x0, symName: __ZNSt3__134__uninitialized_allocator_relocateB9nqe220106INS_9allocatorI7gguf_kvEEPS2_EEvRT_T0_S7_S7_, symObjAddr: 0xA960, symBinAddr: 0xC7310, symSize: 0x150 }
  - { offset: 0x328886, size: 0x8, addend: 0x0, symName: __ZNSt3__114__split_bufferI7gguf_kvRNS_9allocatorIS1_EEED1Ev, symObjAddr: 0xA920, symBinAddr: 0xC72D0, symSize: 0x30 }
  - { offset: 0x328971, size: 0x8, addend: 0x0, symName: __ZNSt3__114__split_bufferI7gguf_kvRNS_9allocatorIS1_EEE17__destruct_at_endB9nqe220106EPS1_, symObjAddr: 0xAAB0, symBinAddr: 0xC7460, symSize: 0xD0 }
  - { offset: 0x32912A, size: 0x8, addend: 0x0, symName: __ZN7gguf_kvC2IhEERKNSt3__112basic_stringIcNS1_11char_traitsIcEENS1_9allocatorIcEEEET_.cold.1, symObjAddr: 0x14450, symBinAddr: 0x1C48D0, symSize: 0x20 }
  - { offset: 0x32939B, size: 0x8, addend: 0x0, symName: __ZN7gguf_kvC2IaEERKNSt3__112basic_stringIcNS1_11char_traitsIcEENS1_9allocatorIcEEEERKNS1_6vectorIT_NS5_ISB_EEEE.cold.1, symObjAddr: 0x14470, symBinAddr: 0x1C48F0, symSize: 0x20 }
  - { offset: 0x3294C5, size: 0x8, addend: 0x0, symName: __ZN7gguf_kvC2IaEERKNSt3__112basic_stringIcNS1_11char_traitsIcEENS1_9allocatorIcEEEET_.cold.1, symObjAddr: 0x14490, symBinAddr: 0x1C4910, symSize: 0x20 }
  - { offset: 0x32960B, size: 0x8, addend: 0x0, symName: __ZNSt3__16vectorItNS_9allocatorItEEE6resizeEm, symObjAddr: 0xB5E0, symBinAddr: 0xC7F90, symSize: 0x140 }
  - { offset: 0x329B15, size: 0x8, addend: 0x0, symName: __ZNSt3__16vectorItNS_9allocatorItEEE20__throw_length_errorB9nqe220106Ev, symObjAddr: 0xB720, symBinAddr: 0xC80D0, symSize: 0x10 }
  - { offset: 0x329ECF, size: 0x8, addend: 0x0, symName: __ZNSt3__16vectorItNS_9allocatorItEEE20__throw_length_errorB9nqe220106Ev, symObjAddr: 0xB720, symBinAddr: 0xC80D0, symSize: 0x10 }
  - { offset: 0x329EE7, size: 0x8, addend: 0x0, symName: __ZN7gguf_kvC2ItEERKNSt3__112basic_stringIcNS1_11char_traitsIcEENS1_9allocatorIcEEEERKNS1_6vectorIT_NS5_ISB_EEEE, symObjAddr: 0xB730, symBinAddr: 0xC80E0, symSize: 0x170 }
  - { offset: 0x329EF2, size: 0x8, addend: 0x0, symName: __ZN7gguf_kvC2ItEERKNSt3__112basic_stringIcNS1_11char_traitsIcEENS1_9allocatorIcEEEERKNS1_6vectorIT_NS5_ISB_EEEE.cold.1, symObjAddr: 0x144B0, symBinAddr: 0x1C4930, symSize: 0x20 }
  - { offset: 0x32A01C, size: 0x8, addend: 0x0, symName: __ZN7gguf_kvC2ItEERKNSt3__112basic_stringIcNS1_11char_traitsIcEENS1_9allocatorIcEEEET_.cold.1, symObjAddr: 0x144D0, symBinAddr: 0x1C4950, symSize: 0x20 }
  - { offset: 0x32A162, size: 0x8, addend: 0x0, symName: __ZNSt3__16vectorIsNS_9allocatorIsEEE6resizeEm, symObjAddr: 0xBD60, symBinAddr: 0xC8710, symSize: 0x140 }
  - { offset: 0x32A66C, size: 0x8, addend: 0x0, symName: __ZNSt3__16vectorIsNS_9allocatorIsEEE20__throw_length_errorB9nqe220106Ev, symObjAddr: 0xBEA0, symBinAddr: 0xC8850, symSize: 0x10 }
  - { offset: 0x32AA26, size: 0x8, addend: 0x0, symName: __ZNSt3__16vectorIsNS_9allocatorIsEEE20__throw_length_errorB9nqe220106Ev, symObjAddr: 0xBEA0, symBinAddr: 0xC8850, symSize: 0x10 }
  - { offset: 0x32AA3E, size: 0x8, addend: 0x0, symName: __ZN7gguf_kvC2IsEERKNSt3__112basic_stringIcNS1_11char_traitsIcEENS1_9allocatorIcEEEERKNS1_6vectorIT_NS5_ISB_EEEE, symObjAddr: 0xBEB0, symBinAddr: 0xC8860, symSize: 0x170 }
  - { offset: 0x32AA49, size: 0x8, addend: 0x0, symName: __ZN7gguf_kvC2IsEERKNSt3__112basic_stringIcNS1_11char_traitsIcEENS1_9allocatorIcEEEERKNS1_6vectorIT_NS5_ISB_EEEE.cold.1, symObjAddr: 0x144F0, symBinAddr: 0x1C4970, symSize: 0x20 }
  - { offset: 0x32AB73, size: 0x8, addend: 0x0, symName: __ZN7gguf_kvC2IsEERKNSt3__112basic_stringIcNS1_11char_traitsIcEENS1_9allocatorIcEEEET_.cold.1, symObjAddr: 0x14510, symBinAddr: 0x1C4990, symSize: 0x20 }
  - { offset: 0x32B347, size: 0x8, addend: 0x0, symName: __ZN7gguf_kvC2IjEERKNSt3__112basic_stringIcNS1_11char_traitsIcEENS1_9allocatorIcEEEERKNS1_6vectorIT_NS5_ISB_EEEE, symObjAddr: 0xC640, symBinAddr: 0xC8E90, symSize: 0x160 }
  - { offset: 0x32B352, size: 0x8, addend: 0x0, symName: __ZN7gguf_kvC2IjEERKNSt3__112basic_stringIcNS1_11char_traitsIcEENS1_9allocatorIcEEEERKNS1_6vectorIT_NS5_ISB_EEEE.cold.1, symObjAddr: 0x14530, symBinAddr: 0x1C49B0, symSize: 0x20 }
  - { offset: 0x32B47C, size: 0x8, addend: 0x0, symName: __ZN7gguf_kvC2IjEERKNSt3__112basic_stringIcNS1_11char_traitsIcEENS1_9allocatorIcEEEET_.cold.1, symObjAddr: 0x14550, symBinAddr: 0x1C49D0, symSize: 0x20 }
  - { offset: 0x32B5C2, size: 0x8, addend: 0x0, symName: __ZNSt3__16vectorIiNS_9allocatorIiEEE6resizeEm, symObjAddr: 0xCC60, symBinAddr: 0xC94B0, symSize: 0x150 }
  - { offset: 0x32BE7F, size: 0x8, addend: 0x0, symName: __ZN7gguf_kvC2IiEERKNSt3__112basic_stringIcNS1_11char_traitsIcEENS1_9allocatorIcEEEERKNS1_6vectorIT_NS5_ISB_EEEE, symObjAddr: 0xCDC0, symBinAddr: 0xC9600, symSize: 0x160 }
  - { offset: 0x32BE8A, size: 0x8, addend: 0x0, symName: __ZN7gguf_kvC2IiEERKNSt3__112basic_stringIcNS1_11char_traitsIcEENS1_9allocatorIcEEEERKNS1_6vectorIT_NS5_ISB_EEEE.cold.1, symObjAddr: 0x14570, symBinAddr: 0x1C49F0, symSize: 0x20 }
  - { offset: 0x32BFB4, size: 0x8, addend: 0x0, symName: __ZN7gguf_kvC2IiEERKNSt3__112basic_stringIcNS1_11char_traitsIcEENS1_9allocatorIcEEEET_.cold.1, symObjAddr: 0x14590, symBinAddr: 0x1C4A10, symSize: 0x20 }
  - { offset: 0x32C793, size: 0x8, addend: 0x0, symName: __ZN7gguf_kvC2IfEERKNSt3__112basic_stringIcNS1_11char_traitsIcEENS1_9allocatorIcEEEERKNS1_6vectorIT_NS5_ISB_EEEE, symObjAddr: 0xD540, symBinAddr: 0xC9C20, symSize: 0x170 }
  - { offset: 0x32C79E, size: 0x8, addend: 0x0, symName: __ZN7gguf_kvC2IfEERKNSt3__112basic_stringIcNS1_11char_traitsIcEENS1_9allocatorIcEEEERKNS1_6vectorIT_NS5_ISB_EEEE.cold.1, symObjAddr: 0x145B0, symBinAddr: 0x1C4A30, symSize: 0x20 }
  - { offset: 0x32C8C8, size: 0x8, addend: 0x0, symName: __ZN7gguf_kvC2IfEERKNSt3__112basic_stringIcNS1_11char_traitsIcEENS1_9allocatorIcEEEET_.cold.1, symObjAddr: 0x145D0, symBinAddr: 0x1C4A50, symSize: 0x20 }
  - { offset: 0x32CA5D, size: 0x8, addend: 0x0, symName: __ZNSt3__16vectorIbNS_9allocatorIbEEE6resizeEmb, symObjAddr: 0xDB90, symBinAddr: 0xCA270, symSize: 0x100 }
  - { offset: 0x32D115, size: 0x8, addend: 0x0, symName: __ZNSt3__123__specialized_algorithmINS_10_Algorithm8__fill_nEJNS_17__single_iteratorINS_14__bit_iteratorINS_6vectorIbNS_9allocatorIbEEEELb0ELm0EEEEEEEclB9nqe220106ImbEES9_S9_T_RKT0_, symObjAddr: 0xDCA0, symBinAddr: 0xCA380, symSize: 0x1E0 }
  - { offset: 0x32D4F8, size: 0x8, addend: 0x0, symName: __ZNSt3__16vectorIbNS_9allocatorIbEEE20__throw_length_errorB9nqe220106Ev, symObjAddr: 0xDC90, symBinAddr: 0xCA370, symSize: 0x10 }
  - { offset: 0x32D510, size: 0x8, addend: 0x0, symName: __ZNSt3__123__specialized_algorithmINS_10_Algorithm8__fill_nEJNS_17__single_iteratorINS_14__bit_iteratorINS_6vectorIbNS_9allocatorIbEEEELb0ELm0EEEEEEEclB9nqe220106ImbEES9_S9_T_RKT0_, symObjAddr: 0xDCA0, symBinAddr: 0xCA380, symSize: 0x1E0 }
  - { offset: 0x32D694, size: 0x8, addend: 0x0, symName: __ZN7gguf_kvC2IbEERKNSt3__112basic_stringIcNS1_11char_traitsIcEENS1_9allocatorIcEEEERKNS1_6vectorIT_NS5_ISB_EEEE.cold.1, symObjAddr: 0x145F0, symBinAddr: 0x1C4A70, symSize: 0x20 }
  - { offset: 0x32D7BE, size: 0x8, addend: 0x0, symName: __ZN7gguf_kvC2IbEERKNSt3__112basic_stringIcNS1_11char_traitsIcEENS1_9allocatorIcEEEET_.cold.1, symObjAddr: 0x14610, symBinAddr: 0x1C4A90, symSize: 0x20 }
  - { offset: 0x32DD75, size: 0x8, addend: 0x0, symName: __ZNSt3__16vectorINS_12basic_stringIcNS_11char_traitsIcEENS_9allocatorIcEEEENS4_IS6_EEE18__assign_with_sizeB9nqe220106INS_17_ClassicAlgPolicyEPS6_SB_EEvT0_T1_l, symObjAddr: 0xE6A0, symBinAddr: 0xCAD10, symSize: 0x330 }
  - { offset: 0x32EA34, size: 0x8, addend: 0x0, symName: __ZN7gguf_kvC2ERKNSt3__112basic_stringIcNS0_11char_traitsIcEENS0_9allocatorIcEEEERKNS0_6vectorIS6_NS4_IS6_EEEE.cold.1, symObjAddr: 0x14630, symBinAddr: 0x1C4AB0, symSize: 0x20 }
  - { offset: 0x32F22E, size: 0x8, addend: 0x0, symName: __ZN7gguf_kvC2ERKNSt3__112basic_stringIcNS0_11char_traitsIcEENS0_9allocatorIcEEEES8_.cold.1, symObjAddr: 0x14650, symBinAddr: 0x1C4AD0, symSize: 0x20 }
  - { offset: 0x32F3FA, size: 0x8, addend: 0x0, symName: __ZNSt3__16vectorIyNS_9allocatorIyEEE6resizeEm, symObjAddr: 0xF010, symBinAddr: 0xCB4E0, symSize: 0x150 }
  - { offset: 0x32FCBE, size: 0x8, addend: 0x0, symName: __ZNSt3__16vectorIyNS_9allocatorIyEEE20__throw_length_errorB9nqe220106Ev, symObjAddr: 0xF160, symBinAddr: 0xCB630, symSize: 0x10 }
  - { offset: 0x32FCD6, size: 0x8, addend: 0x0, symName: __ZN7gguf_kvC2IyEERKNSt3__112basic_stringIcNS1_11char_traitsIcEENS1_9allocatorIcEEEERKNS1_6vectorIT_NS5_ISB_EEEE, symObjAddr: 0xF170, symBinAddr: 0xCB640, symSize: 0x170 }
  - { offset: 0x32FCE1, size: 0x8, addend: 0x0, symName: __ZN7gguf_kvC2IyEERKNSt3__112basic_stringIcNS1_11char_traitsIcEENS1_9allocatorIcEEEERKNS1_6vectorIT_NS5_ISB_EEEE.cold.1, symObjAddr: 0x14670, symBinAddr: 0x1C4AF0, symSize: 0x20 }
  - { offset: 0x32FE0B, size: 0x8, addend: 0x0, symName: __ZN7gguf_kvC2IyEERKNSt3__112basic_stringIcNS1_11char_traitsIcEENS1_9allocatorIcEEEET_.cold.1, symObjAddr: 0x14690, symBinAddr: 0x1C4B10, symSize: 0x20 }
  - { offset: 0x3305EA, size: 0x8, addend: 0x0, symName: __ZN7gguf_kvC2IxEERKNSt3__112basic_stringIcNS1_11char_traitsIcEENS1_9allocatorIcEEEERKNS1_6vectorIT_NS5_ISB_EEEE, symObjAddr: 0xF900, symBinAddr: 0xCBC70, symSize: 0x170 }
  - { offset: 0x3305F5, size: 0x8, addend: 0x0, symName: __ZN7gguf_kvC2IxEERKNSt3__112basic_stringIcNS1_11char_traitsIcEENS1_9allocatorIcEEEERKNS1_6vectorIT_NS5_ISB_EEEE.cold.1, symObjAddr: 0x146B0, symBinAddr: 0x1C4B30, symSize: 0x20 }
  - { offset: 0x33071F, size: 0x8, addend: 0x0, symName: __ZN7gguf_kvC2IxEERKNSt3__112basic_stringIcNS1_11char_traitsIcEENS1_9allocatorIcEEEET_.cold.1, symObjAddr: 0x146D0, symBinAddr: 0x1C4B50, symSize: 0x20 }
  - { offset: 0x330865, size: 0x8, addend: 0x0, symName: __ZNSt3__16vectorIdNS_9allocatorIdEEE6resizeEm, symObjAddr: 0xFF30, symBinAddr: 0xCC2A0, symSize: 0x150 }
  - { offset: 0x33112D, size: 0x8, addend: 0x0, symName: __ZN7gguf_kvC2IdEERKNSt3__112basic_stringIcNS1_11char_traitsIcEENS1_9allocatorIcEEEERKNS1_6vectorIT_NS5_ISB_EEEE, symObjAddr: 0x10090, symBinAddr: 0xCC3F0, symSize: 0x170 }
  - { offset: 0x331138, size: 0x8, addend: 0x0, symName: __ZN7gguf_kvC2IdEERKNSt3__112basic_stringIcNS1_11char_traitsIcEENS1_9allocatorIcEEEERKNS1_6vectorIT_NS5_ISB_EEEE.cold.1, symObjAddr: 0x146F0, symBinAddr: 0x1C4B70, symSize: 0x20 }
  - { offset: 0x331262, size: 0x8, addend: 0x0, symName: __ZN7gguf_kvC2IdEERKNSt3__112basic_stringIcNS1_11char_traitsIcEENS1_9allocatorIcEEEET_.cold.1, symObjAddr: 0x14710, symBinAddr: 0x1C4B90, symSize: 0x15 }
  - { offset: 0x33141D, size: 0x8, addend: 0x0, symName: __ZN15gguf_writer_buf5writeERKNSt3__16vectorIaNS0_9allocatorIaEEEE, symObjAddr: 0x106B0, symBinAddr: 0xCCA10, symSize: 0x40 }
  - { offset: 0x331578, size: 0x8, addend: 0x0, symName: __ZNSt3__16vectorIaNS_9allocatorIaEEE18__insert_with_sizeB9nqe220106INS_17_ClassicAlgPolicyENS_11__wrap_iterIPKaEES9_EENS6_IPaEES9_T0_T1_l, symObjAddr: 0x10A40, symBinAddr: 0xCCDA0, symSize: 0x460 }
  - { offset: 0x3327C5, size: 0x8, addend: 0x0, symName: __ZN16gguf_writer_file5writeERKNSt3__16vectorIaNS0_9allocatorIaEEEE, symObjAddr: 0x11120, symBinAddr: 0xCD480, symSize: 0x290 }
  - { offset: 0x3330A8, size: 0x8, addend: 0x0, symName: __ZNSt3__16__treeINS_12__value_typeI9gguf_typemEENS_19__map_value_compareIS2_NS_4pairIKS2_mEENS_4lessIS2_EEEENS_9allocatorIS7_EEED1B9nqe220106Ev, symObjAddr: 0x115E0, symBinAddr: 0xCD940, symSize: 0x30 }
  - { offset: 0x333487, size: 0x8, addend: 0x0, symName: __ZZNSt3__16__treeINS_12__value_typeI9gguf_typemEENS_19__map_value_compareIS2_NS_4pairIKS2_mEENS_4lessIS2_EEEENS_9allocatorIS7_EEE21__insert_range_uniqueB9nqe220106IPKS7_SG_EEvT_T0_ENKUlRS6_RSF_E_clESJ_SK_, symObjAddr: 0x117A0, symBinAddr: 0xCD970, symSize: 0x110 }
  - { offset: 0x333A87, size: 0x8, addend: 0x0, symName: __ZNSt3__16__treeINS_12__value_typeI9gguf_typePKcEENS_19__map_value_compareIS2_NS_4pairIKS2_S4_EENS_4lessIS2_EEEENS_9allocatorIS9_EEED1B9nqe220106Ev, symObjAddr: 0x11900, symBinAddr: 0xCDAD0, symSize: 0x30 }
  - { offset: 0x333DF4, size: 0x8, addend: 0x0, symName: __ZZNSt3__16__treeINS_12__value_typeI9gguf_typePKcEENS_19__map_value_compareIS2_NS_4pairIKS2_S4_EENS_4lessIS2_EEEENS_9allocatorIS9_EEE21__insert_range_uniqueB9nqe220106IPKS9_SI_EEvT_T0_ENKUlRS8_RSH_E_clESL_SM_, symObjAddr: 0x11930, symBinAddr: 0xCDB00, symSize: 0x110 }
  - { offset: 0x3345AD, size: 0x8, addend: 0x0, symName: __ZNSt3__16vectorI16gguf_tensor_infoNS_9allocatorIS1_EEE20__throw_length_errorB9nqe220106Ev, symObjAddr: 0x11BB0, symBinAddr: 0xCDD80, symSize: 0x10 }
  - { offset: 0x3345C5, size: 0x8, addend: 0x0, symName: __ZN7gguf_kvaSEOS_, symObjAddr: 0x11BC0, symBinAddr: 0xCDD90, symSize: 0x130 }
  - { offset: 0x3347D0, size: 0x8, addend: 0x0, symName: __ZN16gguf_writer_base5writeERKNSt3__112basic_stringIcNS0_11char_traitsIcEENS0_9allocatorIcEEEE, symObjAddr: 0x14250, symBinAddr: 0xD03B0, symSize: 0x110 }
  - { offset: 0x334AC6, size: 0x8, addend: 0x0, symName: __ZN16gguf_writer_base5writeEPKc, symObjAddr: 0x14360, symBinAddr: 0xD04C0, symSize: 0xD0 }
  - { offset: 0x335368, size: 0x8, addend: 0x0, symName: __GLOBAL__sub_I_gguf.cpp, symObjAddr: 0x158A0, symBinAddr: 0xD0590, symSize: 0x505 }
  - { offset: 0x337AF0, size: 0x8, addend: 0x0, symName: _ggml_compute_forward_add_non_quantized, symObjAddr: 0x0, symBinAddr: 0xD0AA0, symSize: 0x4A00 }
  - { offset: 0x33A7D7, size: 0x8, addend: 0x0, symName: _ggml_compute_forward_add_non_quantized, symObjAddr: 0x0, symBinAddr: 0xD0AA0, symSize: 0x4A00 }
  - { offset: 0x33E0BE, size: 0x8, addend: 0x0, symName: _ggml_compute_forward_sub, symObjAddr: 0x4A00, symBinAddr: 0xD54A0, symSize: 0x4A00 }
  - { offset: 0x341922, size: 0x8, addend: 0x0, symName: _ggml_compute_forward_mul, symObjAddr: 0x9400, symBinAddr: 0xD9EA0, symSize: 0x4A00 }
  - { offset: 0x345186, size: 0x8, addend: 0x0, symName: _ggml_compute_forward_div, symObjAddr: 0xDE00, symBinAddr: 0xDE8A0, symSize: 0x4A53 }
  - { offset: 0x348EF0, size: 0x8, addend: 0x0, symName: _ggml_get_type_traits_cpu, symObjAddr: 0x0, symBinAddr: 0xE3300, symSize: 0x20 }
  - { offset: 0x348F0C, size: 0x8, addend: 0x0, symName: _ggml_cpu_init, symObjAddr: 0x4820, symBinAddr: 0xE7B20, symSize: 0x4B0 }
  - { offset: 0x348F30, size: 0x8, addend: 0x0, symName: _ggml_cpu_init.is_first_call, symObjAddr: 0x24699, symBinAddr: 0x2923E0, symSize: 0x0 }
  - { offset: 0x349153, size: 0x8, addend: 0x0, symName: _ggml_table_f32_f16, symBinAddr: 0x2D2C40, symSize: 0x0 }
  - { offset: 0x349181, size: 0x8, addend: 0x0, symName: _ggml_table_f32_e8m0_half, symBinAddr: 0x2D2840, symSize: 0x0 }
  - { offset: 0x3491A6, size: 0x8, addend: 0x0, symName: _type_traits_cpu, symObjAddr: 0x7D70, symBinAddr: 0x1F87C0, symSize: 0x0 }
  - { offset: 0x34945B, size: 0x8, addend: 0x0, symName: _ggml_cpu_disable_fusion, symObjAddr: 0x2469A, symBinAddr: 0x2923E1, symSize: 0x0 }
  - { offset: 0x34A944, size: 0x8, addend: 0x0, symName: _ggml_get_type_traits_cpu, symObjAddr: 0x0, symBinAddr: 0xE3300, symSize: 0x20 }
  - { offset: 0x34A979, size: 0x8, addend: 0x0, symName: _ggml_barrier, symObjAddr: 0x20, symBinAddr: 0xE3320, symSize: 0x70 }
  - { offset: 0x34A9CA, size: 0x8, addend: 0x0, symName: _ggml_threadpool_chunk_set, symObjAddr: 0x90, symBinAddr: 0xE3390, symSize: 0x10 }
  - { offset: 0x34AA00, size: 0x8, addend: 0x0, symName: _ggml_threadpool_chunk_add, symObjAddr: 0xA0, symBinAddr: 0xE33A0, symSize: 0x10 }
  - { offset: 0x34AA3C, size: 0x8, addend: 0x0, symName: _ggml_numa_init, symObjAddr: 0xB0, symBinAddr: 0xE33B0, symSize: 0x10 }
  - { offset: 0x34AA63, size: 0x8, addend: 0x0, symName: _ggml_is_numa, symObjAddr: 0xC0, symBinAddr: 0xE33C0, symSize: 0x10 }
  - { offset: 0x34AA7E, size: 0x8, addend: 0x0, symName: _ggml_new_i32, symObjAddr: 0xD0, symBinAddr: 0xE33D0, symSize: 0x60 }
  - { offset: 0x34AB6A, size: 0x8, addend: 0x0, symName: _ggml_set_i32, symObjAddr: 0x130, symBinAddr: 0xE3430, symSize: 0x850 }
  - { offset: 0x34B02F, size: 0x8, addend: 0x0, symName: _ggml_new_f32, symObjAddr: 0x980, symBinAddr: 0xE3C80, symSize: 0x60 }
  - { offset: 0x34B0DC, size: 0x8, addend: 0x0, symName: _ggml_set_f32, symObjAddr: 0x9E0, symBinAddr: 0xE3CE0, symSize: 0x860 }
  - { offset: 0x34B456, size: 0x8, addend: 0x0, symName: _ggml_get_i32_1d, symObjAddr: 0x1240, symBinAddr: 0xE4540, symSize: 0x2C0 }
  - { offset: 0x34B640, size: 0x8, addend: 0x0, symName: _ggml_get_i32_nd, symObjAddr: 0x1500, symBinAddr: 0xE4800, symSize: 0x120 }
  - { offset: 0x34B8A7, size: 0x8, addend: 0x0, symName: _ggml_set_i32_1d, symObjAddr: 0x1620, symBinAddr: 0xE4920, symSize: 0x370 }
  - { offset: 0x34BB58, size: 0x8, addend: 0x0, symName: _ggml_set_i32_nd, symObjAddr: 0x1990, symBinAddr: 0xE4C90, symSize: 0x1C0 }
  - { offset: 0x34BD25, size: 0x8, addend: 0x0, symName: _ggml_get_f32_1d, symObjAddr: 0x1B50, symBinAddr: 0xE4E50, symSize: 0x1C0 }
  - { offset: 0x34BE3D, size: 0x8, addend: 0x0, symName: _ggml_get_f32_nd, symObjAddr: 0x1D10, symBinAddr: 0xE5010, symSize: 0x120 }
  - { offset: 0x34BF02, size: 0x8, addend: 0x0, symName: _ggml_set_f32_1d, symObjAddr: 0x1E30, symBinAddr: 0xE5130, symSize: 0x270 }
  - { offset: 0x34C12C, size: 0x8, addend: 0x0, symName: _ggml_set_f32_nd, symObjAddr: 0x20A0, symBinAddr: 0xE53A0, symSize: 0x1C0 }
  - { offset: 0x34C6FE, size: 0x8, addend: 0x0, symName: _ggml_compute_forward_mul_mat, symObjAddr: 0x2260, symBinAddr: 0xE5560, symSize: 0x11C0 }
  - { offset: 0x34D020, size: 0x8, addend: 0x0, symName: _ggml_threadpool_free, symObjAddr: 0x3420, symBinAddr: 0xE6720, symSize: 0x100 }
  - { offset: 0x34D22B, size: 0x8, addend: 0x0, symName: _ggml_threadpool_pause, symObjAddr: 0x3520, symBinAddr: 0xE6820, symSize: 0x40 }
  - { offset: 0x34D2C7, size: 0x8, addend: 0x0, symName: _ggml_threadpool_resume, symObjAddr: 0x3560, symBinAddr: 0xE6860, symSize: 0x40 }
  - { offset: 0x34D571, size: 0x8, addend: 0x0, symName: _ggml_graph_plan, symObjAddr: 0x35A0, symBinAddr: 0xE68A0, symSize: 0xB90 }
  - { offset: 0x34DE3D, size: 0x8, addend: 0x0, symName: _ggml_threadpool_new, symObjAddr: 0x4130, symBinAddr: 0xE7430, symSize: 0x10 }
  - { offset: 0x34DE8B, size: 0x8, addend: 0x0, symName: _ggml_threadpool_new_impl, symObjAddr: 0x4140, symBinAddr: 0xE7440, symSize: 0x440 }
  - { offset: 0x34E459, size: 0x8, addend: 0x0, symName: _ggml_graph_compute, symObjAddr: 0x4580, symBinAddr: 0xE7880, symSize: 0x2A0 }
  - { offset: 0x34E782, size: 0x8, addend: 0x0, symName: _ggml_graph_compute_thread, symObjAddr: 0x4CD0, symBinAddr: 0xE7FD0, symSize: 0xBB0 }
  - { offset: 0x34FEBD, size: 0x8, addend: 0x0, symName: _ggml_compute_forward_mul_mat_id, symObjAddr: 0x6220, symBinAddr: 0xE9520, symSize: 0x1287 }
  - { offset: 0x350D96, size: 0x8, addend: 0x0, symName: _ggml_graph_compute_with_ctx, symObjAddr: 0x5880, symBinAddr: 0xE8B80, symSize: 0x50 }
  - { offset: 0x350E6F, size: 0x8, addend: 0x0, symName: _ggml_cpu_fp32_to_fp32, symObjAddr: 0x58D0, symBinAddr: 0xE8BD0, symSize: 0x20 }
  - { offset: 0x350EBA, size: 0x8, addend: 0x0, symName: _ggml_cpu_fp32_to_fp16, symObjAddr: 0x58F0, symBinAddr: 0xE8BF0, symSize: 0x200 }
  - { offset: 0x350FFB, size: 0x8, addend: 0x0, symName: _ggml_cpu_fp16_to_fp32, symObjAddr: 0x5AF0, symBinAddr: 0xE8DF0, symSize: 0xC0 }
  - { offset: 0x351065, size: 0x8, addend: 0x0, symName: _ggml_cpu_fp32_to_bf16, symObjAddr: 0x5BB0, symBinAddr: 0xE8EB0, symSize: 0x100 }
  - { offset: 0x3510D4, size: 0x8, addend: 0x0, symName: _ggml_cpu_fp32_to_i32, symObjAddr: 0x5CB0, symBinAddr: 0xE8FB0, symSize: 0x70 }
  - { offset: 0x35112A, size: 0x8, addend: 0x0, symName: _ggml_cpu_bf16_to_fp32, symObjAddr: 0x5D20, symBinAddr: 0xE9020, symSize: 0x100 }
  - { offset: 0x351199, size: 0x8, addend: 0x0, symName: _ggml_cpu_has_avx, symObjAddr: 0x5E20, symBinAddr: 0xE9120, symSize: 0x10 }
  - { offset: 0x3511B4, size: 0x8, addend: 0x0, symName: _ggml_cpu_has_avx_vnni, symObjAddr: 0x5E30, symBinAddr: 0xE9130, symSize: 0x10 }
  - { offset: 0x3511CF, size: 0x8, addend: 0x0, symName: _ggml_cpu_has_avx2, symObjAddr: 0x5E40, symBinAddr: 0xE9140, symSize: 0x10 }
  - { offset: 0x3511EA, size: 0x8, addend: 0x0, symName: _ggml_cpu_has_avx512, symObjAddr: 0x5E50, symBinAddr: 0xE9150, symSize: 0x10 }
  - { offset: 0x351205, size: 0x8, addend: 0x0, symName: _ggml_cpu_has_avx512_vbmi, symObjAddr: 0x5E60, symBinAddr: 0xE9160, symSize: 0x10 }
  - { offset: 0x351220, size: 0x8, addend: 0x0, symName: _ggml_cpu_has_avx512_vnni, symObjAddr: 0x5E70, symBinAddr: 0xE9170, symSize: 0x10 }
  - { offset: 0x35123B, size: 0x8, addend: 0x0, symName: _ggml_cpu_has_avx512_bf16, symObjAddr: 0x5E80, symBinAddr: 0xE9180, symSize: 0x10 }
  - { offset: 0x351256, size: 0x8, addend: 0x0, symName: _ggml_cpu_has_amx_int8, symObjAddr: 0x5E90, symBinAddr: 0xE9190, symSize: 0x10 }
  - { offset: 0x351271, size: 0x8, addend: 0x0, symName: _ggml_cpu_has_bmi2, symObjAddr: 0x5EA0, symBinAddr: 0xE91A0, symSize: 0x10 }
  - { offset: 0x35128C, size: 0x8, addend: 0x0, symName: _ggml_cpu_has_fma, symObjAddr: 0x5EB0, symBinAddr: 0xE91B0, symSize: 0x10 }
  - { offset: 0x3512A7, size: 0x8, addend: 0x0, symName: _ggml_cpu_has_arm_fma, symObjAddr: 0x5EC0, symBinAddr: 0xE91C0, symSize: 0x10 }
  - { offset: 0x3512C2, size: 0x8, addend: 0x0, symName: _ggml_cpu_has_riscv_v, symObjAddr: 0x5ED0, symBinAddr: 0xE91D0, symSize: 0x10 }
  - { offset: 0x3512DD, size: 0x8, addend: 0x0, symName: _ggml_cpu_get_rvv_vlen, symObjAddr: 0x5EE0, symBinAddr: 0xE91E0, symSize: 0x10 }
  - { offset: 0x3512F8, size: 0x8, addend: 0x0, symName: _ggml_cpu_has_f16c, symObjAddr: 0x5EF0, symBinAddr: 0xE91F0, symSize: 0x10 }
  - { offset: 0x351313, size: 0x8, addend: 0x0, symName: _ggml_cpu_has_fp16_va, symObjAddr: 0x5F00, symBinAddr: 0xE9200, symSize: 0x10 }
  - { offset: 0x35132E, size: 0x8, addend: 0x0, symName: _ggml_cpu_has_wasm_simd, symObjAddr: 0x5F10, symBinAddr: 0xE9210, symSize: 0x10 }
  - { offset: 0x351349, size: 0x8, addend: 0x0, symName: _ggml_cpu_has_llamafile, symObjAddr: 0x5F20, symBinAddr: 0xE9220, symSize: 0x10 }
  - { offset: 0x351364, size: 0x8, addend: 0x0, symName: _ggml_cpu_has_sse3, symObjAddr: 0x5F30, symBinAddr: 0xE9230, symSize: 0x10 }
  - { offset: 0x35137F, size: 0x8, addend: 0x0, symName: _ggml_cpu_has_ssse3, symObjAddr: 0x5F40, symBinAddr: 0xE9240, symSize: 0x10 }
  - { offset: 0x35139A, size: 0x8, addend: 0x0, symName: _ggml_cpu_has_vsx, symObjAddr: 0x5F50, symBinAddr: 0xE9250, symSize: 0x10 }
  - { offset: 0x3513B5, size: 0x8, addend: 0x0, symName: _ggml_cpu_has_vxe, symObjAddr: 0x5F60, symBinAddr: 0xE9260, symSize: 0x10 }
  - { offset: 0x3513D0, size: 0x8, addend: 0x0, symName: _ggml_cpu_has_neon, symObjAddr: 0x5F70, symBinAddr: 0xE9270, symSize: 0x10 }
  - { offset: 0x3513EB, size: 0x8, addend: 0x0, symName: _ggml_cpu_has_dotprod, symObjAddr: 0x5F80, symBinAddr: 0xE9280, symSize: 0x10 }
  - { offset: 0x351406, size: 0x8, addend: 0x0, symName: _ggml_cpu_has_sve, symObjAddr: 0x5F90, symBinAddr: 0xE9290, symSize: 0x10 }
  - { offset: 0x351421, size: 0x8, addend: 0x0, symName: _ggml_cpu_has_matmul_int8, symObjAddr: 0x5FA0, symBinAddr: 0xE92A0, symSize: 0x10 }
  - { offset: 0x35143C, size: 0x8, addend: 0x0, symName: _ggml_cpu_get_sve_cnt, symObjAddr: 0x5FB0, symBinAddr: 0xE92B0, symSize: 0x10 }
  - { offset: 0x351457, size: 0x8, addend: 0x0, symName: _ggml_cpu_has_sme, symObjAddr: 0x5FC0, symBinAddr: 0xE92C0, symSize: 0x10 }
  - { offset: 0x351542, size: 0x8, addend: 0x0, symName: _ggml_graph_compute_secondary_thread, symObjAddr: 0x5FD0, symBinAddr: 0xE92D0, symSize: 0x250 }
  - { offset: 0x351BB4, size: 0x8, addend: 0x0, symName: __Z39ggml_backend_cpu_get_extra_buffer_typesv, symObjAddr: 0x0, symBinAddr: 0xEA7B0, symSize: 0x80 }
  - { offset: 0x351BC2, size: 0x8, addend: 0x0, symName: __Z39ggml_backend_cpu_get_extra_buffer_typesv, symObjAddr: 0x0, symBinAddr: 0xEA7B0, symSize: 0x80 }
  - { offset: 0x351BE2, size: 0x8, addend: 0x0, symName: __ZZ39ggml_backend_cpu_get_extra_buffer_typesvE5bufts, symObjAddr: 0x367D8, symBinAddr: 0x2923E8, symSize: 0x0 }
  - { offset: 0x357390, size: 0x8, addend: 0x0, symName: _ggml_backend_cpu_reg, symObjAddr: 0x250, symBinAddr: 0xEAA00, symSize: 0x20 }
  - { offset: 0x3573B1, size: 0x8, addend: 0x0, symName: __ZZ20ggml_backend_cpu_regE20ggml_backend_cpu_reg, symObjAddr: 0x2B70, symBinAddr: 0x1FB9D0, symSize: 0x0 }
  - { offset: 0x3574B6, size: 0x8, addend: 0x0, symName: __ZL18ggml_backend_cpu_i, symObjAddr: 0x2798, symBinAddr: 0x1F8D00, symSize: 0x0 }
  - { offset: 0x3574C9, size: 0x8, addend: 0x0, symName: __ZL31ggml_backend_cpu_reg_get_deviceP16ggml_backend_regm, symObjAddr: 0x450, symBinAddr: 0xEAC00, symSize: 0xC0 }
  - { offset: 0x3574F5, size: 0x8, addend: 0x0, symName: __ZZL31ggml_backend_cpu_reg_get_deviceP16ggml_backend_regmE3ctx, symObjAddr: 0x367F8, symBinAddr: 0x292408, symSize: 0x0 }
  - { offset: 0x35750C, size: 0x8, addend: 0x0, symName: __ZZL31ggml_backend_cpu_reg_get_deviceP16ggml_backend_regmE23ggml_backend_cpu_device, symObjAddr: 0x36818, symBinAddr: 0x292428, symSize: 0x0 }
  - { offset: 0x3575E1, size: 0x8, addend: 0x0, symName: __ZL25ggml_backend_cpu_device_i, symObjAddr: 0x2818, symBinAddr: 0x1F8D80, symSize: 0x0 }
  - { offset: 0x3575F4, size: 0x8, addend: 0x0, symName: __ZL46ggml_backend_cpu_device_get_extra_buffers_typeP19ggml_backend_device, symObjAddr: 0x1220, symBinAddr: 0xEB7F0, symSize: 0x80 }
  - { offset: 0x35761E, size: 0x8, addend: 0x0, symName: __ZZL46ggml_backend_cpu_device_get_extra_buffers_typeP19ggml_backend_deviceE11extra_bufts, symObjAddr: 0x368A8, symBinAddr: 0x2924B8, symSize: 0x0 }
  - { offset: 0x357671, size: 0x8, addend: 0x0, symName: __ZL29ggml_backend_cpu_get_featuresP16ggml_backend_reg, symObjAddr: 0x12A0, symBinAddr: 0xEB870, symSize: 0x80 }
  - { offset: 0x35769D, size: 0x8, addend: 0x0, symName: __ZZL29ggml_backend_cpu_get_featuresP16ggml_backend_regE8features, symObjAddr: 0x368C8, symBinAddr: 0x2924D8, symSize: 0x0 }
  - { offset: 0x3577E0, size: 0x8, addend: 0x0, symName: '__ZZL29ggml_backend_cpu_get_featuresP16ggml_backend_regENK3$_0clEv', symObjAddr: 0x1520, symBinAddr: 0xEBAF0, symSize: 0xF10 }
  - { offset: 0x357809, size: 0x8, addend: 0x0, symName: '__ZZZL29ggml_backend_cpu_get_featuresP16ggml_backend_regENK3$_0clEvE7sve_cnt', symObjAddr: 0x368E8, symBinAddr: 0x2924F8, symSize: 0x0 }
  - { offset: 0x357820, size: 0x8, addend: 0x0, symName: '__ZZZL29ggml_backend_cpu_get_featuresP16ggml_backend_regENK3$_0clEvE8rvv_vlen', symObjAddr: 0x36908, symBinAddr: 0x292518, symSize: 0x0 }
  - { offset: 0x35A000, size: 0x8, addend: 0x0, symName: '__ZZ39ggml_backend_cpu_get_extra_buffer_typesvENK3$_0clEv', symObjAddr: 0x80, symBinAddr: 0xEA830, symSize: 0xC0 }
  - { offset: 0x35A7C6, size: 0x8, addend: 0x0, symName: __ZNSt3__16vectorIP24ggml_backend_buffer_typeNS_9allocatorIS2_EEED1B9nqe220106Ev, symObjAddr: 0x140, symBinAddr: 0xEA8F0, symSize: 0x20 }
  - { offset: 0x35A8D4, size: 0x8, addend: 0x0, symName: _ggml_backend_cpu_init, symObjAddr: 0x160, symBinAddr: 0xEA910, symSize: 0xF0 }
  - { offset: 0x35A962, size: 0x8, addend: 0x0, symName: _ggml_backend_is_cpu, symObjAddr: 0x270, symBinAddr: 0xEAA20, symSize: 0x20 }
  - { offset: 0x35A9C0, size: 0x8, addend: 0x0, symName: _ggml_backend_cpu_set_n_threads, symObjAddr: 0x290, symBinAddr: 0xEAA40, symSize: 0x60 }
  - { offset: 0x35AA67, size: 0x8, addend: 0x0, symName: _ggml_backend_cpu_set_threadpool, symObjAddr: 0x2F0, symBinAddr: 0xEAAA0, symSize: 0x70 }
  - { offset: 0x35AB14, size: 0x8, addend: 0x0, symName: _ggml_backend_cpu_set_abort_callback, symObjAddr: 0x360, symBinAddr: 0xEAB10, symSize: 0x70 }
  - { offset: 0x35ABB6, size: 0x8, addend: 0x0, symName: _ggml_backend_cpu_set_use_ref, symObjAddr: 0x3D0, symBinAddr: 0xEAB80, symSize: 0x60 }
  - { offset: 0x35AC47, size: 0x8, addend: 0x0, symName: __ZL29ggml_backend_cpu_reg_get_nameP16ggml_backend_reg, symObjAddr: 0x430, symBinAddr: 0xEABE0, symSize: 0x10 }
  - { offset: 0x35AC73, size: 0x8, addend: 0x0, symName: __ZL37ggml_backend_cpu_reg_get_device_countP16ggml_backend_reg, symObjAddr: 0x440, symBinAddr: 0xEABF0, symSize: 0x10 }
  - { offset: 0x35ACB9, size: 0x8, addend: 0x0, symName: __ZN31ggml_backend_cpu_device_contextC2Ev, symObjAddr: 0x1190, symBinAddr: 0xEB760, symSize: 0x90 }
  - { offset: 0x35AFD0, size: 0x8, addend: 0x0, symName: __ZL31ggml_backend_cpu_reg_get_deviceP16ggml_backend_regm.cold.1, symObjAddr: 0x2570, symBinAddr: 0x1C4BB0, symSize: 0x5A }
  - { offset: 0x35AFFA, size: 0x8, addend: 0x0, symName: __ZL33ggml_backend_cpu_get_proc_addressP16ggml_backend_regPKc, symObjAddr: 0x510, symBinAddr: 0xEACC0, symSize: 0x180 }
  - { offset: 0x35B373, size: 0x8, addend: 0x0, symName: __ZL25ggml_backend_cpu_get_nameP12ggml_backend, symObjAddr: 0x870, symBinAddr: 0xEAE40, symSize: 0x10 }
  - { offset: 0x35B39D, size: 0x8, addend: 0x0, symName: __ZL21ggml_backend_cpu_freeP12ggml_backend, symObjAddr: 0x880, symBinAddr: 0xEAE50, symSize: 0x40 }
  - { offset: 0x35B3D8, size: 0x8, addend: 0x0, symName: __ZL34ggml_backend_cpu_graph_plan_createP12ggml_backendPK11ggml_cgraph, symObjAddr: 0x8C0, symBinAddr: 0xEAE90, symSize: 0xC0 }
  - { offset: 0x35B471, size: 0x8, addend: 0x0, symName: __ZL32ggml_backend_cpu_graph_plan_freeP12ggml_backendPv, symObjAddr: 0x980, symBinAddr: 0xEAF50, symSize: 0x30 }
  - { offset: 0x35B4B7, size: 0x8, addend: 0x0, symName: __ZL35ggml_backend_cpu_graph_plan_computeP12ggml_backendPv, symObjAddr: 0x9B0, symBinAddr: 0xEAF80, symSize: 0x10 }
  - { offset: 0x35B531, size: 0x8, addend: 0x0, symName: __ZL30ggml_backend_cpu_graph_computeP12ggml_backendP11ggml_cgraph, symObjAddr: 0x9C0, symBinAddr: 0xEAF90, symSize: 0x90 }
  - { offset: 0x35B6DC, size: 0x8, addend: 0x0, symName: __ZN31ggml_backend_cpu_device_contextD1Ev, symObjAddr: 0xA50, symBinAddr: 0xEB020, symSize: 0x20 }
  - { offset: 0x35B80F, size: 0x8, addend: 0x0, symName: __ZL32ggml_backend_cpu_device_get_nameP19ggml_backend_device, symObjAddr: 0xA70, symBinAddr: 0xEB040, symSize: 0x10 }
  - { offset: 0x35B8A9, size: 0x8, addend: 0x0, symName: __ZL39ggml_backend_cpu_device_get_descriptionP19ggml_backend_device, symObjAddr: 0xA80, symBinAddr: 0xEB050, symSize: 0x20 }
  - { offset: 0x35B978, size: 0x8, addend: 0x0, symName: __ZL34ggml_backend_cpu_device_get_memoryP19ggml_backend_devicePmS1_, symObjAddr: 0xAA0, symBinAddr: 0xEB070, symSize: 0x40 }
  - { offset: 0x35B9FA, size: 0x8, addend: 0x0, symName: __ZL32ggml_backend_cpu_device_get_typeP19ggml_backend_device, symObjAddr: 0xAE0, symBinAddr: 0xEB0B0, symSize: 0x10 }
  - { offset: 0x35BA9F, size: 0x8, addend: 0x0, symName: __ZL33ggml_backend_cpu_device_get_propsP19ggml_backend_deviceP22ggml_backend_dev_props, symObjAddr: 0xAF0, symBinAddr: 0xEB0C0, symSize: 0x70 }
  - { offset: 0x35BC59, size: 0x8, addend: 0x0, symName: __ZL36ggml_backend_cpu_device_init_backendP19ggml_backend_devicePKc, symObjAddr: 0xB60, symBinAddr: 0xEB130, symSize: 0xF0 }
  - { offset: 0x35BCF0, size: 0x8, addend: 0x0, symName: __ZL39ggml_backend_cpu_device_get_buffer_typeP19ggml_backend_device, symObjAddr: 0xC50, symBinAddr: 0xEB220, symSize: 0x10 }
  - { offset: 0x35BD37, size: 0x8, addend: 0x0, symName: __ZL44ggml_backend_cpu_device_buffer_from_host_ptrP19ggml_backend_devicePvmm, symObjAddr: 0xC60, symBinAddr: 0xEB230, symSize: 0x10 }
  - { offset: 0x35BE74, size: 0x8, addend: 0x0, symName: __ZL35ggml_backend_cpu_device_supports_opP19ggml_backend_devicePK11ggml_tensor, symObjAddr: 0xC70, symBinAddr: 0xEB240, symSize: 0x460 }
  - { offset: 0x35C0FB, size: 0x8, addend: 0x0, symName: __ZL37ggml_backend_cpu_device_supports_buftP19ggml_backend_deviceP24ggml_backend_buffer_type, symObjAddr: 0x10D0, symBinAddr: 0xEB6A0, symSize: 0xC0 }
  - { offset: 0x35C3AB, size: 0x8, addend: 0x0, symName: '__ZZL46ggml_backend_cpu_device_get_extra_buffers_typeP19ggml_backend_deviceENK3$_0clEv', symObjAddr: 0x1320, symBinAddr: 0xEB8F0, symSize: 0x200 }
  - { offset: 0x35D019, size: 0x8, addend: 0x0, symName: __ZZNSt3__16vectorI20ggml_backend_featureNS_9allocatorIS1_EEE12emplace_backIJS1_EEERS1_DpOT_ENKUlvE0_clEv, symObjAddr: 0x2450, symBinAddr: 0xECA20, symSize: 0x110 }
  - { offset: 0x35D394, size: 0x8, addend: 0x0, symName: __ZNSt3__16vectorI20ggml_backend_featureNS_9allocatorIS1_EEED1B9nqe220106Ev, symObjAddr: 0x2430, symBinAddr: 0xECA00, symSize: 0x20 }
  - { offset: 0x35D65D, size: 0x8, addend: 0x0, symName: __ZNSt3__16vectorI20ggml_backend_featureNS_9allocatorIS1_EEE20__throw_length_errorB9nqe220106Ev, symObjAddr: 0x2560, symBinAddr: 0xECB30, symSize: 0x10 }
  - { offset: 0x35D675, size: 0x8, addend: 0x0, symName: __ZL31ggml_backend_cpu_reg_get_deviceP16ggml_backend_regm.cold.1, symObjAddr: 0x2570, symBinAddr: 0x1C4BB0, symSize: 0x5A }
  - { offset: 0x35F582, size: 0x8, addend: 0x0, symName: _ggml_compute_forward_dup, symObjAddr: 0x0, symBinAddr: 0xECB40, symSize: 0x9040 }
  - { offset: 0x35F773, size: 0x8, addend: 0x0, symName: __ZNSt3__111__introsortINS_17_ClassicAlgPolicyER11cmp_argsortIL15ggml_sort_order0EEPiLb0EEEvT1_S7_T0_NS_15iterator_traitsIS7_E15difference_typeEb, symObjAddr: 0x4A790, symBinAddr: 0x1372D0, symSize: 0x8B0 }
  - { offset: 0x3616FA, size: 0x8, addend: 0x0, symName: __ZNSt3__127__insertion_sort_incompleteB9nqe220106INS_17_ClassicAlgPolicyER11cmp_argsortIL15ggml_sort_order0EEPiEEbT1_S7_T0_, symObjAddr: 0x4B1A0, symBinAddr: 0x137CE0, symSize: 0x310 }
  - { offset: 0x3622A0, size: 0x8, addend: 0x0, symName: __ZNSt3__111__introsortINS_17_ClassicAlgPolicyER11cmp_argsortIL15ggml_sort_order1EEPiLb0EEEvT1_S7_T0_NS_15iterator_traitsIS7_E15difference_typeEb, symObjAddr: 0x4B870, symBinAddr: 0x1383B0, symSize: 0x8B0 }
  - { offset: 0x364211, size: 0x8, addend: 0x0, symName: __ZNSt3__127__insertion_sort_incompleteB9nqe220106INS_17_ClassicAlgPolicyER11cmp_argsortIL15ggml_sort_order1EEPiEEbT1_S7_T0_, symObjAddr: 0x4C290, symBinAddr: 0x138DD0, symSize: 0x300 }
  - { offset: 0x3653BB, size: 0x8, addend: 0x0, symName: __ZNSt3__119__partial_sort_implB9nqe220106INS_17_ClassicAlgPolicyER9cmp_top_kPiS4_EET1_S5_S5_T2_OT0_, symObjAddr: 0x4C960, symBinAddr: 0x1394A0, symSize: 0x3D0 }
  - { offset: 0x365F0F, size: 0x8, addend: 0x0, symName: __ZNSt3__17__sort5B9nqe220106INS_17_ClassicAlgPolicyER11cmp_argsortIL15ggml_sort_order0EEPiLi0EEEvT1_S7_S7_S7_S7_T0_, symObjAddr: 0x4B040, symBinAddr: 0x137B80, symSize: 0x160 }
  - { offset: 0x36665C, size: 0x8, addend: 0x0, symName: __ZNSt3__119__partial_sort_implB9nqe220106INS_17_ClassicAlgPolicyER11cmp_argsortIL15ggml_sort_order0EEPiS6_EET1_S7_S7_T2_OT0_, symObjAddr: 0x4B4B0, symBinAddr: 0x137FF0, symSize: 0x3C0 }
  - { offset: 0x36730E, size: 0x8, addend: 0x0, symName: __ZNSt3__17__sort5B9nqe220106INS_17_ClassicAlgPolicyER11cmp_argsortIL15ggml_sort_order1EEPiLi0EEEvT1_S7_S7_S7_S7_T0_, symObjAddr: 0x4C120, symBinAddr: 0x138C60, symSize: 0x170 }
  - { offset: 0x367A5B, size: 0x8, addend: 0x0, symName: __ZNSt3__119__partial_sort_implB9nqe220106INS_17_ClassicAlgPolicyER11cmp_argsortIL15ggml_sort_order1EEPiS6_EET1_S7_S7_T2_OT0_, symObjAddr: 0x4C590, symBinAddr: 0x1390D0, symSize: 0x3D0 }
  - { offset: 0x36B7C2, size: 0x8, addend: 0x0, symName: _ggml_compute_forward_dup, symObjAddr: 0x0, symBinAddr: 0xECB40, symSize: 0x9040 }
  - { offset: 0x36E543, size: 0x8, addend: 0x0, symName: __ZL28ggml_compute_forward_dup_fltIffEvPK19ggml_compute_paramsP11ggml_tensor, symObjAddr: 0xB410, symBinAddr: 0xF7F50, symSize: 0x11C0 }
  - { offset: 0x36EB27, size: 0x8, addend: 0x0, symName: __ZL28ggml_compute_forward_dup_fltIfiEvPK19ggml_compute_paramsP11ggml_tensor, symObjAddr: 0xC5D0, symBinAddr: 0xF9110, symSize: 0x1160 }
  - { offset: 0x36F050, size: 0x8, addend: 0x0, symName: __ZL28ggml_compute_forward_dup_fltIftEvPK19ggml_compute_paramsP11ggml_tensor, symObjAddr: 0x9040, symBinAddr: 0xF5B80, symSize: 0x1460 }
  - { offset: 0x36F84D, size: 0x8, addend: 0x0, symName: __ZL28ggml_compute_forward_dup_fltIf11ggml_bf16_tEvPK19ggml_compute_paramsP11ggml_tensor, symObjAddr: 0xA4A0, symBinAddr: 0xF6FE0, symSize: 0xF70 }
  - { offset: 0x36FDC9, size: 0x8, addend: 0x0, symName: __ZL29ggml_compute_forward_dup_to_qIfEvPK19ggml_compute_paramsP11ggml_tensor, symObjAddr: 0xD730, symBinAddr: 0xFA270, symSize: 0x730 }
  - { offset: 0x370489, size: 0x8, addend: 0x0, symName: _ggml_compute_forward_add, symObjAddr: 0xDE60, symBinAddr: 0xFA9A0, symSize: 0x6D0 }
  - { offset: 0x370B79, size: 0x8, addend: 0x0, symName: _ggml_compute_forward_add_id, symObjAddr: 0xE530, symBinAddr: 0xFB070, symSize: 0x5E0 }
  - { offset: 0x371209, size: 0x8, addend: 0x0, symName: _ggml_compute_forward_add1, symObjAddr: 0xEB10, symBinAddr: 0xFB650, symSize: 0x990 }
  - { offset: 0x371885, size: 0x8, addend: 0x0, symName: __ZL33ggml_compute_forward_add1_f16_f16PK19ggml_compute_paramsP11ggml_tensor, symObjAddr: 0xF4A0, symBinAddr: 0xFBFE0, symSize: 0x690 }
  - { offset: 0x371CE9, size: 0x8, addend: 0x0, symName: __ZL35ggml_compute_forward_add1_bf16_bf16PK19ggml_compute_paramsP11ggml_tensor, symObjAddr: 0x101A0, symBinAddr: 0xFCCE0, symSize: 0x530 }
  - { offset: 0x372082, size: 0x8, addend: 0x0, symName: __ZL33ggml_compute_forward_add1_f16_f32PK19ggml_compute_paramsP11ggml_tensor, symObjAddr: 0xFB30, symBinAddr: 0xFC670, symSize: 0x670 }
  - { offset: 0x3724D0, size: 0x8, addend: 0x0, symName: __ZL34ggml_compute_forward_add1_bf16_f32PK19ggml_compute_paramsP11ggml_tensor, symObjAddr: 0x106D0, symBinAddr: 0xFD210, symSize: 0x530 }
  - { offset: 0x372A13, size: 0x8, addend: 0x0, symName: _ggml_compute_forward_acc, symObjAddr: 0x10C00, symBinAddr: 0xFD740, symSize: 0x3B0 }
  - { offset: 0x3730FB, size: 0x8, addend: 0x0, symName: _ggml_compute_forward_sum, symObjAddr: 0x10FB0, symBinAddr: 0xFDAF0, symSize: 0x5D0 }
  - { offset: 0x3737CA, size: 0x8, addend: 0x0, symName: _ggml_compute_forward_cumsum, symObjAddr: 0x11580, symBinAddr: 0xFE0C0, symSize: 0x490 }
  - { offset: 0x373BCD, size: 0x8, addend: 0x0, symName: _ggml_compute_forward_sum_rows, symObjAddr: 0x11A10, symBinAddr: 0xFE550, symSize: 0x2F0 }
  - { offset: 0x373F39, size: 0x8, addend: 0x0, symName: _ggml_compute_forward_mean, symObjAddr: 0x11D00, symBinAddr: 0xFE840, symSize: 0x1C0 }
  - { offset: 0x3741A2, size: 0x8, addend: 0x0, symName: _ggml_compute_forward_argmax, symObjAddr: 0x11EC0, symBinAddr: 0xFEA00, symSize: 0x1C0 }
  - { offset: 0x374551, size: 0x8, addend: 0x0, symName: _ggml_compute_forward_count_equal, symObjAddr: 0x12080, symBinAddr: 0xFEBC0, symSize: 0x500 }
  - { offset: 0x374BC4, size: 0x8, addend: 0x0, symName: _ggml_compute_forward_repeat, symObjAddr: 0x12580, symBinAddr: 0xFF0C0, symSize: 0x1200 }
  - { offset: 0x37524A, size: 0x8, addend: 0x0, symName: _ggml_compute_forward_repeat_back, symObjAddr: 0x13780, symBinAddr: 0x1002C0, symSize: 0xFC0 }
  - { offset: 0x375DF4, size: 0x8, addend: 0x0, symName: _ggml_compute_forward_concat, symObjAddr: 0x14740, symBinAddr: 0x101280, symSize: 0x2770 }
  - { offset: 0x37683D, size: 0x8, addend: 0x0, symName: _ggml_compute_forward_fill, symObjAddr: 0x16EB0, symBinAddr: 0x1039F0, symSize: 0x5F0 }
  - { offset: 0x376F42, size: 0x8, addend: 0x0, symName: _ggml_compute_forward_tri, symObjAddr: 0x174A0, symBinAddr: 0x103FE0, symSize: 0x280 }
  - { offset: 0x377308, size: 0x8, addend: 0x0, symName: _ggml_compute_forward_leaky_relu, symObjAddr: 0x17720, symBinAddr: 0x104260, symSize: 0x600 }
  - { offset: 0x37784B, size: 0x8, addend: 0x0, symName: _ggml_compute_forward_silu_back, symObjAddr: 0x17D20, symBinAddr: 0x104860, symSize: 0x9A0 }
  - { offset: 0x377E25, size: 0x8, addend: 0x0, symName: _ggml_compute_forward_norm, symObjAddr: 0x186C0, symBinAddr: 0x105200, symSize: 0x930 }
  - { offset: 0x37847D, size: 0x8, addend: 0x0, symName: _ggml_compute_forward_rms_norm, symObjAddr: 0x18FF0, symBinAddr: 0x105B30, symSize: 0x5C0 }
  - { offset: 0x3789A8, size: 0x8, addend: 0x0, symName: _ggml_compute_forward_rms_norm_mul_fused, symObjAddr: 0x195B0, symBinAddr: 0x1060F0, symSize: 0xC40 }
  - { offset: 0x378F09, size: 0x8, addend: 0x0, symName: _ggml_compute_forward_rms_norm_back, symObjAddr: 0x1A1F0, symBinAddr: 0x106D30, symSize: 0x8A0 }
  - { offset: 0x379469, size: 0x8, addend: 0x0, symName: _ggml_compute_forward_group_norm, symObjAddr: 0x1AA90, symBinAddr: 0x1075D0, symSize: 0x6C0 }
  - { offset: 0x3799CC, size: 0x8, addend: 0x0, symName: _ggml_compute_forward_l2_norm, symObjAddr: 0x1B150, symBinAddr: 0x107C90, symSize: 0xA00 }
  - { offset: 0x37A452, size: 0x8, addend: 0x0, symName: _ggml_compute_forward_out_prod, symObjAddr: 0x1BB50, symBinAddr: 0x108690, symSize: 0x2BD0 }
  - { offset: 0x37AF6C, size: 0x8, addend: 0x0, symName: _ggml_compute_forward_scale, symObjAddr: 0x1E720, symBinAddr: 0x10B260, symSize: 0x260 }
  - { offset: 0x37B5D2, size: 0x8, addend: 0x0, symName: _ggml_compute_forward_set, symObjAddr: 0x1E980, symBinAddr: 0x10B4C0, symSize: 0xD10 }
  - { offset: 0x37BB68, size: 0x8, addend: 0x0, symName: _ggml_compute_forward_cpy, symObjAddr: 0x1F690, symBinAddr: 0x10C1D0, symSize: 0x10 }
  - { offset: 0x37BBBD, size: 0x8, addend: 0x0, symName: _ggml_compute_forward_cont, symObjAddr: 0x1F6A0, symBinAddr: 0x10C1E0, symSize: 0x10 }
  - { offset: 0x37C498, size: 0x8, addend: 0x0, symName: _ggml_compute_forward_get_rows, symObjAddr: 0x1F6B0, symBinAddr: 0x10C1F0, symSize: 0xBA0 }
  - { offset: 0x37CFF3, size: 0x8, addend: 0x0, symName: _ggml_compute_forward_set_rows, symObjAddr: 0x20250, symBinAddr: 0x10CD90, symSize: 0x630 }
  - { offset: 0x37D570, size: 0x8, addend: 0x0, symName: _ggml_compute_forward_get_rows_back, symObjAddr: 0x20880, symBinAddr: 0x10D3C0, symSize: 0x6D0 }
  - { offset: 0x37D979, size: 0x8, addend: 0x0, symName: _ggml_compute_forward_diag, symObjAddr: 0x20F50, symBinAddr: 0x10DA90, symSize: 0x690 }
  - { offset: 0x37DB7F, size: 0x8, addend: 0x0, symName: _ggml_compute_forward_diag_mask_inf, symObjAddr: 0x215E0, symBinAddr: 0x10E120, symSize: 0x40 }
  - { offset: 0x37DBEF, size: 0x8, addend: 0x0, symName: __ZL34ggml_compute_forward_diag_mask_f32PK19ggml_compute_paramsP11ggml_tensorf, symObjAddr: 0x21620, symBinAddr: 0x10E160, symSize: 0x240 }
  - { offset: 0x37DE28, size: 0x8, addend: 0x0, symName: _ggml_compute_forward_diag_mask_zero, symObjAddr: 0x21860, symBinAddr: 0x10E3A0, symSize: 0x40 }
  - { offset: 0x37E19B, size: 0x8, addend: 0x0, symName: _ggml_compute_forward_soft_max, symObjAddr: 0x218A0, symBinAddr: 0x10E3E0, symSize: 0xA40 }
  - { offset: 0x37E767, size: 0x8, addend: 0x0, symName: _ggml_compute_forward_soft_max_ext_back, symObjAddr: 0x222E0, symBinAddr: 0x10EE20, symSize: 0x680 }
  - { offset: 0x37ED98, size: 0x8, addend: 0x0, symName: _ggml_compute_forward_clamp, symObjAddr: 0x22960, symBinAddr: 0x10F4A0, symSize: 0x810 }
  - { offset: 0x37F0E2, size: 0x8, addend: 0x0, symName: _ggml_compute_forward_rope, symObjAddr: 0x23170, symBinAddr: 0x10FCB0, symSize: 0x50 }
  - { offset: 0x37F16E, size: 0x8, addend: 0x0, symName: __ZL29ggml_compute_forward_rope_fltItEvPK19ggml_compute_paramsP11ggml_tensorb, symObjAddr: 0x231C0, symBinAddr: 0x10FD00, symSize: 0x22A0 }
  - { offset: 0x380114, size: 0x8, addend: 0x0, symName: __ZL29ggml_compute_forward_rope_fltIfEvPK19ggml_compute_paramsP11ggml_tensorb, symObjAddr: 0x25460, symBinAddr: 0x111FA0, symSize: 0x1A00 }
  - { offset: 0x38108D, size: 0x8, addend: 0x0, symName: _ggml_compute_forward_rope_back, symObjAddr: 0x26E60, symBinAddr: 0x1139A0, symSize: 0x40 }
  - { offset: 0x38174C, size: 0x8, addend: 0x0, symName: _ggml_compute_forward_conv_transpose_1d, symObjAddr: 0x26EA0, symBinAddr: 0x1139E0, symSize: 0x17A0 }
  - { offset: 0x3824E6, size: 0x8, addend: 0x0, symName: _ggml_compute_forward_im2col, symObjAddr: 0x28640, symBinAddr: 0x115180, symSize: 0x1260 }
  - { offset: 0x382A8F, size: 0x8, addend: 0x0, symName: _ggml_compute_forward_im2col_back_f32, symObjAddr: 0x298A0, symBinAddr: 0x1163E0, symSize: 0xA60 }
  - { offset: 0x383666, size: 0x8, addend: 0x0, symName: _ggml_compute_forward_im2col_3d, symObjAddr: 0x2A300, symBinAddr: 0x116E40, symSize: 0x1320 }
  - { offset: 0x384139, size: 0x8, addend: 0x0, symName: _ggml_compute_forward_col2im_1d, symObjAddr: 0x2B620, symBinAddr: 0x118160, symSize: 0xA60 }
  - { offset: 0x384B3F, size: 0x8, addend: 0x0, symName: _ggml_compute_forward_conv_2d, symObjAddr: 0x2C080, symBinAddr: 0x118BC0, symSize: 0x10B0 }
  - { offset: 0x385598, size: 0x8, addend: 0x0, symName: _ggml_compute_forward_conv_3d, symObjAddr: 0x2D130, symBinAddr: 0x119C70, symSize: 0x1690 }
  - { offset: 0x386274, size: 0x8, addend: 0x0, symName: _ggml_compute_forward_conv_transpose_2d, symObjAddr: 0x2E7C0, symBinAddr: 0x11B300, symSize: 0x27E0 }
  - { offset: 0x386E58, size: 0x8, addend: 0x0, symName: _ggml_compute_forward_conv_2d_dw, symObjAddr: 0x30FA0, symBinAddr: 0x11DAE0, symSize: 0xD00 }
  - { offset: 0x3873C0, size: 0x8, addend: 0x0, symName: _ggml_compute_forward_pool_1d, symObjAddr: 0x31CA0, symBinAddr: 0x11E7E0, symSize: 0x610 }
  - { offset: 0x3875A2, size: 0x8, addend: 0x0, symName: _ggml_compute_forward_pool_2d, symObjAddr: 0x322B0, symBinAddr: 0x11EDF0, symSize: 0xA40 }
  - { offset: 0x387873, size: 0x8, addend: 0x0, symName: _ggml_compute_forward_pool_2d_back, symObjAddr: 0x32CF0, symBinAddr: 0x11F830, symSize: 0x5C0 }
  - { offset: 0x3886B5, size: 0x8, addend: 0x0, symName: _ggml_compute_forward_upscale, symObjAddr: 0x332B0, symBinAddr: 0x11FDF0, symSize: 0x1370 }
  - { offset: 0x38980B, size: 0x8, addend: 0x0, symName: _ggml_compute_forward_pad, symObjAddr: 0x34620, symBinAddr: 0x121160, symSize: 0x950 }
  - { offset: 0x389ACD, size: 0x8, addend: 0x0, symName: _ggml_compute_forward_pad_reflect_1d, symObjAddr: 0x34F70, symBinAddr: 0x121AB0, symSize: 0x20C0 }
  - { offset: 0x389D5E, size: 0x8, addend: 0x0, symName: _ggml_compute_forward_roll, symObjAddr: 0x37030, symBinAddr: 0x123B70, symSize: 0x670 }
  - { offset: 0x389FB8, size: 0x8, addend: 0x0, symName: _ggml_compute_forward_roll, symObjAddr: 0x37030, symBinAddr: 0x123B70, symSize: 0x670 }
  - { offset: 0x38A34B, size: 0x8, addend: 0x0, symName: _ggml_compute_forward_arange, symObjAddr: 0x376A0, symBinAddr: 0x1241E0, symSize: 0x260 }
  - { offset: 0x38A634, size: 0x8, addend: 0x0, symName: _ggml_compute_forward_timestep_embedding, symObjAddr: 0x37900, symBinAddr: 0x124440, symSize: 0xAA0 }
  - { offset: 0x38A911, size: 0x8, addend: 0x0, symName: _ggml_compute_forward_argsort, symObjAddr: 0x383A0, symBinAddr: 0x124EE0, symSize: 0x4E0 }
  - { offset: 0x38AE4D, size: 0x8, addend: 0x0, symName: _ggml_compute_forward_top_k, symObjAddr: 0x38880, symBinAddr: 0x1253C0, symSize: 0x420 }
  - { offset: 0x38C107, size: 0x8, addend: 0x0, symName: _ggml_compute_forward_flash_attn_ext, symObjAddr: 0x38CA0, symBinAddr: 0x1257E0, symSize: 0x36F0 }
  - { offset: 0x38D5E5, size: 0x8, addend: 0x0, symName: __ZL49ggml_compute_forward_flash_attn_ext_f16_one_chunkPK19ggml_compute_paramsP11ggml_tensoriixxPfx, symObjAddr: 0x4CD30, symBinAddr: 0x139870, symSize: 0x1EF3 }
  - { offset: 0x38EC2D, size: 0x8, addend: 0x0, symName: _ggml_compute_forward_flash_attn_back, symObjAddr: 0x3C390, symBinAddr: 0x128ED0, symSize: 0x19F0 }
  - { offset: 0x38F9CA, size: 0x8, addend: 0x0, symName: _ggml_compute_forward_ssm_conv, symObjAddr: 0x3DD80, symBinAddr: 0x12A8C0, symSize: 0x4F0 }
  - { offset: 0x38FF9C, size: 0x8, addend: 0x0, symName: _ggml_compute_forward_ssm_scan, symObjAddr: 0x3E270, symBinAddr: 0x12ADB0, symSize: 0x1100 }
  - { offset: 0x390620, size: 0x8, addend: 0x0, symName: _ggml_compute_forward_win_part, symObjAddr: 0x3F370, symBinAddr: 0x12BEB0, symSize: 0x9A0 }
  - { offset: 0x3908C5, size: 0x8, addend: 0x0, symName: _ggml_compute_forward_win_unpart, symObjAddr: 0x3FD10, symBinAddr: 0x12C850, symSize: 0x4A0 }
  - { offset: 0x391A38, size: 0x8, addend: 0x0, symName: _ggml_compute_forward_unary, symObjAddr: 0x401B0, symBinAddr: 0x12CCF0, symSize: 0x16F0 }
  - { offset: 0x393E53, size: 0x8, addend: 0x0, symName: _ggml_compute_forward_glu, symObjAddr: 0x418A0, symBinAddr: 0x12E3E0, symSize: 0x2BA0 }
  - { offset: 0x395FAD, size: 0x8, addend: 0x0, symName: _ggml_compute_forward_get_rel_pos, symObjAddr: 0x44440, symBinAddr: 0x130F80, symSize: 0x590 }
  - { offset: 0x396284, size: 0x8, addend: 0x0, symName: _ggml_compute_forward_add_rel_pos, symObjAddr: 0x449D0, symBinAddr: 0x131510, symSize: 0x3F0 }
  - { offset: 0x39648E, size: 0x8, addend: 0x0, symName: _ggml_compute_forward_rwkv_wkv6, symObjAddr: 0x44DC0, symBinAddr: 0x131900, symSize: 0xB40 }
  - { offset: 0x396710, size: 0x8, addend: 0x0, symName: _ggml_compute_forward_rwkv_wkv6, symObjAddr: 0x44DC0, symBinAddr: 0x131900, symSize: 0xB40 }
  - { offset: 0x396BCC, size: 0x8, addend: 0x0, symName: _ggml_compute_forward_gla, symObjAddr: 0x45900, symBinAddr: 0x132440, symSize: 0xAD0 }
  - { offset: 0x39710C, size: 0x8, addend: 0x0, symName: _ggml_compute_forward_solve_tri, symObjAddr: 0x463D0, symBinAddr: 0x132F10, symSize: 0x4E0 }
  - { offset: 0x397959, size: 0x8, addend: 0x0, symName: _ggml_compute_forward_gated_delta_net, symObjAddr: 0x468B0, symBinAddr: 0x1333F0, symSize: 0x1490 }
  - { offset: 0x398568, size: 0x8, addend: 0x0, symName: _ggml_compute_forward_rwkv_wkv7, symObjAddr: 0x47D40, symBinAddr: 0x134880, symSize: 0x780 }
  - { offset: 0x39891E, size: 0x8, addend: 0x0, symName: _ggml_compute_forward_map_custom1, symObjAddr: 0x484C0, symBinAddr: 0x135000, symSize: 0x30 }
  - { offset: 0x39898F, size: 0x8, addend: 0x0, symName: _ggml_compute_forward_map_custom2, symObjAddr: 0x484F0, symBinAddr: 0x135030, symSize: 0x30 }
  - { offset: 0x398A11, size: 0x8, addend: 0x0, symName: _ggml_compute_forward_map_custom3, symObjAddr: 0x48520, symBinAddr: 0x135060, symSize: 0x40 }
  - { offset: 0x398AA4, size: 0x8, addend: 0x0, symName: _ggml_compute_forward_custom, symObjAddr: 0x48560, symBinAddr: 0x1350A0, symSize: 0x20 }
  - { offset: 0x398C79, size: 0x8, addend: 0x0, symName: _ggml_compute_forward_cross_entropy_loss, symObjAddr: 0x48580, symBinAddr: 0x1350C0, symSize: 0x660 }
  - { offset: 0x39927E, size: 0x8, addend: 0x0, symName: _ggml_compute_forward_cross_entropy_loss_back, symObjAddr: 0x48BE0, symBinAddr: 0x135720, symSize: 0x590 }
  - { offset: 0x3999C7, size: 0x8, addend: 0x0, symName: _ggml_compute_forward_opt_step_adamw, symObjAddr: 0x49170, symBinAddr: 0x135CB0, symSize: 0x720 }
  - { offset: 0x399F0F, size: 0x8, addend: 0x0, symName: _ggml_compute_forward_opt_step_sgd, symObjAddr: 0x49890, symBinAddr: 0x1363D0, symSize: 0x590 }
  - { offset: 0x39A460, size: 0x8, addend: 0x0, symName: _ggml_compute_forward_fwht, symObjAddr: 0x49E20, symBinAddr: 0x136960, symSize: 0x930 }
  - { offset: 0x39A735, size: 0x8, addend: 0x0, symName: '__ZZL28ggml_compute_forward_tri_f32PK19ggml_compute_paramsP11ggml_tensorEN3$_08__invokeEii', symObjAddr: 0x4A750, symBinAddr: 0x137290, symSize: 0x10 }
  - { offset: 0x39A7D3, size: 0x8, addend: 0x0, symName: '__ZZL28ggml_compute_forward_tri_f32PK19ggml_compute_paramsP11ggml_tensorEN3$_18__invokeEii', symObjAddr: 0x4A760, symBinAddr: 0x1372A0, symSize: 0x10 }
  - { offset: 0x39A871, size: 0x8, addend: 0x0, symName: '__ZZL28ggml_compute_forward_tri_f32PK19ggml_compute_paramsP11ggml_tensorEN3$_28__invokeEii', symObjAddr: 0x4A770, symBinAddr: 0x1372B0, symSize: 0x10 }
  - { offset: 0x39A90F, size: 0x8, addend: 0x0, symName: '__ZZL28ggml_compute_forward_tri_f32PK19ggml_compute_paramsP11ggml_tensorEN3$_38__invokeEii', symObjAddr: 0x4A780, symBinAddr: 0x1372C0, symSize: 0x10 }
  - { offset: 0x39CC9C, size: 0x8, addend: 0x0, symName: _quantize_row_q1_0, symObjAddr: 0x0, symBinAddr: 0x13B770, symSize: 0x10 }
  - { offset: 0x39CCAA, size: 0x8, addend: 0x0, symName: _ggml_vec_dot_q4_K_q8_K, symObjAddr: 0x48E0, symBinAddr: 0x140050, symSize: 0x660 }
  - { offset: 0x39D0A2, size: 0x8, addend: 0x0, symName: _ggml_vec_dot_q5_K_q8_K, symObjAddr: 0x4F40, symBinAddr: 0x1406B0, symSize: 0x810 }
  - { offset: 0x39D4E0, size: 0x8, addend: 0x0, symName: _kvalues_mxfp4, symObjAddr: 0x99F0, symBinAddr: 0x1D7DD0, symSize: 0x0 }
  - { offset: 0x39D525, size: 0x8, addend: 0x0, symName: _iq2xxs_grid, symObjAddr: 0x9A00, symBinAddr: 0x1D7DE0, symSize: 0x0 }
  - { offset: 0x39D564, size: 0x8, addend: 0x0, symName: _ksigns_iq2xs, symObjAddr: 0xA200, symBinAddr: 0x1D85E0, symSize: 0x0 }
  - { offset: 0x39D5A2, size: 0x8, addend: 0x0, symName: _iq2xs_grid, symObjAddr: 0xA280, symBinAddr: 0x1D8660, symSize: 0x0 }
  - { offset: 0x39D5C8, size: 0x8, addend: 0x0, symName: _iq2s_grid, symObjAddr: 0xB280, symBinAddr: 0x1D9660, symSize: 0x0 }
  - { offset: 0x39D5EE, size: 0x8, addend: 0x0, symName: _iq3xxs_grid, symObjAddr: 0xD280, symBinAddr: 0x1DB660, symSize: 0x0 }
  - { offset: 0x39D614, size: 0x8, addend: 0x0, symName: _iq3s_grid, symObjAddr: 0xD680, symBinAddr: 0x1DBA60, symSize: 0x0 }
  - { offset: 0x39D63A, size: 0x8, addend: 0x0, symName: _iq1s_grid, symObjAddr: 0xDE80, symBinAddr: 0x1DC260, symSize: 0x0 }
  - { offset: 0x39D660, size: 0x8, addend: 0x0, symName: _kvalues_iq4nl, symObjAddr: 0x11E80, symBinAddr: 0x1E0260, symSize: 0x0 }
  - { offset: 0x39D69C, size: 0x8, addend: 0x0, symName: _quantize_row_q1_0, symObjAddr: 0x0, symBinAddr: 0x13B770, symSize: 0x10 }
  - { offset: 0x39D796, size: 0x8, addend: 0x0, symName: _quantize_row_q4_0, symObjAddr: 0x10, symBinAddr: 0x13B780, symSize: 0x10 }
  - { offset: 0x39D851, size: 0x8, addend: 0x0, symName: _quantize_row_q4_1, symObjAddr: 0x20, symBinAddr: 0x13B790, symSize: 0x10 }
  - { offset: 0x39D950, size: 0x8, addend: 0x0, symName: _quantize_row_q5_0, symObjAddr: 0x30, symBinAddr: 0x13B7A0, symSize: 0x10 }
  - { offset: 0x39DA26, size: 0x8, addend: 0x0, symName: _quantize_row_q5_1, symObjAddr: 0x40, symBinAddr: 0x13B7B0, symSize: 0x10 }
  - { offset: 0x39DB26, size: 0x8, addend: 0x0, symName: _quantize_row_q8_0, symObjAddr: 0x50, symBinAddr: 0x13B7C0, symSize: 0x10 }
  - { offset: 0x39DBEF, size: 0x8, addend: 0x0, symName: _quantize_row_q8_1, symObjAddr: 0x60, symBinAddr: 0x13B7D0, symSize: 0x10 }
  - { offset: 0x39DCE4, size: 0x8, addend: 0x0, symName: _quantize_row_mxfp4, symObjAddr: 0x70, symBinAddr: 0x13B7E0, symSize: 0x10 }
  - { offset: 0x39DD9F, size: 0x8, addend: 0x0, symName: _quantize_row_nvfp4, symObjAddr: 0x80, symBinAddr: 0x13B7F0, symSize: 0x10 }
  - { offset: 0x39DE68, size: 0x8, addend: 0x0, symName: _quantize_row_q2_K, symObjAddr: 0x90, symBinAddr: 0x13B800, symSize: 0x10 }
  - { offset: 0x39DF81, size: 0x8, addend: 0x0, symName: _quantize_row_q3_K, symObjAddr: 0xA0, symBinAddr: 0x13B810, symSize: 0x10 }
  - { offset: 0x39E06A, size: 0x8, addend: 0x0, symName: _quantize_row_q4_K, symObjAddr: 0xB0, symBinAddr: 0x13B820, symSize: 0x10 }
  - { offset: 0x39E191, size: 0x8, addend: 0x0, symName: _quantize_row_q5_K, symObjAddr: 0xC0, symBinAddr: 0x13B830, symSize: 0x10 }
  - { offset: 0x39E2B8, size: 0x8, addend: 0x0, symName: _quantize_row_q6_K, symObjAddr: 0xD0, symBinAddr: 0x13B840, symSize: 0x10 }
  - { offset: 0x39E3AF, size: 0x8, addend: 0x0, symName: _quantize_row_tq1_0, symObjAddr: 0xE0, symBinAddr: 0x13B850, symSize: 0x10 }
  - { offset: 0x39E498, size: 0x8, addend: 0x0, symName: _quantize_row_tq2_0, symObjAddr: 0xF0, symBinAddr: 0x13B860, symSize: 0x10 }
  - { offset: 0x39E565, size: 0x8, addend: 0x0, symName: _quantize_row_q8_K, symObjAddr: 0x100, symBinAddr: 0x13B870, symSize: 0x10 }
  - { offset: 0x39E697, size: 0x8, addend: 0x0, symName: _ggml_vec_dot_q1_0_q8_0, symObjAddr: 0x110, symBinAddr: 0x13B880, symSize: 0x400 }
  - { offset: 0x39E87D, size: 0x8, addend: 0x0, symName: _ggml_vec_dot_q4_0_q8_0, symObjAddr: 0x510, symBinAddr: 0x13BC80, symSize: 0x190 }
  - { offset: 0x39E9E4, size: 0x8, addend: 0x0, symName: _ggml_vec_dot_q4_1_q8_1, symObjAddr: 0x6A0, symBinAddr: 0x13BE10, symSize: 0x190 }
  - { offset: 0x39EBAB, size: 0x8, addend: 0x0, symName: _ggml_vec_dot_mxfp4_q8_0, symObjAddr: 0x830, symBinAddr: 0x13BFA0, symSize: 0x3E0 }
  - { offset: 0x39ED56, size: 0x8, addend: 0x0, symName: _ggml_vec_dot_nvfp4_q8_0, symObjAddr: 0xC10, symBinAddr: 0x13C380, symSize: 0x2F0 }
  - { offset: 0x39EF42, size: 0x8, addend: 0x0, symName: _ggml_vec_dot_q5_0_q8_0, symObjAddr: 0xF00, symBinAddr: 0x13C670, symSize: 0x460 }
  - { offset: 0x39F0F2, size: 0x8, addend: 0x0, symName: _ggml_vec_dot_q5_1_q8_1, symObjAddr: 0x1360, symBinAddr: 0x13CAD0, symSize: 0x420 }
  - { offset: 0x39F2C0, size: 0x8, addend: 0x0, symName: _ggml_vec_dot_q8_0_q8_0, symObjAddr: 0x1780, symBinAddr: 0x13CEF0, symSize: 0x100 }
  - { offset: 0x39F40B, size: 0x8, addend: 0x0, symName: _ggml_vec_dot_tq1_0_q8_K, symObjAddr: 0x1880, symBinAddr: 0x13CFF0, symSize: 0x1360 }
  - { offset: 0x39F65D, size: 0x8, addend: 0x0, symName: _ggml_vec_dot_tq2_0_q8_K, symObjAddr: 0x2BE0, symBinAddr: 0x13E350, symSize: 0x11B0 }
  - { offset: 0x39F7E1, size: 0x8, addend: 0x0, symName: _ggml_vec_dot_q2_K_q8_K, symObjAddr: 0x3D90, symBinAddr: 0x13F500, symSize: 0x4B0 }
  - { offset: 0x39FA5F, size: 0x8, addend: 0x0, symName: _ggml_vec_dot_q3_K_q8_K, symObjAddr: 0x4240, symBinAddr: 0x13F9B0, symSize: 0x6A0 }
  - { offset: 0x39FDF9, size: 0x8, addend: 0x0, symName: _ggml_vec_dot_q6_K_q8_K, symObjAddr: 0x5750, symBinAddr: 0x140EC0, symSize: 0x4E0 }
  - { offset: 0x3A00C2, size: 0x8, addend: 0x0, symName: _ggml_vec_dot_iq2_xxs_q8_K, symObjAddr: 0x5C30, symBinAddr: 0x1413A0, symSize: 0x4E0 }
  - { offset: 0x3A02FF, size: 0x8, addend: 0x0, symName: _ggml_vec_dot_iq2_xs_q8_K, symObjAddr: 0x6110, symBinAddr: 0x141880, symSize: 0x4E0 }
  - { offset: 0x3A057B, size: 0x8, addend: 0x0, symName: _ggml_vec_dot_iq2_s_q8_K, symObjAddr: 0x65F0, symBinAddr: 0x141D60, symSize: 0x630 }
  - { offset: 0x3A07FB, size: 0x8, addend: 0x0, symName: _ggml_vec_dot_iq3_xxs_q8_K, symObjAddr: 0x6C20, symBinAddr: 0x142390, symSize: 0x560 }
  - { offset: 0x3A0A45, size: 0x8, addend: 0x0, symName: _ggml_vec_dot_iq3_s_q8_K, symObjAddr: 0x7180, symBinAddr: 0x1428F0, symSize: 0x10D0 }
  - { offset: 0x3A0CCE, size: 0x8, addend: 0x0, symName: _ggml_vec_dot_iq1_s_q8_K, symObjAddr: 0x8250, symBinAddr: 0x1439C0, symSize: 0x220 }
  - { offset: 0x3A0EFC, size: 0x8, addend: 0x0, symName: _ggml_vec_dot_iq1_m_q8_K, symObjAddr: 0x8470, symBinAddr: 0x143BE0, symSize: 0x500 }
