---
triple:          'arm64-apple-darwin'
binary-path:     '/Users/william/Library/Developer/Xcode/DerivedData/LiveTranscriber-hfmfxssyfeuvwueogfhaorpbsagw/llama-pinned/build-ios-device/framework/llama.framework/llama'
relocations:
  - { offset: 0x24550, size: 0x8, addend: 0x0, symName: __ZNSt3__127__tree_balance_after_insertB9nqe220106IPNS_16__tree_node_baseIPvEEEEvT_S5_, symObjAddr: 0x2D7C, symBinAddr: 0x6D7C, symSize: 0x1D4 }
  - { offset: 0x25BB1, size: 0x8, addend: 0x0, symName: __ZNSt3__120__throw_length_errorB9nqe220106EPKc, symObjAddr: 0x3040, symBinAddr: 0x7040, symSize: 0x50 }
  - { offset: 0x2624E, size: 0x8, addend: 0x0, symName: __ZNSt3__120__throw_out_of_rangeB9nqe220106EPKc, symObjAddr: 0x407C, symBinAddr: 0x807C, symSize: 0x50 }
  - { offset: 0x27B0F, size: 0x8, addend: 0x0, symName: __ZSt28__throw_bad_array_new_lengthB9nqe220106v, symObjAddr: 0x2D54, symBinAddr: 0x6D54, symSize: 0x28 }
  - { offset: 0x2F5AB, size: 0x8, addend: 0x0, symName: __ZNK18llama_adapter_cvec10tensor_forEi, symObjAddr: 0x0, symBinAddr: 0x4000, symSize: 0x40 }
  - { offset: 0x2F615, size: 0x8, addend: 0x0, symName: __ZNK18llama_adapter_cvec8apply_toEP12ggml_contextP11ggml_tensori, symObjAddr: 0x40, symBinAddr: 0x4040, symSize: 0x50 }
  - { offset: 0x2F67C, size: 0x8, addend: 0x0, symName: __ZNK18llama_adapter_cvec8apply_toEP12ggml_contextP11ggml_tensori, symObjAddr: 0x40, symBinAddr: 0x4040, symSize: 0x50 }
  - { offset: 0x2FC9F, size: 0x8, addend: 0x0, symName: __ZN18llama_adapter_cvec4initERK11llama_model, symObjAddr: 0x90, symBinAddr: 0x4090, symSize: 0x578 }
  - { offset: 0x31FDC, size: 0x8, addend: 0x0, symName: __ZZNSt3__16vectorIP11ggml_tensorNS_9allocatorIS2_EEE12emplace_backIJRKS2_EEERS2_DpOT_ENKUlvE0_clEv, symObjAddr: 0x5304, symBinAddr: 0x9304, symSize: 0xDC }
  - { offset: 0x322CD, size: 0x8, addend: 0x0, symName: __ZZNSt3__16vectorINS_10unique_ptrI19ggml_backend_buffer27ggml_backend_buffer_deleterEENS_9allocatorIS4_EEE12emplace_backIJRPS2_EEERS4_DpOT_ENKUlvE0_clEv, symObjAddr: 0x53E0, symBinAddr: 0x93E0, symSize: 0xDC }
  - { offset: 0x322E2, size: 0x8, addend: 0x0, symName: __ZZNSt3__16vectorINS_10unique_ptrI12ggml_context20ggml_context_deleterEENS_9allocatorIS4_EEE12emplace_backIJRPS2_EEERS4_DpOT_ENKUlvE0_clEv, symObjAddr: 0x2F50, symBinAddr: 0x6F50, symSize: 0xDC }
  - { offset: 0x32610, size: 0x8, addend: 0x0, symName: __ZNSt3__16vectorINS_10unique_ptrI12ggml_context20ggml_context_deleterEENS_9allocatorIS4_EEE20__throw_length_errorB9nqe220106Ev, symObjAddr: 0x302C, symBinAddr: 0x702C, symSize: 0x14 }
  - { offset: 0x3265A, size: 0x8, addend: 0x0, symName: __ZZNSt3__16vectorINS_10unique_ptrI19ggml_backend_buffer27ggml_backend_buffer_deleterEENS_9allocatorIS4_EEE12emplace_backIJRPS2_EEERS4_DpOT_ENKUlvE0_clEv, symObjAddr: 0x53E0, symBinAddr: 0x93E0, symSize: 0xDC }
  - { offset: 0x32988, size: 0x8, addend: 0x0, symName: __ZNSt3__112__hash_tableINS_17__hash_value_typeINS_12basic_stringIcNS_11char_traitsIcEENS_9allocatorIcEEEE25llama_adapter_lora_weightEENS_22__unordered_map_hasherIS7_NS_4pairIKS7_S8_EENS_4hashIS7_EENS_8equal_toIS7_EEEENS_21__unordered_map_equalIS7_SD_SH_SF_EENS5_ISD_EEE4findIS7_EENS_15__hash_iteratorIPNS_11__hash_nodeIS9_PvEEEERKT_, symObjAddr: 0x54BC, symBinAddr: 0x94BC, symSize: 0x1BC }
  - { offset: 0x329AA, size: 0x8, addend: 0x0, symName: __ZNSt3__16__treeINS_12__value_typeIP24ggml_backend_buffer_typeP12ggml_contextEENS_19__map_value_compareIS3_NS_4pairIKS3_S5_EENS_4lessIS3_EEEENS_9allocatorISA_EEE14__tree_deleterclB9nqe220106EPNS_11__tree_nodeIS6_PvEE, symObjAddr: 0x51C8, symBinAddr: 0x91C8, symSize: 0x4C }
  - { offset: 0x32A8D, size: 0x8, addend: 0x0, symName: __ZZNSt3__16vectorIP11ggml_tensorNS_9allocatorIS2_EEE12emplace_backIJS2_EEERS2_DpOT_ENKUlvE0_clEv, symObjAddr: 0x5228, symBinAddr: 0x9228, symSize: 0xDC }
  - { offset: 0x32D7E, size: 0x8, addend: 0x0, symName: __ZZNSt3__16vectorIP11ggml_tensorNS_9allocatorIS2_EEE12emplace_backIJRKS2_EEERS2_DpOT_ENKUlvE0_clEv, symObjAddr: 0x5304, symBinAddr: 0x9304, symSize: 0xDC }
  - { offset: 0x32DA3, size: 0x8, addend: 0x0, symName: __ZNSt3__16vectorINS_10unique_ptrI19ggml_backend_buffer27ggml_backend_buffer_deleterEENS_9allocatorIS4_EEE20__throw_length_errorB9nqe220106Ev, symObjAddr: 0x4B20, symBinAddr: 0x8B20, symSize: 0x14 }
  - { offset: 0x32DBB, size: 0x8, addend: 0x0, symName: __ZNSt3__16vectorIhNS_9allocatorIhEEE20__throw_length_errorB9nqe220106Ev, symObjAddr: 0x4B34, symBinAddr: 0x8B34, symSize: 0x14 }
  - { offset: 0x32DC6, size: 0x8, addend: 0x0, symName: __ZNSt3__13mapIP24ggml_backend_buffer_typeP12ggml_contextNS_4lessIS2_EENS_9allocatorINS_4pairIKS2_S4_EEEEED1B9nqe220106Ev, symObjAddr: 0x608, symBinAddr: 0x4608, symSize: 0x40 }
  - { offset: 0x32EEC, size: 0x8, addend: 0x0, symName: __ZN18llama_adapter_cvec5applyERK11llama_modelPKfmiii, symObjAddr: 0x648, symBinAddr: 0x4648, symSize: 0x134 }
  - { offset: 0x333C2, size: 0x8, addend: 0x0, symName: __ZN18llama_adapter_lora10get_weightEP11ggml_tensor, symObjAddr: 0x77C, symBinAddr: 0x477C, symSize: 0xD8 }
  - { offset: 0x337CF, size: 0x8, addend: 0x0, symName: __ZNSt3__112basic_stringIcNS_11char_traitsIcEENS_9allocatorIcEEEC1B9nqe220106ILi0EEEPKc, symObjAddr: 0x854, symBinAddr: 0x4854, symSize: 0xA8 }
  - { offset: 0x337EC, size: 0x8, addend: 0x0, symName: __ZNSt3__112__hash_tableINS_17__hash_value_typeINS_12basic_stringIcNS_11char_traitsIcEENS_9allocatorIcEEEE25llama_adapter_lora_weightEENS_22__unordered_map_hasherIS7_NS_4pairIKS7_S8_EENS_4hashIS7_EENS_8equal_toIS7_EEEENS_21__unordered_map_equalIS7_SD_SH_SF_EENS5_ISD_EEE4findIS7_EENS_15__hash_iteratorIPNS_11__hash_nodeIS9_PvEEEERKT_, symObjAddr: 0x54BC, symBinAddr: 0x94BC, symSize: 0x1BC }
  - { offset: 0x33B16, size: 0x8, addend: 0x0, symName: __ZNSt3__112basic_stringIcNS_11char_traitsIcEENS_9allocatorIcEEE20__throw_length_errorB9nqe220106Ev, symObjAddr: 0x40F0, symBinAddr: 0x80F0, symSize: 0x14 }
  - { offset: 0x33B2E, size: 0x8, addend: 0x0, symName: __ZNSt3__112basic_stringIcNS_11char_traitsIcEENS_9allocatorIcEEE25__init_copy_ctor_externalEPKcm, symObjAddr: 0x4104, symBinAddr: 0x8104, symSize: 0x90 }
  - { offset: 0x33B39, size: 0x8, addend: 0x0, symName: __ZNSt3__112basic_stringIcNS_11char_traitsIcEENS_9allocatorIcEEEC1B9nqe220106ILi0EEEPKc, symObjAddr: 0x854, symBinAddr: 0x4854, symSize: 0xA8 }
  - { offset: 0x33DDD, size: 0x8, addend: 0x0, symName: _llama_adapter_lora_init, symObjAddr: 0x8FC, symBinAddr: 0x48FC, symSize: 0x100 }
  - { offset: 0x3400C, size: 0x8, addend: 0x0, symName: _llama_adapter_lora_init, symObjAddr: 0x8FC, symBinAddr: 0x48FC, symSize: 0x100 }
  - { offset: 0x342FA, size: 0x8, addend: 0x0, symName: __ZL28llama_adapter_lora_init_implR11llama_modelPKcR18llama_adapter_lora, symObjAddr: 0x9FC, symBinAddr: 0x49FC, symSize: 0x2034 }
  - { offset: 0x3C88C, size: 0x8, addend: 0x0, symName: __ZN18llama_adapter_loraD2Ev, symObjAddr: 0x505C, symBinAddr: 0x905C, symSize: 0x16C }
  - { offset: 0x3EE61, size: 0x8, addend: 0x0, symName: __ZZNSt3__112__hash_tableINS_17__hash_value_typeINS_12basic_stringIcNS_11char_traitsIcEENS_9allocatorIcEEEES7_EENS_22__unordered_map_hasherIS7_NS_4pairIKS7_S7_EENS_4hashIS7_EENS_8equal_toIS7_EEEENS_21__unordered_map_equalIS7_SC_SG_SE_EENS5_ISC_EEE16__emplace_uniqueB9nqe220106IJRPKcRSB_EEENSA_INS_15__hash_iteratorIPNS_11__hash_nodeIS8_PvEEEEbEEDpOT_ENKUlSP_SQ_E_clESP_SQ_, symObjAddr: 0x3430, symBinAddr: 0x7430, symSize: 0x140 }
  - { offset: 0x3F667, size: 0x8, addend: 0x0, symName: __ZNSt3__112basic_stringIcNS_11char_traitsIcEENS_9allocatorIcEEE25__init_copy_ctor_externalEPKcm, symObjAddr: 0x4104, symBinAddr: 0x8104, symSize: 0x90 }
  - { offset: 0x3F86E, size: 0x8, addend: 0x0, symName: __ZNSt3__16vectorIiNS_9allocatorIiEEE20__throw_length_errorB9nqe220106Ev, symObjAddr: 0x4194, symBinAddr: 0x8194, symSize: 0x14 }
  - { offset: 0x3F90C, size: 0x8, addend: 0x0, symName: __ZNSt3__16vectorIiNS_9allocatorIiEEE6resizeEm, symObjAddr: 0x30E8, symBinAddr: 0x70E8, symSize: 0x124 }
  - { offset: 0x3FD8D, size: 0x8, addend: 0x0, symName: __ZNSt3__110unique_ptrI19ggml_backend_buffer27ggml_backend_buffer_deleterED1B9nqe220106Ev, symObjAddr: 0x320C, symBinAddr: 0x720C, symSize: 0x34 }
  - { offset: 0x3FDDC, size: 0x8, addend: 0x0, symName: __ZZNSt3__16__treeINS_12__value_typeINS_12basic_stringIcNS_11char_traitsIcEENS_9allocatorIcEEEE25llama_adapter_lora_weightEENS_19__map_value_compareIS7_NS_4pairIKS7_S8_EENS_4lessIS7_EEEENS5_ISD_EEE16__emplace_uniqueB9nqe220106IJRKNS_21piecewise_construct_tENS_5tupleIJRSC_EEENSN_IJEEEEEENSB_INS_15__tree_iteratorIS9_PNS_11__tree_nodeIS9_PvEElEEbEEDpOT_ENKUlSO_SM_OSP_OSQ_E_clESO_SM_S11_S12_, symObjAddr: 0x41A8, symBinAddr: 0x81A8, symSize: 0x174 }
  - { offset: 0x40421, size: 0x8, addend: 0x0, symName: __ZZNSt3__16vectorIP24ggml_backend_buffer_typeNS_9allocatorIS2_EEE12emplace_backIJRS2_EEES7_DpOT_ENKUlvE0_clEv, symObjAddr: 0x437C, symBinAddr: 0x837C, symSize: 0xDC }
  - { offset: 0x40712, size: 0x8, addend: 0x0, symName: __ZNSt3__16vectorIP24ggml_backend_buffer_typeNS_9allocatorIS2_EEE20__throw_length_errorB9nqe220106Ev, symObjAddr: 0x4458, symBinAddr: 0x8458, symSize: 0x14 }
  - { offset: 0x40798, size: 0x8, addend: 0x0, symName: __ZZNSt3__112__hash_tableINS_17__hash_value_typeINS_12basic_stringIcNS_11char_traitsIcEENS_9allocatorIcEEEE25llama_adapter_lora_weightEENS_22__unordered_map_hasherIS7_NS_4pairIKS7_S8_EENS_4hashIS7_EENS_8equal_toIS7_EEEENS_21__unordered_map_equalIS7_SD_SH_SF_EENS5_ISD_EEE16__emplace_uniqueB9nqe220106IJRKNS_21piecewise_construct_tENS_5tupleIJRSC_EEENSR_IJEEEEEENSB_INS_15__hash_iteratorIPNS_11__hash_nodeIS9_PvEEEEbEEDpOT_ENKUlSS_SQ_OST_OSU_E_clESS_SQ_S15_S16_, symObjAddr: 0x446C, symBinAddr: 0x846C, symSize: 0x3F4 }
  - { offset: 0x410C3, size: 0x8, addend: 0x0, symName: __ZZNSt3__16vectorINS_10unique_ptrI19ggml_backend_buffer27ggml_backend_buffer_deleterEENS_9allocatorIS4_EEE12emplace_backIJS4_EEERS4_DpOT_ENKUlvE0_clEv, symObjAddr: 0x4A40, symBinAddr: 0x8A40, symSize: 0xE0 }
  - { offset: 0x41408, size: 0x8, addend: 0x0, symName: __ZNSt3__16vectorINS_10unique_ptrI19ggml_backend_buffer27ggml_backend_buffer_deleterEENS_9allocatorIS4_EEE20__throw_length_errorB9nqe220106Ev, symObjAddr: 0x4B20, symBinAddr: 0x8B20, symSize: 0x14 }
  - { offset: 0x417E3, size: 0x8, addend: 0x0, symName: '__ZZL28llama_adapter_lora_init_implR11llama_modelPKcR18llama_adapter_loraENK3$_4clEP11ggml_tensorS7_', symObjAddr: 0x3240, symBinAddr: 0x7240, symSize: 0x17C }
  - { offset: 0x41D8C, size: 0x8, addend: 0x0, symName: __ZNSt3__13mapINS_12basic_stringIcNS_11char_traitsIcEENS_9allocatorIcEEEE25llama_adapter_lora_weightNS_4lessIS6_EENS4_INS_4pairIKS6_S7_EEEEED1B9nqe220106Ev, symObjAddr: 0x33BC, symBinAddr: 0x73BC, symSize: 0x40 }
  - { offset: 0x41DAC, size: 0x8, addend: 0x0, symName: __ZZNSt3__112__hash_tableIP18llama_adapter_loraNS_4hashIS2_EENS_8equal_toIS2_EENS_9allocatorIS2_EEE16__emplace_uniqueB9nqe220106IJS2_EEENS_4pairINS_15__hash_iteratorIPNS_11__hash_nodeIS2_PvEEEEbEEDpOT_ENKUlRKS2_OS2_E_clESN_SO_, symObjAddr: 0x4B48, symBinAddr: 0x8B48, symSize: 0x330 }
  - { offset: 0x424A7, size: 0x8, addend: 0x0, symName: __ZNSt3__16__treeINS_12__value_typeINS_12basic_stringIcNS_11char_traitsIcEENS_9allocatorIcEEEE25llama_adapter_lora_weightEENS_19__map_value_compareIS7_NS_4pairIKS7_S8_EENS_4lessIS7_EEEENS5_ISD_EEE14__tree_deleterclB9nqe220106EPNS_11__tree_nodeIS9_PvEE, symObjAddr: 0x4FF8, symBinAddr: 0x8FF8, symSize: 0x64 }
  - { offset: 0x42726, size: 0x8, addend: 0x0, symName: __ZNSt3__112basic_stringIcNS_11char_traitsIcEENS_9allocatorIcEEE20__throw_out_of_rangeB9nqe220106Ev, symObjAddr: 0x4068, symBinAddr: 0x8068, symSize: 0x14 }
  - { offset: 0x4273E, size: 0x8, addend: 0x0, symName: __ZNSt3__120__throw_out_of_rangeB9nqe220106EPKc, symObjAddr: 0x407C, symBinAddr: 0x807C, symSize: 0x50 }
  - { offset: 0x42749, size: 0x8, addend: 0x0, symName: __ZNSt3__16vectorINS_10unique_ptrI12ggml_context20ggml_context_deleterEENS_9allocatorIS4_EEE20__throw_length_errorB9nqe220106Ev, symObjAddr: 0x302C, symBinAddr: 0x702C, symSize: 0x14 }
  - { offset: 0x42761, size: 0x8, addend: 0x0, symName: __ZNSt3__120__throw_length_errorB9nqe220106EPKc, symObjAddr: 0x3040, symBinAddr: 0x7040, symSize: 0x50 }
  - { offset: 0x4276C, size: 0x8, addend: 0x0, symName: __ZNSt3__110unique_ptrI12gguf_context20gguf_context_deleterED1B9nqe220106Ev, symObjAddr: 0x33FC, symBinAddr: 0x73FC, symSize: 0x34 }
  - { offset: 0x42800, size: 0x8, addend: 0x0, symName: __ZNSt3__110unique_ptrI12ggml_context20ggml_context_deleterED1B9nqe220106Ev, symObjAddr: 0x30B4, symBinAddr: 0x70B4, symSize: 0x34 }
  - { offset: 0x42894, size: 0x8, addend: 0x0, symName: __ZNSt3__110unique_ptrI19ggml_backend_buffer27ggml_backend_buffer_deleterED1B9nqe220106Ev, symObjAddr: 0x320C, symBinAddr: 0x720C, symSize: 0x34 }
  - { offset: 0x42928, size: 0x8, addend: 0x0, symName: __ZNSt3__13mapINS_12basic_stringIcNS_11char_traitsIcEENS_9allocatorIcEEEE25llama_adapter_lora_weightNS_4lessIS6_EENS4_INS_4pairIKS6_S7_EEEEED1B9nqe220106Ev, symObjAddr: 0x33BC, symBinAddr: 0x73BC, symSize: 0x40 }
  - { offset: 0x42A53, size: 0x8, addend: 0x0, symName: _llama_adapter_meta_val_str, symObjAddr: 0x2A40, symBinAddr: 0x6A40, symSize: 0x140 }
  - { offset: 0x43060, size: 0x8, addend: 0x0, symName: __ZNKSt3__112__hash_tableINS_17__hash_value_typeINS_12basic_stringIcNS_11char_traitsIcEENS_9allocatorIcEEEES7_EENS_22__unordered_map_hasherIS7_NS_4pairIKS7_S7_EENS_4hashIS7_EENS_8equal_toIS7_EEEENS_21__unordered_map_equalIS7_SC_SG_SE_EENS5_ISC_EEE4findIS7_EENS_21__hash_const_iteratorIPNS_11__hash_nodeIS8_PvEEEERKT_, symObjAddr: 0x5678, symBinAddr: 0x9678, symSize: 0x1BC }
  - { offset: 0x433F6, size: 0x8, addend: 0x0, symName: _llama_adapter_meta_count, symObjAddr: 0x2B80, symBinAddr: 0x6B80, symSize: 0x8 }
  - { offset: 0x43424, size: 0x8, addend: 0x0, symName: _llama_adapter_meta_count, symObjAddr: 0x2B80, symBinAddr: 0x6B80, symSize: 0x8 }
  - { offset: 0x43443, size: 0x8, addend: 0x0, symName: _llama_adapter_meta_count, symObjAddr: 0x2B80, symBinAddr: 0x6B80, symSize: 0x8 }
  - { offset: 0x43512, size: 0x8, addend: 0x0, symName: _llama_adapter_meta_key_by_index, symObjAddr: 0x2B88, symBinAddr: 0x6B88, symSize: 0x84 }
  - { offset: 0x4374D, size: 0x8, addend: 0x0, symName: _llama_adapter_meta_val_str_by_index, symObjAddr: 0x2C0C, symBinAddr: 0x6C0C, symSize: 0x84 }
  - { offset: 0x43ACC, size: 0x8, addend: 0x0, symName: _llama_adapter_lora_free, symObjAddr: 0x2C90, symBinAddr: 0x6C90, symSize: 0x74 }
  - { offset: 0x43CAC, size: 0x8, addend: 0x0, symName: __ZNSt3__112__hash_tableIP18llama_adapter_loraNS_4hashIS2_EENS_8equal_toIS2_EENS_9allocatorIS2_EEE4findIS2_EENS_15__hash_iteratorIPNS_11__hash_nodeIS2_PvEEEERKT_, symObjAddr: 0x5834, symBinAddr: 0x9834, symSize: 0x120 }
  - { offset: 0x43CF3, size: 0x8, addend: 0x0, symName: __ZNSt3__112__hash_tableIP18llama_adapter_loraNS_4hashIS2_EENS_8equal_toIS2_EENS_9allocatorIS2_EEE4findIS2_EENS_15__hash_iteratorIPNS_11__hash_nodeIS2_PvEEEERKT_, symObjAddr: 0x5834, symBinAddr: 0x9834, symSize: 0x120 }
  - { offset: 0x43D0F, size: 0x8, addend: 0x0, symName: __ZNSt3__112__hash_tableIP18llama_adapter_loraNS_4hashIS2_EENS_8equal_toIS2_EENS_9allocatorIS2_EEE4findIS2_EENS_15__hash_iteratorIPNS_11__hash_nodeIS2_PvEEEERKT_, symObjAddr: 0x5834, symBinAddr: 0x9834, symSize: 0x120 }
  - { offset: 0x43F09, size: 0x8, addend: 0x0, symName: __ZNSt3__112__hash_tableIP18llama_adapter_loraNS_4hashIS2_EENS_8equal_toIS2_EENS_9allocatorIS2_EEE6removeENS_21__hash_const_iteratorIPNS_11__hash_nodeIS2_PvEEEE, symObjAddr: 0x5954, symBinAddr: 0x9954, symSize: 0x134 }
  - { offset: 0x43F7F, size: 0x8, addend: 0x0, symName: __ZNSt3__112__hash_tableIP18llama_adapter_loraNS_4hashIS2_EENS_8equal_toIS2_EENS_9allocatorIS2_EEE6removeENS_21__hash_const_iteratorIPNS_11__hash_nodeIS2_PvEEEE, symObjAddr: 0x5954, symBinAddr: 0x9954, symSize: 0x134 }
  - { offset: 0x43F9B, size: 0x8, addend: 0x0, symName: __ZNSt3__112__hash_tableIP18llama_adapter_loraNS_4hashIS2_EENS_8equal_toIS2_EENS_9allocatorIS2_EEE6removeENS_21__hash_const_iteratorIPNS_11__hash_nodeIS2_PvEEEE, symObjAddr: 0x5954, symBinAddr: 0x9954, symSize: 0x134 }
  - { offset: 0x4416D, size: 0x8, addend: 0x0, symName: _llama_adapter_get_alora_n_invocation_tokens, symObjAddr: 0x2D04, symBinAddr: 0x6D04, symSize: 0x14 }
  - { offset: 0x441CF, size: 0x8, addend: 0x0, symName: _llama_adapter_get_alora_invocation_tokens, symObjAddr: 0x2D18, symBinAddr: 0x6D18, symSize: 0x3C }
  - { offset: 0x4421D, size: 0x8, addend: 0x0, symName: __ZSt28__throw_bad_array_new_lengthB9nqe220106v, symObjAddr: 0x2D54, symBinAddr: 0x6D54, symSize: 0x28 }
  - { offset: 0x442E7, size: 0x8, addend: 0x0, symName: __ZNSt12length_errorC1B9nqe220106EPKc, symObjAddr: 0x3090, symBinAddr: 0x7090, symSize: 0x24 }
  - { offset: 0x447B6, size: 0x8, addend: 0x0, symName: __ZNSt3__16vectorIiNS_9allocatorIiEEE20__throw_length_errorB9nqe220106Ev, symObjAddr: 0x4194, symBinAddr: 0x8194, symSize: 0x14 }
  - { offset: 0x447CE, size: 0x8, addend: 0x0, symName: __ZZNSt3__16__treeINS_12__value_typeINS_12basic_stringIcNS_11char_traitsIcEENS_9allocatorIcEEEE25llama_adapter_lora_weightEENS_19__map_value_compareIS7_NS_4pairIKS7_S8_EENS_4lessIS7_EEEENS5_ISD_EEE16__emplace_uniqueB9nqe220106IJRKNS_21piecewise_construct_tENS_5tupleIJRSC_EEENSN_IJEEEEEENSB_INS_15__tree_iteratorIS9_PNS_11__tree_nodeIS9_PvEElEEbEEDpOT_ENKUlSO_SM_OSP_OSQ_E_clESO_SM_S11_S12_, symObjAddr: 0x41A8, symBinAddr: 0x81A8, symSize: 0x174 }
  - { offset: 0x44C5A, size: 0x8, addend: 0x0, symName: __ZNSt3__16vectorIhNS_9allocatorIhEEE20__throw_length_errorB9nqe220106Ev, symObjAddr: 0x4B34, symBinAddr: 0x8B34, symSize: 0x14 }
  - { offset: 0x44C72, size: 0x8, addend: 0x0, symName: __ZZNSt3__112__hash_tableIP18llama_adapter_loraNS_4hashIS2_EENS_8equal_toIS2_EENS_9allocatorIS2_EEE16__emplace_uniqueB9nqe220106IJS2_EEENS_4pairINS_15__hash_iteratorIPNS_11__hash_nodeIS2_PvEEEEbEEDpOT_ENKUlRKS2_OS2_E_clESN_SO_, symObjAddr: 0x4B48, symBinAddr: 0x8B48, symSize: 0x330 }
  - { offset: 0x45168, size: 0x8, addend: 0x0, symName: __ZNSt3__14pairIKNS_12basic_stringIcNS_11char_traitsIcEENS_9allocatorIcEEEES6_EC2B9nqe220106IRPKcRS7_Li0EEEOT_OT0_, symObjAddr: 0x3714, symBinAddr: 0x7714, symSize: 0x104 }
  - { offset: 0x455C3, size: 0x8, addend: 0x0, symName: __ZNKSt3__121__murmur2_or_cityhashImLm64EEclB9nqe220106EPKvm, symObjAddr: 0x3818, symBinAddr: 0x7818, symSize: 0x44C }
  - { offset: 0x45F98, size: 0x8, addend: 0x0, symName: __ZNSt3__112__hash_tableINS_17__hash_value_typeINS_12basic_stringIcNS_11char_traitsIcEENS_9allocatorIcEEEES7_EENS_22__unordered_map_hasherIS7_NS_4pairIKS7_S7_EENS_4hashIS7_EENS_8equal_toIS7_EEEENS_21__unordered_map_equalIS7_SC_SG_SE_EENS5_ISC_EEE20__node_insert_uniqueEPNS_11__hash_nodeIS8_PvEE, symObjAddr: 0x3570, symBinAddr: 0x7570, symSize: 0x138 }
  - { offset: 0x461F1, size: 0x8, addend: 0x0, symName: __ZNSt3__110unique_ptrINS_11__hash_nodeINS_17__hash_value_typeINS_12basic_stringIcNS_11char_traitsIcEENS_9allocatorIcEEEES8_EEPvEENS_22__hash_node_destructorINS6_ISB_EEEEED1B9nqe220106Ev, symObjAddr: 0x36A8, symBinAddr: 0x76A8, symSize: 0x6C }
  - { offset: 0x465EA, size: 0x8, addend: 0x0, symName: __ZNSt3__112__hash_tableINS_17__hash_value_typeINS_12basic_stringIcNS_11char_traitsIcEENS_9allocatorIcEEEES7_EENS_22__unordered_map_hasherIS7_NS_4pairIKS7_S7_EENS_4hashIS7_EENS_8equal_toIS7_EEEENS_21__unordered_map_equalIS7_SC_SG_SE_EENS5_ISC_EEE28__node_insert_unique_prepareB9nqe220106EmRSC_, symObjAddr: 0x3C64, symBinAddr: 0x7C64, symSize: 0x284 }
  - { offset: 0x46C6F, size: 0x8, addend: 0x0, symName: __ZNSt3__112__hash_tableINS_17__hash_value_typeINS_12basic_stringIcNS_11char_traitsIcEENS_9allocatorIcEEEES7_EENS_22__unordered_map_hasherIS7_NS_4pairIKS7_S7_EENS_4hashIS7_EENS_8equal_toIS7_EEEENS_21__unordered_map_equalIS7_SC_SG_SE_EENS5_ISC_EEE11__do_rehashILb1EEEvm, symObjAddr: 0x3EE8, symBinAddr: 0x7EE8, symSize: 0x180 }
  - { offset: 0x46ECB, size: 0x8, addend: 0x0, symName: __ZNSt3__112basic_stringIcNS_11char_traitsIcEENS_9allocatorIcEEE20__throw_out_of_rangeB9nqe220106Ev, symObjAddr: 0x4068, symBinAddr: 0x8068, symSize: 0x14 }
  - { offset: 0x46FEC, size: 0x8, addend: 0x0, symName: __ZNSt12out_of_rangeC1B9nqe220106EPKc, symObjAddr: 0x40CC, symBinAddr: 0x80CC, symSize: 0x24 }
  - { offset: 0x4754A, size: 0x8, addend: 0x0, symName: __ZNSt3__110unique_ptrINS_11__tree_nodeINS_12__value_typeINS_12basic_stringIcNS_11char_traitsIcEENS_9allocatorIcEEEE25llama_adapter_lora_weightEEPvEENS_22__tree_node_destructorINS6_ISC_EEEEED1B9nqe220106Ev, symObjAddr: 0x431C, symBinAddr: 0x831C, symSize: 0x60 }
  - { offset: 0x47B01, size: 0x8, addend: 0x0, symName: __ZNSt3__16vectorIP24ggml_backend_buffer_typeNS_9allocatorIS2_EEE20__throw_length_errorB9nqe220106Ev, symObjAddr: 0x4458, symBinAddr: 0x8458, symSize: 0x14 }
  - { offset: 0x47B19, size: 0x8, addend: 0x0, symName: __ZZNSt3__112__hash_tableINS_17__hash_value_typeINS_12basic_stringIcNS_11char_traitsIcEENS_9allocatorIcEEEE25llama_adapter_lora_weightEENS_22__unordered_map_hasherIS7_NS_4pairIKS7_S8_EENS_4hashIS7_EENS_8equal_toIS7_EEEENS_21__unordered_map_equalIS7_SD_SH_SF_EENS5_ISD_EEE16__emplace_uniqueB9nqe220106IJRKNS_21piecewise_construct_tENS_5tupleIJRSC_EEENSR_IJEEEEEENSB_INS_15__hash_iteratorIPNS_11__hash_nodeIS9_PvEEEEbEEDpOT_ENKUlSS_SQ_OST_OSU_E_clESS_SQ_S15_S16_, symObjAddr: 0x446C, symBinAddr: 0x846C, symSize: 0x3F4 }
  - { offset: 0x47FC9, size: 0x8, addend: 0x0, symName: __ZNSt3__112__hash_tableINS_17__hash_value_typeINS_12basic_stringIcNS_11char_traitsIcEENS_9allocatorIcEEEE25llama_adapter_lora_weightEENS_22__unordered_map_hasherIS7_NS_4pairIKS7_S8_EENS_4hashIS7_EENS_8equal_toIS7_EEEENS_21__unordered_map_equalIS7_SD_SH_SF_EENS5_ISD_EEE11__do_rehashILb1EEEvm, symObjAddr: 0x48C0, symBinAddr: 0x88C0, symSize: 0x180 }
  - { offset: 0x48225, size: 0x8, addend: 0x0, symName: __ZZNSt3__16vectorINS_10unique_ptrI19ggml_backend_buffer27ggml_backend_buffer_deleterEENS_9allocatorIS4_EEE12emplace_backIJS4_EEERS4_DpOT_ENKUlvE0_clEv, symObjAddr: 0x4A40, symBinAddr: 0x8A40, symSize: 0xE0 }
  - { offset: 0x4823A, size: 0x8, addend: 0x0, symName: __ZNSt3__110unique_ptrINS_11__hash_nodeINS_17__hash_value_typeINS_12basic_stringIcNS_11char_traitsIcEENS_9allocatorIcEEEE25llama_adapter_lora_weightEEPvEENS_22__hash_node_destructorINS6_ISC_EEEEED1B9nqe220106Ev, symObjAddr: 0x4860, symBinAddr: 0x8860, symSize: 0x60 }
  - { offset: 0x48B1C, size: 0x8, addend: 0x0, symName: __ZNSt3__112__hash_tableIP18llama_adapter_loraNS_4hashIS2_EENS_8equal_toIS2_EENS_9allocatorIS2_EEE11__do_rehashILb1EEEvm, symObjAddr: 0x4E78, symBinAddr: 0x8E78, symSize: 0x180 }
  - { offset: 0x48D78, size: 0x8, addend: 0x0, symName: __ZNSt3__16__treeINS_12__value_typeINS_12basic_stringIcNS_11char_traitsIcEENS_9allocatorIcEEEE25llama_adapter_lora_weightEENS_19__map_value_compareIS7_NS_4pairIKS7_S8_EENS_4lessIS7_EEEENS5_ISD_EEE14__tree_deleterclB9nqe220106EPNS_11__tree_nodeIS9_PvEE, symObjAddr: 0x4FF8, symBinAddr: 0x8FF8, symSize: 0x64 }
  - { offset: 0x493E1, size: 0x8, addend: 0x0, symName: __ZNSt3__16vectorIP11ggml_tensorNS_9allocatorIS2_EEE20__throw_length_errorB9nqe220106Ev, symObjAddr: 0x5214, symBinAddr: 0x9214, symSize: 0x14 }
  - { offset: 0x493F9, size: 0x8, addend: 0x0, symName: __ZZNSt3__16vectorIP11ggml_tensorNS_9allocatorIS2_EEE12emplace_backIJS2_EEERS2_DpOT_ENKUlvE0_clEv, symObjAddr: 0x5228, symBinAddr: 0x9228, symSize: 0xDC }
  - { offset: 0x4B7EC, size: 0x8, addend: 0x0, symName: __MergedGlobals, symObjAddr: 0x66BC0, symBinAddr: 0x4A20C0, symSize: 0x0 }
  - { offset: 0x57CE8, size: 0x8, addend: 0x0, symName: __MergedGlobals, symObjAddr: 0x66BC0, symBinAddr: 0x4A20C0, symSize: 0x0 }
  - { offset: 0x57F0A, size: 0x8, addend: 0x0, symName: __MergedGlobals, symObjAddr: 0x66BC0, symBinAddr: 0x4A20C0, symSize: 0x0 }
  - { offset: 0x58748, size: 0x8, addend: 0x0, symName: __MergedGlobals, symObjAddr: 0x66BC0, symBinAddr: 0x4A20C0, symSize: 0x0 }
  - { offset: 0x58D22, size: 0x8, addend: 0x0, symName: __ZNSt3__13mapI8llm_archPKcNS_4lessIS1_EENS_9allocatorINS_4pairIKS1_S3_EEEEED1B9nqe220106Ev, symObjAddr: 0x0, symBinAddr: 0x9A88, symSize: 0x40 }
  - { offset: 0x58E33, size: 0x8, addend: 0x0, symName: __ZNSt3__16__treeINS_12__value_typeI8llm_archPKcEENS_19__map_value_compareIS2_NS_4pairIKS2_S4_EENS_4lessIS2_EEEENS_9allocatorIS9_EEE14__tree_deleterclB9nqe220106EPNS_11__tree_nodeIS5_PvEE, symObjAddr: 0xABC, symBinAddr: 0xA338, symSize: 0x4C }
  - { offset: 0x58FF9, size: 0x8, addend: 0x0, symName: __ZNSt3__13mapI6llm_kvPKcNS_4lessIS1_EENS_9allocatorINS_4pairIKS1_S3_EEEEED1B9nqe220106Ev, symObjAddr: 0x40, symBinAddr: 0x9AC8, symSize: 0x40 }
  - { offset: 0x5910A, size: 0x8, addend: 0x0, symName: __ZNSt3__16__treeINS_12__value_typeI6llm_kvPKcEENS_19__map_value_compareIS2_NS_4pairIKS2_S4_EENS_4lessIS2_EEEENS_9allocatorIS9_EEE14__tree_deleterclB9nqe220106EPNS_11__tree_nodeIS5_PvEE, symObjAddr: 0xC7C, symBinAddr: 0xA4F8, symSize: 0x4C }
  - { offset: 0x592D0, size: 0x8, addend: 0x0, symName: __ZNSt3__13mapI10llm_tensorPKcNS_4lessIS1_EENS_9allocatorINS_4pairIKS1_S3_EEEEED1B9nqe220106Ev, symObjAddr: 0x80, symBinAddr: 0x9B08, symSize: 0x40 }
  - { offset: 0x593E1, size: 0x8, addend: 0x0, symName: __ZNSt3__16__treeINS_12__value_typeI10llm_tensorPKcEENS_19__map_value_compareIS2_NS_4pairIKS2_S4_EENS_4lessIS2_EEEENS_9allocatorIS9_EEE14__tree_deleterclB9nqe220106EPNS_11__tree_nodeIS5_PvEE, symObjAddr: 0xE3C, symBinAddr: 0xA6B8, symSize: 0x4C }
  - { offset: 0x595A7, size: 0x8, addend: 0x0, symName: __ZNSt3__13mapI10llm_tensor15llm_tensor_infoNS_4lessIS1_EENS_9allocatorINS_4pairIKS1_S2_EEEEED1B9nqe220106Ev, symObjAddr: 0xC0, symBinAddr: 0x9B48, symSize: 0x40 }
  - { offset: 0x596B8, size: 0x8, addend: 0x0, symName: __ZNSt3__16__treeINS_12__value_typeI10llm_tensor15llm_tensor_infoEENS_19__map_value_compareIS2_NS_4pairIKS2_S3_EENS_4lessIS2_EEEENS_9allocatorIS8_EEE14__tree_deleterclB9nqe220106EPNS_11__tree_nodeIS4_PvEE, symObjAddr: 0x100C, symBinAddr: 0xA888, symSize: 0x4C }
  - { offset: 0x59796, size: 0x8, addend: 0x0, symName: __ZN6LLM_KVC2E8llm_archPKc, symObjAddr: 0x100, symBinAddr: 0x9B88, symSize: 0xC }
  - { offset: 0x597FE, size: 0x8, addend: 0x0, symName: __ZN6LLM_KVC1E8llm_archPKc, symObjAddr: 0x10C, symBinAddr: 0x9B94, symSize: 0xC }
  - { offset: 0x59848, size: 0x8, addend: 0x0, symName: __ZN6LLM_KVC1E8llm_archPKc, symObjAddr: 0x10C, symBinAddr: 0x9B94, symSize: 0xC }
  - { offset: 0x59C41, size: 0x8, addend: 0x0, symName: __ZNK6LLM_KVclE6llm_kv, symObjAddr: 0x118, symBinAddr: 0x9BA0, symSize: 0xF8 }
  - { offset: 0x5A02E, size: 0x8, addend: 0x0, symName: __ZN11LLM_TN_IMPLC2E8llm_arch10llm_tensorPKcii, symObjAddr: 0x210, symBinAddr: 0x9C98, symSize: 0x10 }
  - { offset: 0x5A0CF, size: 0x8, addend: 0x0, symName: __ZN11LLM_TN_IMPLC1E8llm_arch10llm_tensorPKcii, symObjAddr: 0x220, symBinAddr: 0x9CA8, symSize: 0x10 }
  - { offset: 0x5A143, size: 0x8, addend: 0x0, symName: __ZN11LLM_TN_IMPLC1E8llm_arch10llm_tensorPKcii, symObjAddr: 0x220, symBinAddr: 0x9CA8, symSize: 0x10 }
  - { offset: 0x5A343, size: 0x8, addend: 0x0, symName: __ZNK11LLM_TN_IMPL3strEv, symObjAddr: 0x230, symBinAddr: 0x9CB8, symSize: 0x118 }
  - { offset: 0x5ABC3, size: 0x8, addend: 0x0, symName: __Z12llm_arch_allv, symObjAddr: 0x348, symBinAddr: 0x9DD0, symSize: 0x13C }
  - { offset: 0x5B120, size: 0x8, addend: 0x0, symName: __ZZNSt3__16vectorI8llm_archNS_9allocatorIS1_EEE12emplace_backIJRKS1_EEERS1_DpOT_ENKUlvE0_clEv, symObjAddr: 0x1154, symBinAddr: 0xA8E8, symSize: 0xDC }
  - { offset: 0x5B41C, size: 0x8, addend: 0x0, symName: __ZNSt3__16vectorI8llm_archNS_9allocatorIS1_EEE20__throw_length_errorB9nqe220106Ev, symObjAddr: 0x10CC, symBinAddr: 0xA8D4, symSize: 0x14 }
  - { offset: 0x5B4B0, size: 0x8, addend: 0x0, symName: __Z13llm_arch_name8llm_arch, symObjAddr: 0x484, symBinAddr: 0x9F0C, symSize: 0x68 }
  - { offset: 0x5B4F2, size: 0x8, addend: 0x0, symName: __Z13llm_arch_name8llm_arch, symObjAddr: 0x484, symBinAddr: 0x9F0C, symSize: 0x68 }
  - { offset: 0x5B507, size: 0x8, addend: 0x0, symName: __Z13llm_arch_name8llm_arch, symObjAddr: 0x484, symBinAddr: 0x9F0C, symSize: 0x68 }
  - { offset: 0x5B51C, size: 0x8, addend: 0x0, symName: __Z13llm_arch_name8llm_arch, symObjAddr: 0x484, symBinAddr: 0x9F0C, symSize: 0x68 }
  - { offset: 0x5B531, size: 0x8, addend: 0x0, symName: __Z13llm_arch_name8llm_arch, symObjAddr: 0x484, symBinAddr: 0x9F0C, symSize: 0x68 }
  - { offset: 0x5B54F, size: 0x8, addend: 0x0, symName: __Z13llm_arch_name8llm_arch, symObjAddr: 0x484, symBinAddr: 0x9F0C, symSize: 0x68 }
  - { offset: 0x5B69F, size: 0x8, addend: 0x0, symName: __Z20llm_arch_from_stringRKNSt3__112basic_stringIcNS_11char_traitsIcEENS_9allocatorIcEEEE, symObjAddr: 0x4EC, symBinAddr: 0x9F74, symSize: 0x108 }
  - { offset: 0x5BA3F, size: 0x8, addend: 0x0, symName: __Z19llm_tensor_info_for10llm_tensor, symObjAddr: 0x5F4, symBinAddr: 0xA07C, symSize: 0x54 }
  - { offset: 0x5BB2D, size: 0x8, addend: 0x0, symName: __Z21llm_arch_is_recurrentRK8llm_arch, symObjAddr: 0x648, symBinAddr: 0xA0D0, symSize: 0x24 }
  - { offset: 0x5BB5D, size: 0x8, addend: 0x0, symName: __Z18llm_arch_is_hybridRK8llm_arch, symObjAddr: 0x66C, symBinAddr: 0xA0F4, symSize: 0x64 }
  - { offset: 0x5BB8D, size: 0x8, addend: 0x0, symName: __Z21llm_arch_is_diffusionRK8llm_arch, symObjAddr: 0x6D0, symBinAddr: 0xA158, symSize: 0x20 }
  - { offset: 0x5BBBD, size: 0x8, addend: 0x0, symName: __Z29llm_arch_supports_rs_rollbackRK8llm_arch, symObjAddr: 0x6F0, symBinAddr: 0xA178, symSize: 0x14 }
  - { offset: 0x5BBED, size: 0x8, addend: 0x0, symName: __Z27llm_arch_supports_sm_tensorRK8llm_arch, symObjAddr: 0x704, symBinAddr: 0xA18C, symSize: 0x38 }
  - { offset: 0x5BC1D, size: 0x8, addend: 0x0, symName: __ZNSt3__16__treeINS_12__value_typeI8llm_archPKcEENS_19__map_value_compareIS2_NS_4pairIKS2_S4_EENS_4lessIS2_EEEENS_9allocatorIS9_EEED1B9nqe220106Ev, symObjAddr: 0x74C, symBinAddr: 0xA1C4, symSize: 0x40 }
  - { offset: 0x5BFCE, size: 0x8, addend: 0x0, symName: __ZZNSt3__16__treeINS_12__value_typeI8llm_archPKcEENS_19__map_value_compareIS2_NS_4pairIKS2_S4_EENS_4lessIS2_EEEENS_9allocatorIS9_EEE21__insert_range_uniqueB9nqe220106IPKS9_SI_EEvT_T0_ENKUlRS8_RSH_E_clESL_SM_, symObjAddr: 0x988, symBinAddr: 0xA204, symSize: 0x134 }
  - { offset: 0x5C55E, size: 0x8, addend: 0x0, symName: __ZNSt3__16__treeINS_12__value_typeI6llm_kvPKcEENS_19__map_value_compareIS2_NS_4pairIKS2_S4_EENS_4lessIS2_EEEENS_9allocatorIS9_EEED1B9nqe220106Ev, symObjAddr: 0xB08, symBinAddr: 0xA384, symSize: 0x40 }
  - { offset: 0x5C8D2, size: 0x8, addend: 0x0, symName: __ZZNSt3__16__treeINS_12__value_typeI6llm_kvPKcEENS_19__map_value_compareIS2_NS_4pairIKS2_S4_EENS_4lessIS2_EEEENS_9allocatorIS9_EEE21__insert_range_uniqueB9nqe220106IPKS9_SI_EEvT_T0_ENKUlRS8_RSH_E_clESL_SM_, symObjAddr: 0xB48, symBinAddr: 0xA3C4, symSize: 0x134 }
  - { offset: 0x5CE62, size: 0x8, addend: 0x0, symName: __ZNSt3__16__treeINS_12__value_typeI10llm_tensorPKcEENS_19__map_value_compareIS2_NS_4pairIKS2_S4_EENS_4lessIS2_EEEENS_9allocatorIS9_EEED1B9nqe220106Ev, symObjAddr: 0xCC8, symBinAddr: 0xA544, symSize: 0x40 }
  - { offset: 0x5D1D6, size: 0x8, addend: 0x0, symName: __ZZNSt3__16__treeINS_12__value_typeI10llm_tensorPKcEENS_19__map_value_compareIS2_NS_4pairIKS2_S4_EENS_4lessIS2_EEEENS_9allocatorIS9_EEE21__insert_range_uniqueB9nqe220106IPKS9_SI_EEvT_T0_ENKUlRS8_RSH_E_clESL_SM_, symObjAddr: 0xD08, symBinAddr: 0xA584, symSize: 0x134 }
  - { offset: 0x5D766, size: 0x8, addend: 0x0, symName: __ZNSt3__16__treeINS_12__value_typeI10llm_tensor15llm_tensor_infoEENS_19__map_value_compareIS2_NS_4pairIKS2_S3_EENS_4lessIS2_EEEENS_9allocatorIS8_EEED1B9nqe220106Ev, symObjAddr: 0xE88, symBinAddr: 0xA704, symSize: 0x40 }
  - { offset: 0x5DAA7, size: 0x8, addend: 0x0, symName: __ZZNSt3__16__treeINS_12__value_typeI10llm_tensor15llm_tensor_infoEENS_19__map_value_compareIS2_NS_4pairIKS2_S3_EENS_4lessIS2_EEEENS_9allocatorIS8_EEE21__insert_range_uniqueB9nqe220106IPKS8_SH_EEvT_T0_ENKUlRS7_RSG_E_clESK_SL_, symObjAddr: 0xEC8, symBinAddr: 0xA744, symSize: 0x144 }
  - { offset: 0x5E75A, size: 0x8, addend: 0x0, symName: __GLOBAL__sub_I_llama_arch.cpp, symObjAddr: 0x1EC0, symBinAddr: 0xA9C4, symSize: 0x3D8 }
  - { offset: 0x72B60, size: 0x8, addend: 0x0, symName: __ZNSt3__124__put_character_sequenceB9nqe220106IcNS_11char_traitsIcEEEERNS_13basic_ostreamIT_T0_EES7_PKS4_m, symObjAddr: 0x56DC, symBinAddr: 0x10220, symSize: 0x16C }
  - { offset: 0x78022, size: 0x8, addend: 0x0, symName: __ZNSt3__116__pad_and_outputB9nqe220106IcNS_11char_traitsIcEEEENS_19ostreambuf_iteratorIT_T0_EES6_PKS4_S8_S8_RNS_8ios_baseES4_, symObjAddr: 0x5848, symBinAddr: 0x1038C, symSize: 0x1A8 }
  - { offset: 0x79FAA, size: 0x8, addend: 0x0, symName: __ZTVNSt3__120__shared_ptr_emplaceIN12llama_ubatch6data_tENS_9allocatorIS2_EEEE, symObjAddr: 0x6DF8, symBinAddr: 0x3FA3B0, symSize: 0x0 }
  - { offset: 0x7C36B, size: 0x8, addend: 0x0, symName: __ZN18llama_batch_allocrC2Ej, symObjAddr: 0x0, symBinAddr: 0xAD9C, symSize: 0x2E0 }
  - { offset: 0x7D206, size: 0x8, addend: 0x0, symName: __ZNSt3__16vectorINS_3setIiNS_4lessIiEENS_9allocatorIiEEEENS4_IS6_EEE6resizeEm, symObjAddr: 0x2E0, symBinAddr: 0xB07C, symSize: 0x230 }
  - { offset: 0x7DA8C, size: 0x8, addend: 0x0, symName: __ZNSt3__16vectorINS0_IbNS_9allocatorIbEEEENS1_IS3_EEE6resizeEm, symObjAddr: 0x510, symBinAddr: 0xB2AC, symSize: 0x1FC }
  - { offset: 0x7E1DB, size: 0x8, addend: 0x0, symName: __ZNSt3__16vectorIbNS_9allocatorIbEEE6resizeEmb, symObjAddr: 0x70C, symBinAddr: 0xB4A8, symSize: 0xE8 }
  - { offset: 0x7E1E6, size: 0x8, addend: 0x0, symName: __ZNSt3__123__specialized_algorithmINS_10_Algorithm8__fill_nEJNS_17__single_iteratorINS_14__bit_iteratorINS_6vectorIbNS_9allocatorIbEEEELb0ELm0EEEEEEEclB9nqe220106ImbEES9_S9_T_RKT0_, symObjAddr: 0x4C70, symBinAddr: 0xF83C, symSize: 0x1D4 }
  - { offset: 0x7E5C0, size: 0x8, addend: 0x0, symName: __ZNSt3__16vectorIiNS_9allocatorIiEEE6resizeEmRKi, symObjAddr: 0x7F4, symBinAddr: 0xB590, symSize: 0x1B4 }
  - { offset: 0x7EA07, size: 0x8, addend: 0x0, symName: __ZNSt3__113unordered_mapINS_6bitsetILm256EEENS_6vectorIiNS_9allocatorIiEEEENS_4hashIS2_EENS_8equal_toIS2_EENS4_INS_4pairIKS2_S6_EEEEED1B9nqe220106Ev, symObjAddr: 0x9A8, symBinAddr: 0xB744, symSize: 0x68 }
  - { offset: 0x7EA12, size: 0x8, addend: 0x0, symName: __ZNSt3__113unordered_mapINS_6bitsetILm256EEENS_6vectorIiNS_9allocatorIiEEEENS_4hashIS2_EENS_8equal_toIS2_EENS4_INS_4pairIKS2_S6_EEEEED1B9nqe220106Ev, symObjAddr: 0x9A8, symBinAddr: 0xB744, symSize: 0x68 }
  - { offset: 0x7EE01, size: 0x8, addend: 0x0, symName: __ZNSt3__16vectorINS0_IbNS_9allocatorIbEEEENS1_IS3_EEED1B9nqe220106Ev, symObjAddr: 0xA10, symBinAddr: 0xB7AC, symSize: 0x68 }
  - { offset: 0x7F03A, size: 0x8, addend: 0x0, symName: __ZNSt3__16vectorINS_3setIiNS_4lessIiEENS_9allocatorIiEEEENS4_IS6_EEED1B9nqe220106Ev, symObjAddr: 0xA78, symBinAddr: 0xB814, symSize: 0x7C }
  - { offset: 0x7F9EB, size: 0x8, addend: 0x0, symName: __ZNSt3__16__treeIiNS_4lessIiEENS_9allocatorIiEEE14__tree_deleterclB9nqe220106EPNS_11__tree_nodeIiPvEE, symObjAddr: 0x4B4C, symBinAddr: 0xF7B4, symSize: 0x4C }
  - { offset: 0x7FAC4, size: 0x8, addend: 0x0, symName: __ZNSt3__16vectorINS_3setIiNS_4lessIiEENS_9allocatorIiEEEENS4_IS6_EEE20__throw_length_errorB9nqe220106Ev, symObjAddr: 0x4B98, symBinAddr: 0xF800, symSize: 0x14 }
  - { offset: 0x7FFA5, size: 0x8, addend: 0x0, symName: __ZNSt3__16vectorINS0_IbNS_9allocatorIbEEEENS1_IS3_EEE20__throw_length_errorB9nqe220106Ev, symObjAddr: 0x4C48, symBinAddr: 0xF814, symSize: 0x14 }
  - { offset: 0x7FFBD, size: 0x8, addend: 0x0, symName: __ZNSt3__16vectorIbNS_9allocatorIbEEE20__throw_length_errorB9nqe220106Ev, symObjAddr: 0x4C5C, symBinAddr: 0xF828, symSize: 0x14 }
  - { offset: 0x7FFC8, size: 0x8, addend: 0x0, symName: __ZNSt3__16vectorIbNS_9allocatorIbEEE6resizeEmb, symObjAddr: 0x70C, symBinAddr: 0xB4A8, symSize: 0xE8 }
  - { offset: 0x80415, size: 0x8, addend: 0x0, symName: __ZNSt3__16vectorIiNS_9allocatorIiEEE6resizeEmRKi, symObjAddr: 0x7F4, symBinAddr: 0xB590, symSize: 0x1B4 }
  - { offset: 0x80420, size: 0x8, addend: 0x0, symName: __ZNSt3__16vectorIbNS_9allocatorIbEEE20__throw_length_errorB9nqe220106Ev, symObjAddr: 0x4C5C, symBinAddr: 0xF828, symSize: 0x14 }
  - { offset: 0x80438, size: 0x8, addend: 0x0, symName: __ZNSt3__123__specialized_algorithmINS_10_Algorithm8__fill_nEJNS_17__single_iteratorINS_14__bit_iteratorINS_6vectorIbNS_9allocatorIbEEEELb0ELm0EEEEEEEclB9nqe220106ImbEES9_S9_T_RKT0_, symObjAddr: 0x4C70, symBinAddr: 0xF83C, symSize: 0x1D4 }
  - { offset: 0x807E7, size: 0x8, addend: 0x0, symName: __ZNSt3__16vectorIPiNS_9allocatorIS1_EEE20__throw_length_errorB9nqe220106Ev, symObjAddr: 0x4E58, symBinAddr: 0xFA10, symSize: 0x14 }
  - { offset: 0x80B28, size: 0x8, addend: 0x0, symName: __ZN18llama_batch_allocrC1Ej, symObjAddr: 0xAF4, symBinAddr: 0xB890, symSize: 0x4 }
  - { offset: 0x80B64, size: 0x8, addend: 0x0, symName: __ZN18llama_batch_allocrC1Ej, symObjAddr: 0xAF4, symBinAddr: 0xB890, symSize: 0x4 }
  - { offset: 0x82276, size: 0x8, addend: 0x0, symName: __ZN18llama_batch_allocr4initERK11llama_batchRK11llama_vocabPK14llama_memory_ijjb, symObjAddr: 0xAF8, symBinAddr: 0xB894, symSize: 0x16B8 }
  - { offset: 0x85595, size: 0x8, addend: 0x0, symName: __ZN18llama_batch_allocr5clearEv, symObjAddr: 0x21B0, symBinAddr: 0xCF4C, symSize: 0x14C }
  - { offset: 0x8618A, size: 0x8, addend: 0x0, symName: __ZNSt3__16vectorIPiNS_9allocatorIS1_EEE6resizeEm, symObjAddr: 0x2420, symBinAddr: 0xD098, symSize: 0x124 }
  - { offset: 0x86195, size: 0x8, addend: 0x0, symName: __ZNSt3__16vectorIPiNS_9allocatorIS1_EEE6resizeEm, symObjAddr: 0x2420, symBinAddr: 0xD098, symSize: 0x124 }
  - { offset: 0x86616, size: 0x8, addend: 0x0, symName: __ZN18llama_batch_allocr12ubatch_printERK12llama_ubatchi, symObjAddr: 0x2544, symBinAddr: 0xD1BC, symSize: 0xB64 }
  - { offset: 0x86636, size: 0x8, addend: 0x0, symName: __ZZNSt3__112__hash_tableINS_17__hash_value_typeINS_6bitsetILm256EEENS_6vectorIiNS_9allocatorIiEEEEEENS_22__unordered_map_hasherIS3_NS_4pairIKS3_S7_EENS_4hashIS3_EENS_8equal_toIS3_EEEENS_21__unordered_map_equalIS3_SC_SG_SE_EENS5_ISC_EEE16__emplace_uniqueB9nqe220106IJRKNS_21piecewise_construct_tENS_5tupleIJRSB_EEENSQ_IJEEEEEENSA_INS_15__hash_iteratorIPNS_11__hash_nodeIS8_PvEEEEbEEDpOT_ENKUlSR_SP_OSS_OST_E_clESR_SP_S14_S15_, symObjAddr: 0x4FE0, symBinAddr: 0xFB24, symSize: 0x364 }
  - { offset: 0x86E24, size: 0x8, addend: 0x0, symName: __ZZNSt3__16vectorINS_6bitsetILm256EEENS_9allocatorIS2_EEE12emplace_backIJRKS2_EEERS2_DpOT_ENKUlvE0_clEv, symObjAddr: 0x4EF4, symBinAddr: 0xFA38, symSize: 0xD8 }
  - { offset: 0x8712D, size: 0x8, addend: 0x0, symName: __ZNSt3__16vectorINS_6bitsetILm256EEENS_9allocatorIS2_EEE20__throw_length_errorB9nqe220106Ev, symObjAddr: 0x4FCC, symBinAddr: 0xFB10, symSize: 0x14 }
  - { offset: 0x87142, size: 0x8, addend: 0x0, symName: __ZZNSt3__16vectorIiNS_9allocatorIiEEE12emplace_backIJRKiEEERiDpOT_ENKUlvE0_clEv, symObjAddr: 0x5524, symBinAddr: 0x10068, symSize: 0xDC }
  - { offset: 0x8742A, size: 0x8, addend: 0x0, symName: __ZZNSt3__16vectorIiNS_9allocatorIiEEE12emplace_backIJiEEERiDpOT_ENKUlvE0_clEv, symObjAddr: 0x5600, symBinAddr: 0x10144, symSize: 0xDC }
  - { offset: 0x8743F, size: 0x8, addend: 0x0, symName: __ZZNSt3__16vectorIiNS_9allocatorIiEEE12emplace_backIJiEEERiDpOT_ENKUlvE0_clEv, symObjAddr: 0x5600, symBinAddr: 0x10144, symSize: 0xDC }
  - { offset: 0x87730, size: 0x8, addend: 0x0, symName: __ZNSt3__124__put_character_sequenceB9nqe220106IcNS_11char_traitsIcEEEERNS_13basic_ostreamIT_T0_EES7_PKS4_m, symObjAddr: 0x56DC, symBinAddr: 0x10220, symSize: 0x16C }
  - { offset: 0x8773B, size: 0x8, addend: 0x0, symName: __ZN18llama_batch_allocr12ubatch_printERK12llama_ubatchi, symObjAddr: 0x2544, symBinAddr: 0xD1BC, symSize: 0xB64 }
  - { offset: 0x88B50, size: 0x8, addend: 0x0, symName: __ZNSt3__118basic_stringstreamIcNS_11char_traitsIcEENS_9allocatorIcEEEC1B9nqe220106Ev, symObjAddr: 0x30A8, symBinAddr: 0xDD20, symSize: 0x194 }
  - { offset: 0x88EC2, size: 0x8, addend: 0x0, symName: __ZNSt3__16vectorIaNS_9allocatorIaEEE20__throw_length_errorB9nqe220106Ev, symObjAddr: 0x4E6C, symBinAddr: 0xFA24, symSize: 0x14 }
  - { offset: 0x88EEA, size: 0x8, addend: 0x0, symName: __ZN12llama_ubatchD1Ev, symObjAddr: 0x333C, symBinAddr: 0xDFB4, symSize: 0x64 }
  - { offset: 0x88FBD, size: 0x8, addend: 0x0, symName: __ZNSt3__118basic_stringstreamIcNS_11char_traitsIcEENS_9allocatorIcEEED1Ev, symObjAddr: 0x32B4, symBinAddr: 0xDF2C, symSize: 0x88 }
  - { offset: 0x89295, size: 0x8, addend: 0x0, symName: __ZNSt3__123__specialized_algorithmINS_10_Algorithm8__fill_nEJNS_17__single_iteratorINS_14__bit_iteratorINS_6vectorIbNS_9allocatorIbEEEELb0ELm0EEEEEEEclB9nqe220106IlbEES9_S9_T_RKT0_, symObjAddr: 0x5E94, symBinAddr: 0x109C4, symSize: 0x1D0 }
  - { offset: 0x89B72, size: 0x8, addend: 0x0, symName: __ZNSt3__16vectorIPiNS_9allocatorIS1_EEE20__throw_length_errorB9nqe220106Ev, symObjAddr: 0x4E58, symBinAddr: 0xFA10, symSize: 0x14 }
  - { offset: 0x89B8A, size: 0x8, addend: 0x0, symName: __ZNSt3__16vectorIaNS_9allocatorIaEEE20__throw_length_errorB9nqe220106Ev, symObjAddr: 0x4E6C, symBinAddr: 0xFA24, symSize: 0x14 }
  - { offset: 0x89F76, size: 0x8, addend: 0x0, symName: __ZNK18llama_batch_allocr11seq_pos_minEi, symObjAddr: 0x323C, symBinAddr: 0xDEB4, symSize: 0x28 }
  - { offset: 0x89FA1, size: 0x8, addend: 0x0, symName: __ZNK18llama_batch_allocr11seq_pos_minEi, symObjAddr: 0x323C, symBinAddr: 0xDEB4, symSize: 0x28 }
  - { offset: 0x8A033, size: 0x8, addend: 0x0, symName: __ZNK18llama_batch_allocr11seq_pos_maxEi, symObjAddr: 0x3264, symBinAddr: 0xDEDC, symSize: 0x50 }
  - { offset: 0x8A05E, size: 0x8, addend: 0x0, symName: __ZNK18llama_batch_allocr11seq_pos_maxEi, symObjAddr: 0x3264, symBinAddr: 0xDEDC, symSize: 0x50 }
  - { offset: 0x8A1F5, size: 0x8, addend: 0x0, symName: __ZN18llama_batch_allocr11split_resetEv, symObjAddr: 0x33A0, symBinAddr: 0xE018, symSize: 0x20 }
  - { offset: 0x8A219, size: 0x8, addend: 0x0, symName: __ZN18llama_batch_allocr11split_resetEv, symObjAddr: 0x33A0, symBinAddr: 0xE018, symSize: 0x20 }
  - { offset: 0x8A238, size: 0x8, addend: 0x0, symName: __ZN18llama_batch_allocr11split_resetEv, symObjAddr: 0x33A0, symBinAddr: 0xE018, symSize: 0x20 }
  - { offset: 0x8A718, size: 0x8, addend: 0x0, symName: __ZN18llama_batch_allocr14ubatch_reserveEjj, symObjAddr: 0x33C0, symBinAddr: 0xE038, symSize: 0x2EC }
  - { offset: 0x8B32E, size: 0x8, addend: 0x0, symName: __ZNSt3__110shared_ptrIN12llama_ubatch6data_tEED1B9nqe220106Ev, symObjAddr: 0x36AC, symBinAddr: 0xE324, symSize: 0x64 }
  - { offset: 0x8B3C4, size: 0x8, addend: 0x0, symName: __ZNK18llama_batch_allocr9get_batchEv, symObjAddr: 0x3710, symBinAddr: 0xE388, symSize: 0x4 }
  - { offset: 0x8B3EC, size: 0x8, addend: 0x0, symName: __ZNK18llama_batch_allocr12get_n_tokensEv, symObjAddr: 0x3714, symBinAddr: 0xE38C, symSize: 0x8 }
  - { offset: 0x8B40E, size: 0x8, addend: 0x0, symName: __ZNK18llama_batch_allocr13get_n_outputsEv, symObjAddr: 0x371C, symBinAddr: 0xE394, symSize: 0x8 }
  - { offset: 0x8B438, size: 0x8, addend: 0x0, symName: __ZNK18llama_batch_allocr10get_n_usedEv, symObjAddr: 0x3724, symBinAddr: 0xE39C, symSize: 0x8 }
  - { offset: 0x8B462, size: 0x8, addend: 0x0, symName: __ZN18llama_batch_allocr11get_out_idsEv, symObjAddr: 0x372C, symBinAddr: 0xE3A4, symSize: 0x8 }
  - { offset: 0x8B48C, size: 0x8, addend: 0x0, symName: __ZN18llama_batch_allocr12split_simpleEj, symObjAddr: 0x3734, symBinAddr: 0xE3AC, symSize: 0x178 }
  - { offset: 0x8B9BC, size: 0x8, addend: 0x0, symName: __ZN18llama_batch_allocr10ubatch_addERKNSt3__16vectorIiNS0_9allocatorIiEEEEjb, symObjAddr: 0x38AC, symBinAddr: 0xE524, symSize: 0x748 }
  - { offset: 0x8D266, size: 0x8, addend: 0x0, symName: __ZNSt3__16vectorIfNS_9allocatorIfEEE6resizeEm, symObjAddr: 0x489C, symBinAddr: 0xF514, symSize: 0x124 }
  - { offset: 0x8D6E7, size: 0x8, addend: 0x0, symName: _llama_batch_get_one, symObjAddr: 0x49C0, symBinAddr: 0xF638, symSize: 0x1C }
  - { offset: 0x8DBE9, size: 0x8, addend: 0x0, symName: __ZN18llama_batch_allocr11split_equalEjb, symObjAddr: 0x3FF4, symBinAddr: 0xEC6C, symSize: 0x624 }
  - { offset: 0x8F6C7, size: 0x8, addend: 0x0, symName: __ZNSt3__16vectorIiNS_9allocatorIiEEE18__insert_with_sizeB9nqe220106INS_17_ClassicAlgPolicyENS_11__wrap_iterIPiEES8_EES8_NS6_IPKiEET0_T1_l, symObjAddr: 0x5B7C, symBinAddr: 0x106AC, symSize: 0x318 }
  - { offset: 0x901D7, size: 0x8, addend: 0x0, symName: __ZNSt3__123__specialized_algorithmINS_10_Algorithm8__fill_nEJNS_17__single_iteratorINS_14__bit_iteratorINS_6vectorIbNS_9allocatorIbEEEELb0ELm0EEEEEEEclB9nqe220106IlbEES9_S9_T_RKT0_, symObjAddr: 0x5E94, symBinAddr: 0x109C4, symSize: 0x1D0 }
  - { offset: 0x901FD, size: 0x8, addend: 0x0, symName: __ZNSt3__128__exception_guard_exceptionsINS_6vectorINS1_IiNS_9allocatorIiEEEENS2_IS4_EEE16__destroy_vectorEED1B9nqe220106Ev, symObjAddr: 0x5AF8, symBinAddr: 0x10628, symSize: 0x84 }
  - { offset: 0x90456, size: 0x8, addend: 0x0, symName: __ZNSt3__16vectorINS0_IiNS_9allocatorIiEEEENS1_IS3_EEED1B9nqe220106Ev, symObjAddr: 0x4618, symBinAddr: 0xF290, symSize: 0x74 }
  - { offset: 0x906EB, size: 0x8, addend: 0x0, symName: __ZN18llama_batch_allocr9split_seqEj, symObjAddr: 0x468C, symBinAddr: 0xF304, symSize: 0x210 }
  - { offset: 0x9123E, size: 0x8, addend: 0x0, symName: __ZNSt3__16vectorIfNS_9allocatorIfEEE20__throw_length_errorB9nqe220106Ev, symObjAddr: 0x6064, symBinAddr: 0x10B94, symSize: 0x14 }
  - { offset: 0x91261, size: 0x8, addend: 0x0, symName: _llama_batch_get_one, symObjAddr: 0x49C0, symBinAddr: 0xF638, symSize: 0x1C }
  - { offset: 0x91299, size: 0x8, addend: 0x0, symName: _llama_batch_init, symObjAddr: 0x49DC, symBinAddr: 0xF654, symSize: 0xD0 }
  - { offset: 0x91392, size: 0x8, addend: 0x0, symName: _llama_batch_free, symObjAddr: 0x4AAC, symBinAddr: 0xF724, symSize: 0x90 }
  - { offset: 0x91837, size: 0x8, addend: 0x0, symName: __ZNSt3__16vectorINS_6bitsetILm256EEENS_9allocatorIS2_EEE20__throw_length_errorB9nqe220106Ev, symObjAddr: 0x4FCC, symBinAddr: 0xFB10, symSize: 0x14 }
  - { offset: 0x9184F, size: 0x8, addend: 0x0, symName: __ZZNSt3__112__hash_tableINS_17__hash_value_typeINS_6bitsetILm256EEENS_6vectorIiNS_9allocatorIiEEEEEENS_22__unordered_map_hasherIS3_NS_4pairIKS3_S7_EENS_4hashIS3_EENS_8equal_toIS3_EEEENS_21__unordered_map_equalIS3_SC_SG_SE_EENS5_ISC_EEE16__emplace_uniqueB9nqe220106IJRKNS_21piecewise_construct_tENS_5tupleIJRSB_EEENSQ_IJEEEEEENSA_INS_15__hash_iteratorIPNS_11__hash_nodeIS8_PvEEEEbEEDpOT_ENKUlSR_SP_OSS_OST_E_clESR_SP_S14_S15_, symObjAddr: 0x4FE0, symBinAddr: 0xFB24, symSize: 0x364 }
  - { offset: 0x91E78, size: 0x8, addend: 0x0, symName: __ZNSt3__112__hash_tableINS_17__hash_value_typeINS_6bitsetILm256EEENS_6vectorIiNS_9allocatorIiEEEEEENS_22__unordered_map_hasherIS3_NS_4pairIKS3_S7_EENS_4hashIS3_EENS_8equal_toIS3_EEEENS_21__unordered_map_equalIS3_SC_SG_SE_EENS5_ISC_EEE11__do_rehashILb1EEEvm, symObjAddr: 0x53A4, symBinAddr: 0xFEE8, symSize: 0x180 }
  - { offset: 0x920D4, size: 0x8, addend: 0x0, symName: __ZZNSt3__16vectorIiNS_9allocatorIiEEE12emplace_backIJRKiEEERiDpOT_ENKUlvE0_clEv, symObjAddr: 0x5524, symBinAddr: 0x10068, symSize: 0xDC }
  - { offset: 0x920E9, size: 0x8, addend: 0x0, symName: __ZNSt3__110unique_ptrINS_11__hash_nodeINS_17__hash_value_typeINS_6bitsetILm256EEENS_6vectorIiNS_9allocatorIiEEEEEEPvEENS_22__hash_node_destructorINS6_ISB_EEEEED1B9nqe220106Ev, symObjAddr: 0x5344, symBinAddr: 0xFE88, symSize: 0x60 }
  - { offset: 0x9298D, size: 0x8, addend: 0x0, symName: __ZNSt3__120__shared_ptr_emplaceIN12llama_ubatch6data_tENS_9allocatorIS2_EEED1Ev, symObjAddr: 0x5A04, symBinAddr: 0x10534, symSize: 0x14 }
  - { offset: 0x929B8, size: 0x8, addend: 0x0, symName: __ZNSt3__120__shared_ptr_emplaceIN12llama_ubatch6data_tENS_9allocatorIS2_EEED1Ev, symObjAddr: 0x5A04, symBinAddr: 0x10534, symSize: 0x14 }
  - { offset: 0x929DA, size: 0x8, addend: 0x0, symName: __ZNSt3__120__shared_ptr_emplaceIN12llama_ubatch6data_tENS_9allocatorIS2_EEED1Ev, symObjAddr: 0x5A04, symBinAddr: 0x10534, symSize: 0x14 }
  - { offset: 0x92A14, size: 0x8, addend: 0x0, symName: __ZNSt3__120__shared_ptr_emplaceIN12llama_ubatch6data_tENS_9allocatorIS2_EEED0Ev, symObjAddr: 0x5A18, symBinAddr: 0x10548, symSize: 0x24 }
  - { offset: 0x92B38, size: 0x8, addend: 0x0, symName: __ZNSt3__120__shared_ptr_emplaceIN12llama_ubatch6data_tENS_9allocatorIS2_EEE16__on_zero_sharedEv, symObjAddr: 0x5A3C, symBinAddr: 0x1056C, symSize: 0x8 }
  - { offset: 0x92B61, size: 0x8, addend: 0x0, symName: __ZNSt3__120__shared_ptr_emplaceIN12llama_ubatch6data_tENS_9allocatorIS2_EEE16__on_zero_sharedEv, symObjAddr: 0x5A3C, symBinAddr: 0x1056C, symSize: 0x8 }
  - { offset: 0x92B7E, size: 0x8, addend: 0x0, symName: __ZNSt3__120__shared_ptr_emplaceIN12llama_ubatch6data_tENS_9allocatorIS2_EEE16__on_zero_sharedEv, symObjAddr: 0x5A3C, symBinAddr: 0x1056C, symSize: 0x8 }
  - { offset: 0x92BE7, size: 0x8, addend: 0x0, symName: __ZN12llama_ubatch6data_tD2Ev, symObjAddr: 0x5A48, symBinAddr: 0x10578, symSize: 0xB0 }
  - { offset: 0x935DE, size: 0x8, addend: 0x0, symName: __ZNSt3__120__shared_ptr_emplaceIN12llama_ubatch6data_tENS_9allocatorIS2_EEE21__on_zero_shared_weakEv, symObjAddr: 0x5A44, symBinAddr: 0x10574, symSize: 0x4 }
  - { offset: 0x93610, size: 0x8, addend: 0x0, symName: __ZNSt3__120__shared_ptr_emplaceIN12llama_ubatch6data_tENS_9allocatorIS2_EEE21__on_zero_shared_weakEv, symObjAddr: 0x5A44, symBinAddr: 0x10574, symSize: 0x4 }
  - { offset: 0x93632, size: 0x8, addend: 0x0, symName: __ZNSt3__120__shared_ptr_emplaceIN12llama_ubatch6data_tENS_9allocatorIS2_EEE21__on_zero_shared_weakEv, symObjAddr: 0x5A44, symBinAddr: 0x10574, symSize: 0x4 }
  - { offset: 0x93655, size: 0x8, addend: 0x0, symName: __ZNSt3__120__shared_ptr_emplaceIN12llama_ubatch6data_tENS_9allocatorIS2_EEE21__on_zero_shared_weakEv, symObjAddr: 0x5A44, symBinAddr: 0x10574, symSize: 0x4 }
  - { offset: 0x95918, size: 0x8, addend: 0x0, symName: __ZL18LLM_CHAT_TEMPLATES, symObjAddr: 0x8D6D8, symBinAddr: 0x4A2120, symSize: 0x0 }
  - { offset: 0x9CD6F, size: 0x8, addend: 0x0, symName: __ZNSt3__1eqB9nqe220106IcNS_11char_traitsIcEENS_9allocatorIcEEEEbRKNS_12basic_stringIT_T0_T1_EEPKS6_, symObjAddr: 0x67DC, symBinAddr: 0x17148, symSize: 0x88 }
  - { offset: 0x9CF0F, size: 0x8, addend: 0x0, symName: __ZNSt3__1neB9nqe220106IcNS_11char_traitsIcEENS_9allocatorIcEEEEbRKNS_12basic_stringIT_T0_T1_EEPKS6_, symObjAddr: 0x6A0C, symBinAddr: 0x17378, symSize: 0x88 }
  - { offset: 0x9F027, size: 0x8, addend: 0x0, symName: __ZNSt3__13mapINS_12basic_stringIcNS_11char_traitsIcEENS_9allocatorIcEEEE17llm_chat_templateNS_4lessIS6_EENS4_INS_4pairIKS6_S7_EEEEED1B9nqe220106Ev, symObjAddr: 0x0, symBinAddr: 0x10BA8, symSize: 0x40 }
  - { offset: 0x9F138, size: 0x8, addend: 0x0, symName: __ZNSt3__16__treeINS_12__value_typeINS_12basic_stringIcNS_11char_traitsIcEENS_9allocatorIcEEEE17llm_chat_templateEENS_19__map_value_compareIS7_NS_4pairIKS7_S8_EENS_4lessIS7_EEEENS5_ISD_EEE14__tree_deleterclB9nqe220106EPNS_11__tree_nodeIS9_PvEE, symObjAddr: 0x72B4, symBinAddr: 0x178A4, symSize: 0x64 }
  - { offset: 0x9F5AA, size: 0x8, addend: 0x0, symName: __Z26llm_chat_template_from_strRKNSt3__112basic_stringIcNS_11char_traitsIcEENS_9allocatorIcEEEE, symObjAddr: 0x40, symBinAddr: 0x10BE8, symSize: 0xB0 }
  - { offset: 0x9F7A2, size: 0x8, addend: 0x0, symName: __Z24llm_chat_detect_templateRKNSt3__112basic_stringIcNS_11char_traitsIcEENS_9allocatorIcEEEE, symObjAddr: 0xF0, symBinAddr: 0x10C98, symSize: 0xBBC }
  - { offset: 0xA0057, size: 0x8, addend: 0x0, symName: '__ZZ24llm_chat_detect_templateRKNSt3__112basic_stringIcNS_11char_traitsIcEENS_9allocatorIcEEEEENK3$_0clEPKc', symObjAddr: 0xCAC, symBinAddr: 0x11854, symSize: 0xD0 }
  - { offset: 0xA02AC, size: 0x8, addend: 0x0, symName: __ZNKSt3__112basic_stringIcNS_11char_traitsIcEENS_9allocatorIcEEE4findB9nqe220106EPKcm, symObjAddr: 0xD7C, symBinAddr: 0x11924, symSize: 0xE4 }
  - { offset: 0xA0D0B, size: 0x8, addend: 0x0, symName: __Z23llm_chat_apply_template17llm_chat_templateRKNSt3__16vectorIPK18llama_chat_messageNS0_9allocatorIS4_EEEERNS0_12basic_stringIcNS0_11char_traitsIcEENS5_IcEEEEb, symObjAddr: 0xE60, symBinAddr: 0x11A08, symSize: 0x5740 }
  - { offset: 0xB4429, size: 0x8, addend: 0x0, symName: __ZL4trimRKNSt3__112basic_stringIcNS_11char_traitsIcEENS_9allocatorIcEEEE, symObjAddr: 0x6864, symBinAddr: 0x171D0, symSize: 0x1A8 }
  - { offset: 0xB48D9, size: 0x8, addend: 0x0, symName: __ZNSt3__1neB9nqe220106IcNS_11char_traitsIcEENS_9allocatorIcEEEEbRKNS_12basic_stringIT_T0_T1_EEPKS6_, symObjAddr: 0x6A0C, symBinAddr: 0x17378, symSize: 0x88 }
  - { offset: 0xB4BF3, size: 0x8, addend: 0x0, symName: __ZNSt3__1eqB9nqe220106IcNS_11char_traitsIcEENS_9allocatorIcEEEEbRKNS_12basic_stringIT_T0_T1_EEPKS6_, symObjAddr: 0x67DC, symBinAddr: 0x17148, symSize: 0x88 }
  - { offset: 0xB5192, size: 0x8, addend: 0x0, symName: _llama_chat_builtin_templates, symObjAddr: 0x6B1C, symBinAddr: 0x17400, symSize: 0x90 }
  - { offset: 0xB544F, size: 0x8, addend: 0x0, symName: __ZNSt3__16__treeINS_12__value_typeINS_12basic_stringIcNS_11char_traitsIcEENS_9allocatorIcEEEE17llm_chat_templateEENS_19__map_value_compareIS7_NS_4pairIKS7_S8_EENS_4lessIS7_EEEENS5_ISD_EEED1B9nqe220106Ev, symObjAddr: 0x6CCC, symBinAddr: 0x17490, symSize: 0x40 }
  - { offset: 0xB583D, size: 0x8, addend: 0x0, symName: __ZNSt3__16__treeINS_12__value_typeINS_12basic_stringIcNS_11char_traitsIcEENS_9allocatorIcEEEE17llm_chat_templateEENS_19__map_value_compareIS7_NS_4pairIKS7_S8_EENS_4lessIS7_EEEENS5_ISD_EEE21__insert_range_uniqueB9nqe220106IPKSD_SL_EEvT_T0_, symObjAddr: 0x6D0C, symBinAddr: 0x174D0, symSize: 0x11C }
  - { offset: 0xB5D36, size: 0x8, addend: 0x0, symName: __ZZNSt3__16__treeINS_12__value_typeINS_12basic_stringIcNS_11char_traitsIcEENS_9allocatorIcEEEE17llm_chat_templateEENS_19__map_value_compareIS7_NS_4pairIKS7_S8_EENS_4lessIS7_EEEENS5_ISD_EEE21__insert_range_uniqueB9nqe220106IPKSD_SL_EEvT_T0_ENKUlRSC_RSK_E_clESO_SP_, symObjAddr: 0x705C, symBinAddr: 0x1764C, symSize: 0x258 }
  - { offset: 0xB677E, size: 0x8, addend: 0x0, symName: __ZNSt3__110unique_ptrINS_11__tree_nodeINS_12__value_typeINS_12basic_stringIcNS_11char_traitsIcEENS_9allocatorIcEEEE17llm_chat_templateEEPvEENS_22__tree_node_destructorINS6_ISC_EEEEED1B9nqe220106Ev, symObjAddr: 0x6E28, symBinAddr: 0x175EC, symSize: 0x60 }
  - { offset: 0xB796D, size: 0x8, addend: 0x0, symName: __GLOBAL__sub_I_llama_chat.cpp, symObjAddr: 0x7F80, symBinAddr: 0x17908, symSize: 0x938 }
  - { offset: 0xF74EE, size: 0x8, addend: 0x0, symName: __ZNSt3__113__tree_removeB9nqe220106IPNS_16__tree_node_baseIPvEEEEvT_S5_, symObjAddr: 0xE974, symBinAddr: 0x260B8, symSize: 0x420 }
  - { offset: 0xFA7B2, size: 0x8, addend: 0x0, symName: __ZNSt3__112__destroy_atB9nqe220106INS_4pairIKP24ggml_backend_buffer_type19llama_memory_bufferEEEEvPT_, symObjAddr: 0xE244, symBinAddr: 0x25B98, symSize: 0x64 }
  - { offset: 0x103832, size: 0x8, addend: 0x0, symName: __ZN13llama_contextC2ERK11llama_model20llama_context_params, symObjAddr: 0x0, symBinAddr: 0x18240, symSize: 0x1540 }
  - { offset: 0x1061D6, size: 0x8, addend: 0x0, symName: __ZN13llama_context11set_samplerEiP13llama_sampler, symObjAddr: 0x1788, symBinAddr: 0x198E0, symSize: 0x440 }
  - { offset: 0x1061FE, size: 0x8, addend: 0x0, symName: __ZZN13llama_context11set_samplerEiP13llama_samplerE6warned, symObjAddr: 0x2491CC, symBinAddr: 0x4A2138, symSize: 0x0 }
  - { offset: 0x106D9E, size: 0x8, addend: 0x0, symName: __ZTV20llama_io_write_dummy, symObjAddr: 0x14AF0, symBinAddr: 0x3FA400, symSize: 0x0 }
  - { offset: 0x106E91, size: 0x8, addend: 0x0, symName: __ZTV19llama_io_write_host, symObjAddr: 0x14B50, symBinAddr: 0x3FA460, symSize: 0x0 }
  - { offset: 0x1070BF, size: 0x8, addend: 0x0, symName: __ZTV18llama_io_read_host, symObjAddr: 0x14BA0, symBinAddr: 0x3FA4B0, symSize: 0x0 }
  - { offset: 0x1072ED, size: 0x8, addend: 0x0, symName: __ZTV18llama_io_read_file, symObjAddr: 0x14C00, symBinAddr: 0x3FA510, symSize: 0x0 }
  - { offset: 0x10774F, size: 0x8, addend: 0x0, symName: __ZTV19llama_io_write_file, symObjAddr: 0x14C50, symBinAddr: 0x3FA560, symSize: 0x0 }
  - { offset: 0x10784F, size: 0x8, addend: 0x0, symName: __ZTVNSt3__120__shared_ptr_pointerIP18llama_adapter_cvecNS_14default_deleteIS1_EENS_9allocatorIS1_EEEE, symObjAddr: 0x14CA0, symBinAddr: 0x3FA5B0, symSize: 0x0 }
  - { offset: 0x1078A2, size: 0x8, addend: 0x0, symName: '__ZTVNSt3__110__function6__funcIZNK13llama_context12graph_get_cbEvE3$_0FvRK12llama_ubatchP11ggml_tensorPKciEEE', symObjAddr: 0x14CF0, symBinAddr: 0x3FA600, symSize: 0x0 }
  - { offset: 0x1078B0, size: 0x8, addend: 0x0, symName: __ZNK13llama_context12graph_get_cbEv, symObjAddr: 0x8D90, symBinAddr: 0x209C8, symSize: 0x14 }
  - { offset: 0x10790B, size: 0x8, addend: 0x0, symName: __ZNK13llama_context12graph_get_cbEv, symObjAddr: 0x8D90, symBinAddr: 0x209C8, symSize: 0x14 }
  - { offset: 0x10792E, size: 0x8, addend: 0x0, symName: __ZNK13llama_context12graph_get_cbEv, symObjAddr: 0x8D90, symBinAddr: 0x209C8, symSize: 0x14 }
  - { offset: 0x107951, size: 0x8, addend: 0x0, symName: __ZNK13llama_context12graph_get_cbEv, symObjAddr: 0x8D90, symBinAddr: 0x209C8, symSize: 0x14 }
  - { offset: 0x10796D, size: 0x8, addend: 0x0, symName: __ZNK13llama_context12graph_get_cbEv, symObjAddr: 0x8D90, symBinAddr: 0x209C8, symSize: 0x14 }
  - { offset: 0x107988, size: 0x8, addend: 0x0, symName: __ZNK13llama_context12graph_get_cbEv, symObjAddr: 0x8D90, symBinAddr: 0x209C8, symSize: 0x14 }
  - { offset: 0x1079A3, size: 0x8, addend: 0x0, symName: __ZNK13llama_context12graph_get_cbEv, symObjAddr: 0x8D90, symBinAddr: 0x209C8, symSize: 0x14 }
  - { offset: 0x1079EE, size: 0x8, addend: 0x0, symName: __ZTV21llama_io_write_device, symObjAddr: 0x14D80, symBinAddr: 0x3FA690, symSize: 0x0 }
  - { offset: 0x107C3F, size: 0x8, addend: 0x0, symName: __ZTV20llama_io_read_device, symObjAddr: 0x14DD0, symBinAddr: 0x3FA6E0, symSize: 0x0 }
  - { offset: 0x10A5CC, size: 0x8, addend: 0x0, symName: __ZNSt3__16vectorI11buffer_viewIfENS_9allocatorIS2_EEE6resizeEm, symObjAddr: 0x1664, symBinAddr: 0x197BC, symSize: 0x124 }
  - { offset: 0x10A5D7, size: 0x8, addend: 0x0, symName: __ZNSt3__16vectorI11buffer_viewIfENS_9allocatorIS2_EEE6resizeEm, symObjAddr: 0x1664, symBinAddr: 0x197BC, symSize: 0x124 }
  - { offset: 0x10AAAE, size: 0x8, addend: 0x0, symName: __ZN13llama_context11set_samplerEiP13llama_sampler, symObjAddr: 0x1788, symBinAddr: 0x198E0, symSize: 0x440 }
  - { offset: 0x10AB4E, size: 0x8, addend: 0x0, symName: __ZZNSt3__16vectorINS_10unique_ptrI12ggml_backend20ggml_backend_deleterEENS_9allocatorIS4_EEE12emplace_backIJRPS2_EEERS4_DpOT_ENKUlvE0_clEv, symObjAddr: 0xE490, symBinAddr: 0x25C10, symSize: 0xDC }
  - { offset: 0x10AE7C, size: 0x8, addend: 0x0, symName: __ZNSt3__16vectorINS_10unique_ptrI12ggml_backend20ggml_backend_deleterEENS_9allocatorIS4_EEE20__throw_length_errorB9nqe220106Ev, symObjAddr: 0xE56C, symBinAddr: 0x25CEC, symSize: 0x14 }
  - { offset: 0x10AF1E, size: 0x8, addend: 0x0, symName: __ZZNSt3__16vectorINS_4pairIP12ggml_backendPFvS3_iEEENS_9allocatorIS6_EEE12emplace_backIJS3_RS5_EEERS6_DpOT_ENKUlvE0_clEv, symObjAddr: 0xE580, symBinAddr: 0x25D00, symSize: 0xE8 }
  - { offset: 0x10B292, size: 0x8, addend: 0x0, symName: __ZNSt3__16vectorINS_4pairIP12ggml_backendPFvS3_iEEENS_9allocatorIS6_EEE20__throw_length_errorB9nqe220106Ev, symObjAddr: 0xE668, symBinAddr: 0x25DE8, symSize: 0x14 }
  - { offset: 0x10B29D, size: 0x8, addend: 0x0, symName: __ZN13llama_context14output_reserveEi, symObjAddr: 0x1C7C, symBinAddr: 0x19DD4, symSize: 0x4C0 }
  - { offset: 0x10BD2A, size: 0x8, addend: 0x0, symName: __ZZNSt3__16vectorIP24ggml_backend_buffer_typeNS_9allocatorIS2_EEE12emplace_backIJRKS2_EEERS2_DpOT_ENKUlvE0_clEv, symObjAddr: 0xE67C, symBinAddr: 0x25DFC, symSize: 0xDC }
  - { offset: 0x10C030, size: 0x8, addend: 0x0, symName: __ZZNSt3__16vectorIP12ggml_backendNS_9allocatorIS2_EEE12emplace_backIJS2_EEERS2_DpOT_ENKUlvE0_clEv, symObjAddr: 0xE76C, symBinAddr: 0x25ED8, symSize: 0xDC }
  - { offset: 0x10C321, size: 0x8, addend: 0x0, symName: __ZNSt3__16vectorIP12ggml_backendNS_9allocatorIS2_EEE20__throw_length_errorB9nqe220106Ev, symObjAddr: 0xE848, symBinAddr: 0x25FB4, symSize: 0x14 }
  - { offset: 0x10C336, size: 0x8, addend: 0x0, symName: __ZZNSt3__16vectorImNS_9allocatorImEEE12emplace_backIJmEEERmDpOT_ENKUlvE0_clEv, symObjAddr: 0xE85C, symBinAddr: 0x25FC8, symSize: 0xDC }
  - { offset: 0x10C627, size: 0x8, addend: 0x0, symName: __ZNSt3__16vectorImNS_9allocatorImEEE20__throw_length_errorB9nqe220106Ev, symObjAddr: 0xE938, symBinAddr: 0x260A4, symSize: 0x14 }
  - { offset: 0x10C632, size: 0x8, addend: 0x0, symName: __ZN13llama_context13sched_reserveEv, symObjAddr: 0x2148, symBinAddr: 0x1A2A0, symSize: 0xDB8 }
  - { offset: 0x10E481, size: 0x8, addend: 0x0, symName: __ZNSt3__13mapIiNS0_IP24ggml_backend_buffer_type19llama_memory_bufferNS_4lessIS2_EENS_9allocatorINS_4pairIKS2_S3_EEEEEENS4_IiEENS6_INS7_IKiSB_EEEEED1B9nqe220106Ev, symObjAddr: 0x3024, symBinAddr: 0x1B058, symSize: 0x40 }
  - { offset: 0x10E564, size: 0x8, addend: 0x0, symName: __ZNSt3__110unique_ptrI18llama_adapter_cvecNS_14default_deleteIS1_EEED1B9nqe220106Ev, symObjAddr: 0x1540, symBinAddr: 0x19780, symSize: 0x3C }
  - { offset: 0x10E633, size: 0x8, addend: 0x0, symName: __ZNSt3__13mapIiNS0_IP24ggml_backend_buffer_type19llama_memory_bufferNS_4lessIS2_EENS_9allocatorINS_4pairIKS2_S3_EEEEEENS4_IiEENS6_INS7_IKiSB_EEEEED1B9nqe220106Ev, symObjAddr: 0x3024, symBinAddr: 0x1B058, symSize: 0x40 }
  - { offset: 0x10E79B, size: 0x8, addend: 0x0, symName: __ZNSt3__16vectorINS_10unique_ptrI12ggml_backend20ggml_backend_deleterEENS_9allocatorIS4_EEED1B9nqe220106Ev, symObjAddr: 0x3098, symBinAddr: 0x1B098, symSize: 0x70 }
  - { offset: 0x10E96F, size: 0x8, addend: 0x0, symName: __ZNSt3__110unique_ptrI18ggml_backend_sched26ggml_backend_sched_deleterED1B9nqe220106Ev, symObjAddr: 0x3108, symBinAddr: 0x1B108, symSize: 0x34 }
  - { offset: 0x10EA03, size: 0x8, addend: 0x0, symName: __ZNSt3__110unique_ptrI18llama_batch_allocrNS_14default_deleteIS1_EEED1B9nqe220106Ev, symObjAddr: 0x313C, symBinAddr: 0x1B13C, symSize: 0x3C }
  - { offset: 0x10EAC5, size: 0x8, addend: 0x0, symName: __ZNSt3__13mapIiNS_6vectorIfNS_9allocatorIfEEEENS_4lessIiEENS2_INS_4pairIKiS4_EEEEED1B9nqe220106Ev, symObjAddr: 0x3178, symBinAddr: 0x1B178, symSize: 0x40 }
  - { offset: 0x10EBC9, size: 0x8, addend: 0x0, symName: __ZN13llama_context13sampling_infoD1Ev, symObjAddr: 0x31B8, symBinAddr: 0x1B1B8, symSize: 0x80 }
  - { offset: 0x10F140, size: 0x8, addend: 0x0, symName: __ZN11llama_crossD1Ev, symObjAddr: 0x3238, symBinAddr: 0x1B238, symSize: 0x8C }
  - { offset: 0x10F4BD, size: 0x8, addend: 0x0, symName: __ZNSt3__110unique_ptrINS_13unordered_mapIP18llama_adapter_lorafNS_4hashIS3_EENS_8equal_toIS3_EENS_9allocatorINS_4pairIKS3_fEEEEEENS_14default_deleteISD_EEED1B9nqe220106Ev, symObjAddr: 0x32C4, symBinAddr: 0x1B2C4, symSize: 0x64 }
  - { offset: 0x10F7C8, size: 0x8, addend: 0x0, symName: __ZNSt3__110shared_ptrI18llama_adapter_cvecED1B9nqe220106Ev, symObjAddr: 0x3328, symBinAddr: 0x1B328, symSize: 0x64 }
  - { offset: 0x10F8F0, size: 0x8, addend: 0x0, symName: __ZN18llama_adapter_cvecD2Ev, symObjAddr: 0xDFAC, symBinAddr: 0x25900, symSize: 0xC8 }
  - { offset: 0x11062A, size: 0x8, addend: 0x0, symName: __ZNSt3__16vectorI11buffer_viewIfENS_9allocatorIS2_EEE20__throw_length_errorB9nqe220106Ev, symObjAddr: 0xE47C, symBinAddr: 0x25BFC, symSize: 0x14 }
  - { offset: 0x110642, size: 0x8, addend: 0x0, symName: __ZZNSt3__16vectorINS_10unique_ptrI12ggml_backend20ggml_backend_deleterEENS_9allocatorIS4_EEE12emplace_backIJRPS2_EEERS4_DpOT_ENKUlvE0_clEv, symObjAddr: 0xE490, symBinAddr: 0x25C10, symSize: 0xDC }
  - { offset: 0x110F19, size: 0x8, addend: 0x0, symName: _llama_set_abort_callback, symObjAddr: 0x1BC8, symBinAddr: 0x19D20, symSize: 0xB4 }
  - { offset: 0x111333, size: 0x8, addend: 0x0, symName: __ZN13llama_context11synchronizeEv, symObjAddr: 0x3750, symBinAddr: 0x1B740, symSize: 0xE0 }
  - { offset: 0x1113FA, size: 0x8, addend: 0x0, symName: __ZNSt3__16vectorIjNS_9allocatorIjEEE6resizeEm, symObjAddr: 0x8C64, symBinAddr: 0x2089C, symSize: 0x124 }
  - { offset: 0x11187B, size: 0x8, addend: 0x0, symName: __ZNK13llama_context18get_gf_res_reserveEv, symObjAddr: 0x8D88, symBinAddr: 0x209C0, symSize: 0x8 }
  - { offset: 0x1118A0, size: 0x8, addend: 0x0, symName: _llama_get_memory, symObjAddr: 0x213C, symBinAddr: 0x1A294, symSize: 0xC }
  - { offset: 0x111E2F, size: 0x8, addend: 0x0, symName: __ZN13llama_context13sched_reserveEv.cold.1, symObjAddr: 0x10B6C, symBinAddr: 0x363644, symSize: 0xC }
  - { offset: 0x111E47, size: 0x8, addend: 0x0, symName: __ZN13llama_context13graph_reserveEjjjPK22llama_memory_context_ibPm, symObjAddr: 0x38D8, symBinAddr: 0x1B8C8, symSize: 0x424 }
  - { offset: 0x1129B7, size: 0x8, addend: 0x0, symName: __ZNSt3__113__tree_removeB9nqe220106IPNS_16__tree_node_baseIPvEEEEvT_S5_, symObjAddr: 0xE974, symBinAddr: 0x260B8, symSize: 0x420 }
  - { offset: 0x112E7E, size: 0x8, addend: 0x0, symName: __ZNSt3__16__treeINS_12__value_typeIiNS_3mapIP24ggml_backend_buffer_type19llama_memory_bufferNS_4lessIS4_EENS_9allocatorINS_4pairIKS4_S5_EEEEEEEENS_19__map_value_compareIiNS9_IKiSD_EENS6_IiEEEENS8_ISH_EEE14__tree_deleterclB9nqe220106EPNS_11__tree_nodeISE_PvEE, symObjAddr: 0xE184, symBinAddr: 0x25AD8, symSize: 0x6C }
  - { offset: 0x11337F, size: 0x8, addend: 0x0, symName: __ZN18llama_batch_allocrD2Ev, symObjAddr: 0xD330, symBinAddr: 0x24D20, symSize: 0x188 }
  - { offset: 0x114615, size: 0x8, addend: 0x0, symName: __ZNSt3__16__treeINS_12__value_typeIiNS_6vectorIfNS_9allocatorIfEEEEEENS_19__map_value_compareIiNS_4pairIKiS5_EENS_4lessIiEEEENS3_ISA_EEE14__tree_deleterclB9nqe220106EPNS_11__tree_nodeIS6_PvEE, symObjAddr: 0xE120, symBinAddr: 0x25A74, symSize: 0x64 }
  - { offset: 0x114A3C, size: 0x8, addend: 0x0, symName: __ZNSt3__16__treeINS_12__value_typeIiP13llama_samplerEENS_19__map_value_compareIiNS_4pairIKiS3_EENS_4lessIiEEEENS_9allocatorIS8_EEE14__tree_deleterclB9nqe220106EPNS_11__tree_nodeIS4_PvEE, symObjAddr: 0xD654, symBinAddr: 0x24FBC, symSize: 0x4C }
  - { offset: 0x115259, size: 0x8, addend: 0x0, symName: __ZN13llama_contextC1ERK11llama_model20llama_context_params, symObjAddr: 0x338C, symBinAddr: 0x1B38C, symSize: 0x4 }
  - { offset: 0x11528B, size: 0x8, addend: 0x0, symName: __ZN13llama_contextC1ERK11llama_model20llama_context_params, symObjAddr: 0x338C, symBinAddr: 0x1B38C, symSize: 0x4 }
  - { offset: 0x11541F, size: 0x8, addend: 0x0, symName: __ZN13llama_contextD2Ev, symObjAddr: 0x3390, symBinAddr: 0x1B390, symSize: 0x3AC }
  - { offset: 0x117285, size: 0x8, addend: 0x0, symName: __ZN13llama_contextD1Ev, symObjAddr: 0x374C, symBinAddr: 0x1B73C, symSize: 0x4 }
  - { offset: 0x1172A8, size: 0x8, addend: 0x0, symName: __ZN13llama_contextD1Ev, symObjAddr: 0x374C, symBinAddr: 0x1B73C, symSize: 0x4 }
  - { offset: 0x1172E0, size: 0x8, addend: 0x0, symName: __ZNK13llama_context15graph_max_nodesEj, symObjAddr: 0x3830, symBinAddr: 0x1B820, symSize: 0xA8 }
  - { offset: 0x1175F9, size: 0x8, addend: 0x0, symName: __ZNK13llama_context12graph_paramsEP16llm_graph_resultRK12llama_ubatchPK22llama_memory_context_i14llm_graph_type, symObjAddr: 0x5D50, symBinAddr: 0x1DD40, symSize: 0x21C }
  - { offset: 0x117DA6, size: 0x8, addend: 0x0, symName: __ZN16llm_graph_paramsD1Ev, symObjAddr: 0x6050, symBinAddr: 0x1E040, symSize: 0xB8 }
  - { offset: 0x11817A, size: 0x8, addend: 0x0, symName: __ZNK13llama_context9get_modelEv, symObjAddr: 0x3CFC, symBinAddr: 0x1BCEC, symSize: 0x8 }
  - { offset: 0x11819C, size: 0x8, addend: 0x0, symName: __ZNK13llama_context11get_cparamsEv, symObjAddr: 0x3D04, symBinAddr: 0x1BCF4, symSize: 0x8 }
  - { offset: 0x1181C6, size: 0x8, addend: 0x0, symName: __ZNK13llama_context9get_schedEv, symObjAddr: 0x3D0C, symBinAddr: 0x1BCFC, symSize: 0x8 }
  - { offset: 0x1181F2, size: 0x8, addend: 0x0, symName: __ZNK13llama_context9get_schedEv, symObjAddr: 0x3D0C, symBinAddr: 0x1BCFC, symSize: 0x8 }
  - { offset: 0x118210, size: 0x8, addend: 0x0, symName: __ZNK13llama_context5n_ctxEv, symObjAddr: 0x3D14, symBinAddr: 0x1BD04, symSize: 0x8 }
  - { offset: 0x118232, size: 0x8, addend: 0x0, symName: __ZNK13llama_context9n_ctx_seqEv, symObjAddr: 0x3D1C, symBinAddr: 0x1BD0C, symSize: 0x8 }
  - { offset: 0x118254, size: 0x8, addend: 0x0, symName: __ZNK13llama_context7n_batchEv, symObjAddr: 0x3D24, symBinAddr: 0x1BD14, symSize: 0x8 }
  - { offset: 0x118276, size: 0x8, addend: 0x0, symName: __ZNK13llama_context8n_ubatchEv, symObjAddr: 0x3D2C, symBinAddr: 0x1BD1C, symSize: 0x8 }
  - { offset: 0x118298, size: 0x8, addend: 0x0, symName: __ZNK13llama_context9n_seq_maxEv, symObjAddr: 0x3D34, symBinAddr: 0x1BD24, symSize: 0x8 }
  - { offset: 0x1182BA, size: 0x8, addend: 0x0, symName: __ZNK13llama_context9n_threadsEv, symObjAddr: 0x3D3C, symBinAddr: 0x1BD2C, symSize: 0x8 }
  - { offset: 0x1182DC, size: 0x8, addend: 0x0, symName: __ZNK13llama_context15n_threads_batchEv, symObjAddr: 0x3D44, symBinAddr: 0x1BD34, symSize: 0x8 }
  - { offset: 0x1182FE, size: 0x8, addend: 0x0, symName: __ZNK13llama_context10get_memoryEv, symObjAddr: 0x3D4C, symBinAddr: 0x1BD3C, symSize: 0x8 }
  - { offset: 0x118322, size: 0x8, addend: 0x0, symName: __ZNK13llama_context10get_memoryEv, symObjAddr: 0x3D4C, symBinAddr: 0x1BD3C, symSize: 0x8 }
  - { offset: 0x118371, size: 0x8, addend: 0x0, symName: __ZN13llama_context13memory_updateEb, symObjAddr: 0x3D54, symBinAddr: 0x1BD44, symSize: 0x1FC }
  - { offset: 0x1187CA, size: 0x8, addend: 0x0, symName: __ZNK13llama_context12pooling_typeEv, symObjAddr: 0x3F50, symBinAddr: 0x1BF40, symSize: 0x8 }
  - { offset: 0x1187EC, size: 0x8, addend: 0x0, symName: __ZN13llama_context10get_logitsEv, symObjAddr: 0x3F58, symBinAddr: 0x1BF48, symSize: 0x24 }
  - { offset: 0x118823, size: 0x8, addend: 0x0, symName: __ZN13llama_context14output_reorderEv, symObjAddr: 0x3F7C, symBinAddr: 0x1BF6C, symSize: 0x688 }
  - { offset: 0x118C0C, size: 0x8, addend: 0x0, symName: __ZNK13llama_context18output_resolve_rowEi, symObjAddr: 0x4604, symBinAddr: 0x1C5F4, symSize: 0x1DC }
  - { offset: 0x118EDD, size: 0x8, addend: 0x0, symName: __ZN13llama_context14get_logits_ithEi, symObjAddr: 0x47E0, symBinAddr: 0x1C7D0, symSize: 0x128 }
  - { offset: 0x118F8B, size: 0x8, addend: 0x0, symName: __ZN13llama_context14get_embeddingsEv, symObjAddr: 0x4908, symBinAddr: 0x1C8F8, symSize: 0x24 }
  - { offset: 0x118FC2, size: 0x8, addend: 0x0, symName: __ZNK13llama_context18get_sampled_tokensEv, symObjAddr: 0x492C, symBinAddr: 0x1C91C, symSize: 0x8 }
  - { offset: 0x118FEC, size: 0x8, addend: 0x0, symName: __ZN13llama_context18get_embeddings_ithEi, symObjAddr: 0x4934, symBinAddr: 0x1C924, symSize: 0x128 }
  - { offset: 0x1191E1, size: 0x8, addend: 0x0, symName: __ZN13llama_context18get_embeddings_seqEi, symObjAddr: 0x4A5C, symBinAddr: 0x1CA4C, symSize: 0x4C }
  - { offset: 0x119215, size: 0x8, addend: 0x0, symName: __ZN13llama_context18get_embeddings_seqEi, symObjAddr: 0x4A5C, symBinAddr: 0x1CA4C, symSize: 0x4C }
  - { offset: 0x119234, size: 0x8, addend: 0x0, symName: __ZN13llama_context18get_embeddings_seqEi, symObjAddr: 0x4A5C, symBinAddr: 0x1CA4C, symSize: 0x4C }
  - { offset: 0x119253, size: 0x8, addend: 0x0, symName: __ZN13llama_context18get_embeddings_seqEi, symObjAddr: 0x4A5C, symBinAddr: 0x1CA4C, symSize: 0x4C }
  - { offset: 0x11927B, size: 0x8, addend: 0x0, symName: __ZN13llama_context18get_embeddings_seqEi, symObjAddr: 0x4A5C, symBinAddr: 0x1CA4C, symSize: 0x4C }
  - { offset: 0x1192F9, size: 0x8, addend: 0x0, symName: __ZN13llama_context20get_embeddings_nextnEv, symObjAddr: 0x4AA8, symBinAddr: 0x1CA98, symSize: 0x24 }
  - { offset: 0x119330, size: 0x8, addend: 0x0, symName: __ZN13llama_context24get_embeddings_nextn_ithEi, symObjAddr: 0x4ACC, symBinAddr: 0x1CABC, symSize: 0x1EC }
  - { offset: 0x11950A, size: 0x8, addend: 0x0, symName: __ZN13llama_context24get_embeddings_layer_inpEj, symObjAddr: 0x4CB8, symBinAddr: 0x1CCA8, symSize: 0x78 }
  - { offset: 0x1195A6, size: 0x8, addend: 0x0, symName: __ZN13llama_context21get_sampled_token_ithEi, symObjAddr: 0x4D30, symBinAddr: 0x1CD20, symSize: 0x104 }
  - { offset: 0x1195D4, size: 0x8, addend: 0x0, symName: __ZN13llama_context21get_sampled_token_ithEi, symObjAddr: 0x4D30, symBinAddr: 0x1CD20, symSize: 0x104 }
  - { offset: 0x1196B7, size: 0x8, addend: 0x0, symName: __ZN13llama_context21get_sampled_probs_ithEi, symObjAddr: 0x4E34, symBinAddr: 0x1CE24, symSize: 0xFC }
  - { offset: 0x1197A5, size: 0x8, addend: 0x0, symName: __ZN13llama_context22get_sampled_logits_ithEi, symObjAddr: 0x4F30, symBinAddr: 0x1CF20, symSize: 0xFC }
  - { offset: 0x1198A9, size: 0x8, addend: 0x0, symName: __ZN13llama_context26get_sampled_candidates_ithEi, symObjAddr: 0x502C, symBinAddr: 0x1D01C, symSize: 0xA8 }
  - { offset: 0x119994, size: 0x8, addend: 0x0, symName: __ZN13llama_context28get_sampled_candidates_countEi, symObjAddr: 0x50D4, symBinAddr: 0x1D0C4, symSize: 0xDC }
  - { offset: 0x119A82, size: 0x8, addend: 0x0, symName: __ZN13llama_context24get_sampled_logits_countEi, symObjAddr: 0x51B0, symBinAddr: 0x1D1A0, symSize: 0x10C }
  - { offset: 0x119B70, size: 0x8, addend: 0x0, symName: __ZN13llama_context23get_sampled_probs_countEi, symObjAddr: 0x52BC, symBinAddr: 0x1D2AC, symSize: 0xDC }
  - { offset: 0x119C5E, size: 0x8, addend: 0x0, symName: __ZN13llama_context17attach_threadpoolEP15ggml_threadpoolS1_, symObjAddr: 0x5398, symBinAddr: 0x1D388, symSize: 0x60 }
  - { offset: 0x119CA5, size: 0x8, addend: 0x0, symName: __ZN13llama_context17detach_threadpoolEv, symObjAddr: 0x53F8, symBinAddr: 0x1D3E8, symSize: 0x4C }
  - { offset: 0x119CDA, size: 0x8, addend: 0x0, symName: __ZN13llama_context13set_n_threadsEii, symObjAddr: 0x5444, symBinAddr: 0x1D434, symSize: 0x58 }
  - { offset: 0x119D21, size: 0x8, addend: 0x0, symName: __ZN13llama_context18set_abort_callbackEPFbPvES0_, symObjAddr: 0x549C, symBinAddr: 0x1D48C, symSize: 0xB4 }
  - { offset: 0x119EB6, size: 0x8, addend: 0x0, symName: __ZN13llama_context14set_embeddingsEb, symObjAddr: 0x5550, symBinAddr: 0x1D540, symSize: 0x48 }
  - { offset: 0x119EF1, size: 0x8, addend: 0x0, symName: __ZN13llama_context20set_embeddings_nextnEbb, symObjAddr: 0x5598, symBinAddr: 0x1D588, symSize: 0x5C }
  - { offset: 0x119F58, size: 0x8, addend: 0x0, symName: __ZN13llama_context24set_embeddings_layer_inpEjb, symObjAddr: 0x55F4, symBinAddr: 0x1D5E4, symSize: 0xC4 }
  - { offset: 0x11A011, size: 0x8, addend: 0x0, symName: __ZN13llama_context22set_nextn_layer_offsetEi, symObjAddr: 0x56B8, symBinAddr: 0x1D6A8, symSize: 0x8 }
  - { offset: 0x11A024, size: 0x8, addend: 0x0, symName: __ZN13llama_context22set_nextn_layer_offsetEi, symObjAddr: 0x56B8, symBinAddr: 0x1D6A8, symSize: 0x8 }
  - { offset: 0x11A04B, size: 0x8, addend: 0x0, symName: __ZN13llama_context15set_causal_attnEb, symObjAddr: 0x56C0, symBinAddr: 0x1D6B0, symSize: 0x64 }
  - { offset: 0x11A089, size: 0x8, addend: 0x0, symName: __ZN13llama_context10set_warmupEb, symObjAddr: 0x5724, symBinAddr: 0x1D714, symSize: 0x54 }
  - { offset: 0x11A2CA, size: 0x8, addend: 0x0, symName: __ZN13llama_context17set_adapters_loraEPP18llama_adapter_loramPf, symObjAddr: 0x5778, symBinAddr: 0x1D768, symSize: 0x18C }
  - { offset: 0x11A936, size: 0x8, addend: 0x0, symName: __ZNSt3__112__hash_tableINS_17__hash_value_typeIP18llama_adapter_lorafEENS_22__unordered_map_hasherIS3_NS_4pairIKS3_fEENS_4hashIS3_EENS_8equal_toIS3_EEEENS_21__unordered_map_equalIS3_S8_SC_SA_EENS_9allocatorIS8_EEE4findIS3_EENS_15__hash_iteratorIPNS_11__hash_nodeIS4_PvEEEERKT_, symObjAddr: 0xF248, symBinAddr: 0x2698C, symSize: 0x120 }
  - { offset: 0x11A97D, size: 0x8, addend: 0x0, symName: __ZNSt3__112__hash_tableINS_17__hash_value_typeIP18llama_adapter_lorafEENS_22__unordered_map_hasherIS3_NS_4pairIKS3_fEENS_4hashIS3_EENS_8equal_toIS3_EEEENS_21__unordered_map_equalIS3_S8_SC_SA_EENS_9allocatorIS8_EEE4findIS3_EENS_15__hash_iteratorIPNS_11__hash_nodeIS4_PvEEEERKT_, symObjAddr: 0xF248, symBinAddr: 0x2698C, symSize: 0x120 }
  - { offset: 0x11A999, size: 0x8, addend: 0x0, symName: __ZNSt3__112__hash_tableINS_17__hash_value_typeIP18llama_adapter_lorafEENS_22__unordered_map_hasherIS3_NS_4pairIKS3_fEENS_4hashIS3_EENS_8equal_toIS3_EEEENS_21__unordered_map_equalIS3_S8_SC_SA_EENS_9allocatorIS8_EEE4findIS3_EENS_15__hash_iteratorIPNS_11__hash_nodeIS4_PvEEEERKT_, symObjAddr: 0xF248, symBinAddr: 0x2698C, symSize: 0x120 }
  - { offset: 0x11ABE5, size: 0x8, addend: 0x0, symName: __ZZNSt3__112__hash_tableINS_17__hash_value_typeIP18llama_adapter_lorafEENS_22__unordered_map_hasherIS3_NS_4pairIKS3_fEENS_4hashIS3_EENS_8equal_toIS3_EEEENS_21__unordered_map_equalIS3_S8_SC_SA_EENS_9allocatorIS8_EEE16__emplace_uniqueB9nqe220106IJS8_EEENS6_INS_15__hash_iteratorIPNS_11__hash_nodeIS4_PvEEEEbEEDpOT_ENKUlRS7_OS8_E_clESU_SV_, symObjAddr: 0xED94, symBinAddr: 0x264D8, symSize: 0x334 }
  - { offset: 0x11B336, size: 0x8, addend: 0x0, symName: __ZN13llama_context22adapters_lora_are_sameEPP18llama_adapter_loramPf, symObjAddr: 0x5904, symBinAddr: 0x1D8F4, symSize: 0xD4 }
  - { offset: 0x11B48C, size: 0x8, addend: 0x0, symName: __ZN13llama_context16set_adapter_cvecEPKfmiii, symObjAddr: 0x59D8, symBinAddr: 0x1D9C8, symSize: 0x98 }
  - { offset: 0x11B52D, size: 0x8, addend: 0x0, symName: __ZN13llama_context14process_ubatchERK12llama_ubatch14llm_graph_typeP22llama_memory_context_iR11ggml_status, symObjAddr: 0x5A70, symBinAddr: 0x1DA60, symSize: 0x2E0 }
  - { offset: 0x11BB8B, size: 0x8, addend: 0x0, symName: __ZN13llama_context13graph_computeEP11ggml_cgraphb, symObjAddr: 0x5F6C, symBinAddr: 0x1DF5C, symSize: 0xE4 }
  - { offset: 0x11C10C, size: 0x8, addend: 0x0, symName: __ZNSt3__16__treeINS_12__value_typeIiP13llama_samplerEENS_19__map_value_compareIiNS_4pairIKiS3_EENS_4lessIiEEEENS_9allocatorIS8_EEE21__construct_from_treeB9nqe220106IZNSE_21__copy_construct_treeB9nqe220106EPNS_11__tree_nodeIS4_PvEEEUlRKS8_E_EESJ_SJ_T_, symObjAddr: 0xD540, symBinAddr: 0x24EA8, symSize: 0xDC }
  - { offset: 0x11CF26, size: 0x8, addend: 0x0, symName: __ZN13llama_context6encodeERK11llama_batch, symObjAddr: 0x6108, symBinAddr: 0x1E0F8, symSize: 0xB3C }
  - { offset: 0x11FCF1, size: 0x8, addend: 0x0, symName: __ZNSt3__16__treeINS_12__value_typeIijEENS_19__map_value_compareIiNS_4pairIKijEENS_4lessIiEEEENS_9allocatorIS6_EEE14__tree_deleterclB9nqe220106EPNS_11__tree_nodeIS2_PvEE, symObjAddr: 0xF390, symBinAddr: 0x26AAC, symSize: 0x4C }
  - { offset: 0x120A9F, size: 0x8, addend: 0x0, symName: __ZN13llama_context6decodeERK11llama_batch, symObjAddr: 0x6FFC, symBinAddr: 0x1EC34, symSize: 0x17DC }
  - { offset: 0x123ABE, size: 0x8, addend: 0x0, symName: __ZN13llama_context20extract_layer_inputsEPK16llm_graph_resultmm, symObjAddr: 0x87D8, symBinAddr: 0x20410, symSize: 0x234 }
  - { offset: 0x123D8C, size: 0x8, addend: 0x0, symName: __ZL24copy_tensor_async_floatsRKNSt3__13mapIiP11ggml_tensorNS_4lessIiEENS_9allocatorINS_4pairIKiS2_EEEEEERK11buffer_viewIfEmRNS_6vectorIjNS5_IjEEEERKNS0_IijS4_NS5_INS6_IS7_jEEEEEEP18ggml_backend_sched, symObjAddr: 0x8A0C, symBinAddr: 0x20644, symSize: 0x1B0 }
  - { offset: 0x123DB2, size: 0x8, addend: 0x0, symName: __ZL24copy_tensor_async_floatsRKNSt3__13mapIiP11ggml_tensorNS_4lessIiEENS_9allocatorINS_4pairIKiS2_EEEEEERK11buffer_viewIfEmRNS_6vectorIjNS5_IjEEEERKNS0_IijS4_NS5_INS6_IS7_jEEEEEEP18ggml_backend_sched, symObjAddr: 0x8A0C, symBinAddr: 0x20644, symSize: 0x1B0 }
  - { offset: 0x124126, size: 0x8, addend: 0x0, symName: __ZNSt3__13mapIijNS_4lessIiEENS_9allocatorINS_4pairIKijEEEEED1B9nqe220106Ev, symObjAddr: 0x8BBC, symBinAddr: 0x207F4, symSize: 0x40 }
  - { offset: 0x12414C, size: 0x8, addend: 0x0, symName: __ZNSt3__16__treeINS_12__value_typeIijEENS_19__map_value_compareIiNS_4pairIKijEENS_4lessIiEEEENS_9allocatorIS6_EEE14__tree_deleterclB9nqe220106EPNS_11__tree_nodeIS2_PvEE, symObjAddr: 0xF390, symBinAddr: 0x26AAC, symSize: 0x4C }
  - { offset: 0x124225, size: 0x8, addend: 0x0, symName: __ZNSt3__16vectorIN13llama_context9swap_infoENS_9allocatorIS2_EEE9push_backB9nqe220106EOS2_, symObjAddr: 0x8BFC, symBinAddr: 0x20834, symSize: 0x68 }
  - { offset: 0x12434D, size: 0x8, addend: 0x0, symName: __ZNSt3__13mapIijNS_4lessIiEENS_9allocatorINS_4pairIKijEEEEED1B9nqe220106Ev, symObjAddr: 0x8BBC, symBinAddr: 0x207F4, symSize: 0x40 }
  - { offset: 0x12466A, size: 0x8, addend: 0x0, symName: __ZZNSt3__16vectorIN13llama_context9swap_infoENS_9allocatorIS2_EEE12emplace_backIJS2_EEERS2_DpOT_ENKUlvE0_clEv, symObjAddr: 0xF3DC, symBinAddr: 0x26AF8, symSize: 0xDC }
  - { offset: 0x12495B, size: 0x8, addend: 0x0, symName: __ZNSt3__16vectorIN13llama_context9swap_infoENS_9allocatorIS2_EEE20__throw_length_errorB9nqe220106Ev, symObjAddr: 0xF4B8, symBinAddr: 0x26BD4, symSize: 0x14 }
  - { offset: 0x124D24, size: 0x8, addend: 0x0, symName: __ZNSt3__16vectorIjNS_9allocatorIjEEE20__throw_length_errorB9nqe220106Ev, symObjAddr: 0xF4CC, symBinAddr: 0x26BE8, symSize: 0x14 }
  - { offset: 0x124D3C, size: 0x8, addend: 0x0, symName: '__ZNSt3__110__function6__funcIZNK13llama_context12graph_get_cbEvE3$_0FvRK12llama_ubatchP11ggml_tensorPKciEED1Ev', symObjAddr: 0xF4E0, symBinAddr: 0x26BFC, symSize: 0x4 }
  - { offset: 0x124D47, size: 0x8, addend: 0x0, symName: __ZNK13llama_context18get_gf_res_reserveEv, symObjAddr: 0x8D88, symBinAddr: 0x209C0, symSize: 0x8 }
  - { offset: 0x124D73, size: 0x8, addend: 0x0, symName: __ZNK13llama_context18get_gf_res_reserveEv, symObjAddr: 0x8D88, symBinAddr: 0x209C0, symSize: 0x8 }
  - { offset: 0x124DE2, size: 0x8, addend: 0x0, symName: __ZN13llama_context14state_get_sizeEv, symObjAddr: 0x8DA4, symBinAddr: 0x209DC, symSize: 0xA8 }
  - { offset: 0x124EB3, size: 0x8, addend: 0x0, symName: __ZN13llama_context16state_write_dataER16llama_io_write_i, symObjAddr: 0x8E4C, symBinAddr: 0x20A84, symSize: 0x170 }
  - { offset: 0x1254C3, size: 0x8, addend: 0x0, symName: __ZN20llama_io_write_dummyD1Ev, symObjAddr: 0x8FBC, symBinAddr: 0x20BF4, symSize: 0x4 }
  - { offset: 0x125736, size: 0x8, addend: 0x0, symName: __ZN13llama_context14state_get_dataEPhm, symObjAddr: 0x8FC0, symBinAddr: 0x20BF8, symSize: 0x11C }
  - { offset: 0x125A6E, size: 0x8, addend: 0x0, symName: __ZN19llama_io_write_hostD1Ev, symObjAddr: 0x90DC, symBinAddr: 0x20D14, symSize: 0x74 }
  - { offset: 0x125E70, size: 0x8, addend: 0x0, symName: __ZN13llama_context14state_set_dataEPKhm, symObjAddr: 0x9150, symBinAddr: 0x20D88, symSize: 0x11C }
  - { offset: 0x12618B, size: 0x8, addend: 0x0, symName: __ZN13llama_context15state_read_dataER15llama_io_read_i, symObjAddr: 0x926C, symBinAddr: 0x20EA4, symSize: 0x29C }
  - { offset: 0x126BBF, size: 0x8, addend: 0x0, symName: __ZN18llama_io_read_hostD1Ev, symObjAddr: 0x9508, symBinAddr: 0x21140, symSize: 0x74 }
  - { offset: 0x126EB7, size: 0x8, addend: 0x0, symName: __ZN13llama_context18state_seq_get_sizeEij, symObjAddr: 0x957C, symBinAddr: 0x211B4, symSize: 0xD8 }
  - { offset: 0x127032, size: 0x8, addend: 0x0, symName: __ZN20llama_io_write_dummy5writeEPKvm, symObjAddr: 0x9654, symBinAddr: 0x2128C, symSize: 0x10 }
  - { offset: 0x127060, size: 0x8, addend: 0x0, symName: __ZN13llama_context20state_seq_write_dataER16llama_io_write_iij, symObjAddr: 0x9664, symBinAddr: 0x2129C, symSize: 0x40 }
  - { offset: 0x1278E1, size: 0x8, addend: 0x0, symName: __ZN13llama_context18state_seq_get_dataEiPhmj, symObjAddr: 0x96A4, symBinAddr: 0x212DC, symSize: 0x250 }
  - { offset: 0x12834D, size: 0x8, addend: 0x0, symName: __ZN13llama_context18state_seq_set_dataEiPKhmj, symObjAddr: 0x98F4, symBinAddr: 0x2152C, symSize: 0x41C }
  - { offset: 0x128C1D, size: 0x8, addend: 0x0, symName: __ZN13llama_context19state_seq_read_dataER15llama_io_read_iij, symObjAddr: 0x9D10, symBinAddr: 0x21948, symSize: 0x40 }
  - { offset: 0x128E6E, size: 0x8, addend: 0x0, symName: __ZN13llama_context15state_load_fileEPKcPimPm, symObjAddr: 0x9D50, symBinAddr: 0x21988, symSize: 0x1D0 }
  - { offset: 0x1292F5, size: 0x8, addend: 0x0, symName: __ZN18llama_io_read_fileD1Ev, symObjAddr: 0x9F20, symBinAddr: 0x21B58, symSize: 0x44 }
  - { offset: 0x129319, size: 0x8, addend: 0x0, symName: __ZN18llama_io_read_fileD1Ev, symObjAddr: 0x9F20, symBinAddr: 0x21B58, symSize: 0x44 }
  - { offset: 0x1294D5, size: 0x8, addend: 0x0, symName: __ZN13llama_context15state_save_fileEPKcPKim, symObjAddr: 0x9F64, symBinAddr: 0x21B9C, symSize: 0x104 }
  - { offset: 0x1298A2, size: 0x8, addend: 0x0, symName: __ZN19llama_io_write_fileD1Ev, symObjAddr: 0xA068, symBinAddr: 0x21CA0, symSize: 0x44 }
  - { offset: 0x1298C6, size: 0x8, addend: 0x0, symName: __ZN19llama_io_write_fileD1Ev, symObjAddr: 0xA068, symBinAddr: 0x21CA0, symSize: 0x44 }
  - { offset: 0x1299EF, size: 0x8, addend: 0x0, symName: __ZN13llama_context19state_seq_load_fileEiPKcPimPm, symObjAddr: 0xA0AC, symBinAddr: 0x21CE4, symSize: 0x278 }
  - { offset: 0x129F09, size: 0x8, addend: 0x0, symName: __ZN13llama_context19state_seq_save_fileEiPKcPKim, symObjAddr: 0xA324, symBinAddr: 0x21F5C, symSize: 0x198 }
  - { offset: 0x12A395, size: 0x8, addend: 0x0, symName: __ZN19llama_io_write_file7n_bytesEv, symObjAddr: 0xA4BC, symBinAddr: 0x220F4, symSize: 0x8 }
  - { offset: 0x12A3B7, size: 0x8, addend: 0x0, symName: __ZNK13llama_context13perf_get_dataEv, symObjAddr: 0xA4C4, symBinAddr: 0x220FC, symSize: 0x50 }
  - { offset: 0x12A49C, size: 0x8, addend: 0x0, symName: __ZN13llama_context10perf_resetEv, symObjAddr: 0xA514, symBinAddr: 0x2214C, symSize: 0x34 }
  - { offset: 0x12ADEE, size: 0x8, addend: 0x0, symName: __ZNK13llama_context16memory_breakdownEv, symObjAddr: 0xA548, symBinAddr: 0x22180, symSize: 0x4F8 }
  - { offset: 0x12C3C0, size: 0x8, addend: 0x0, symName: __ZNSt3__16__treeINS_12__value_typeIP24ggml_backend_buffer_typemEENS_19__map_value_compareIS3_NS_4pairIKS3_mEENS_4lessIS3_EEEENS_9allocatorIS8_EEE14__tree_deleterclB9nqe220106EPNS_11__tree_nodeIS4_PvEE, symObjAddr: 0x10B20, symBinAddr: 0x280D8, symSize: 0x4C }
  - { offset: 0x12C4B1, size: 0x8, addend: 0x0, symName: __ZNSt3__13mapIP24ggml_backend_buffer_type27llama_memory_breakdown_dataNS_4lessIS2_EENS_9allocatorINS_4pairIKS2_S3_EEEEED1B9nqe220106Ev, symObjAddr: 0xAA80, symBinAddr: 0x226B8, symSize: 0x40 }
  - { offset: 0x12C5C2, size: 0x8, addend: 0x0, symName: __ZNSt3__13mapIP24ggml_backend_buffer_typemNS_4lessIS2_EENS_9allocatorINS_4pairIKS2_mEEEEED1B9nqe220106Ev, symObjAddr: 0xAA40, symBinAddr: 0x22678, symSize: 0x40 }
  - { offset: 0x12C793, size: 0x8, addend: 0x0, symName: __ZNSt3__16__treeINS_12__value_typeIP24ggml_backend_buffer_type27llama_memory_breakdown_dataEENS_19__map_value_compareIS3_NS_4pairIKS3_S4_EENS_4lessIS3_EEEENS_9allocatorIS9_EEE14__tree_deleterclB9nqe220106EPNS_11__tree_nodeIS5_PvEE, symObjAddr: 0x10AD4, symBinAddr: 0x2808C, symSize: 0x4C }
  - { offset: 0x12C91D, size: 0x8, addend: 0x0, symName: __ZN13llama_context8opt_initEP11llama_model16llama_opt_params, symObjAddr: 0xAAC0, symBinAddr: 0x226F8, symSize: 0x638 }
  - { offset: 0x12D2D9, size: 0x8, addend: 0x0, symName: __ZN13llama_context14opt_epoch_iterEP16ggml_opt_datasetP15ggml_opt_resultRKNSt3__16vectorIiNS4_9allocatorIiEEEESA_R11llama_batchPFvbP16ggml_opt_contextS1_S3_xxxEbxxx, symObjAddr: 0xB0F8, symBinAddr: 0x22D30, symSize: 0x6F0 }
  - { offset: 0x12D40B, size: 0x8, addend: 0x0, symName: __ZN13llama_context14opt_epoch_iterEP16ggml_opt_datasetP15ggml_opt_resultRKNSt3__16vectorIiNS4_9allocatorIiEEEESA_R11llama_batchPFvbP16ggml_opt_contextS1_S3_xxxEbxxx, symObjAddr: 0xB0F8, symBinAddr: 0x22D30, symSize: 0x6F0 }
  - { offset: 0x12E235, size: 0x8, addend: 0x0, symName: __ZN13llama_context9opt_epochEP16ggml_opt_datasetP15ggml_opt_resultS3_xPFvbP16ggml_opt_contextS1_S3_xxxES7_, symObjAddr: 0xB7E8, symBinAddr: 0x23420, symSize: 0x2E8 }
  - { offset: 0x12ED64, size: 0x8, addend: 0x0, symName: _llama_context_default_params, symObjAddr: 0xBAD0, symBinAddr: 0x23708, symSize: 0x34 }
  - { offset: 0x12EDC2, size: 0x8, addend: 0x0, symName: _llama_init_from_model, symObjAddr: 0xBB04, symBinAddr: 0x2373C, symSize: 0x3CC }
  - { offset: 0x12EFAE, size: 0x8, addend: 0x0, symName: _llama_new_context_with_model, symObjAddr: 0xBED0, symBinAddr: 0x23B08, symSize: 0x48 }
  - { offset: 0x12F026, size: 0x8, addend: 0x0, symName: _llama_free, symObjAddr: 0xBF18, symBinAddr: 0x23B50, symSize: 0x1C }
  - { offset: 0x12F077, size: 0x8, addend: 0x0, symName: _llama_n_ctx, symObjAddr: 0xBF34, symBinAddr: 0x23B6C, symSize: 0x8 }
  - { offset: 0x12F0A5, size: 0x8, addend: 0x0, symName: _llama_n_ctx, symObjAddr: 0xBF34, symBinAddr: 0x23B6C, symSize: 0x8 }
  - { offset: 0x12F0D9, size: 0x8, addend: 0x0, symName: _llama_n_ctx_seq, symObjAddr: 0xBF3C, symBinAddr: 0x23B74, symSize: 0x8 }
  - { offset: 0x12F107, size: 0x8, addend: 0x0, symName: _llama_n_ctx_seq, symObjAddr: 0xBF3C, symBinAddr: 0x23B74, symSize: 0x8 }
  - { offset: 0x12F122, size: 0x8, addend: 0x0, symName: _llama_n_batch, symObjAddr: 0xBF44, symBinAddr: 0x23B7C, symSize: 0x8 }
  - { offset: 0x12F150, size: 0x8, addend: 0x0, symName: _llama_n_batch, symObjAddr: 0xBF44, symBinAddr: 0x23B7C, symSize: 0x8 }
  - { offset: 0x12F184, size: 0x8, addend: 0x0, symName: _llama_n_ubatch, symObjAddr: 0xBF4C, symBinAddr: 0x23B84, symSize: 0x8 }
  - { offset: 0x12F1B2, size: 0x8, addend: 0x0, symName: _llama_n_ubatch, symObjAddr: 0xBF4C, symBinAddr: 0x23B84, symSize: 0x8 }
  - { offset: 0x12F1CD, size: 0x8, addend: 0x0, symName: _llama_n_seq_max, symObjAddr: 0xBF54, symBinAddr: 0x23B8C, symSize: 0x8 }
  - { offset: 0x12F1FB, size: 0x8, addend: 0x0, symName: _llama_n_seq_max, symObjAddr: 0xBF54, symBinAddr: 0x23B8C, symSize: 0x8 }
  - { offset: 0x12F216, size: 0x8, addend: 0x0, symName: _llama_n_rs_seq, symObjAddr: 0xBF5C, symBinAddr: 0x23B94, symSize: 0x8 }
  - { offset: 0x12F25B, size: 0x8, addend: 0x0, symName: _llama_get_model, symObjAddr: 0xBF64, symBinAddr: 0x23B9C, symSize: 0x8 }
  - { offset: 0x12F289, size: 0x8, addend: 0x0, symName: _llama_get_model, symObjAddr: 0xBF64, symBinAddr: 0x23B9C, symSize: 0x8 }
  - { offset: 0x12F2BD, size: 0x8, addend: 0x0, symName: _llama_pooling_type, symObjAddr: 0xBF6C, symBinAddr: 0x23BA4, symSize: 0x8 }
  - { offset: 0x12F2EB, size: 0x8, addend: 0x0, symName: _llama_pooling_type, symObjAddr: 0xBF6C, symBinAddr: 0x23BA4, symSize: 0x8 }
  - { offset: 0x12F337, size: 0x8, addend: 0x0, symName: _llama_attach_threadpool, symObjAddr: 0xBF74, symBinAddr: 0x23BAC, symSize: 0x60 }
  - { offset: 0x12F3D6, size: 0x8, addend: 0x0, symName: _llama_detach_threadpool, symObjAddr: 0xBFD4, symBinAddr: 0x23C0C, symSize: 0x4C }
  - { offset: 0x12F45F, size: 0x8, addend: 0x0, symName: _llama_set_n_threads, symObjAddr: 0xC020, symBinAddr: 0x23C58, symSize: 0x58 }
  - { offset: 0x12F4FE, size: 0x8, addend: 0x0, symName: _llama_n_threads, symObjAddr: 0xC078, symBinAddr: 0x23CB0, symSize: 0x8 }
  - { offset: 0x12F52C, size: 0x8, addend: 0x0, symName: _llama_n_threads, symObjAddr: 0xC078, symBinAddr: 0x23CB0, symSize: 0x8 }
  - { offset: 0x12F560, size: 0x8, addend: 0x0, symName: _llama_n_threads_batch, symObjAddr: 0xC080, symBinAddr: 0x23CB8, symSize: 0x8 }
  - { offset: 0x12F58E, size: 0x8, addend: 0x0, symName: _llama_n_threads_batch, symObjAddr: 0xC080, symBinAddr: 0x23CB8, symSize: 0x8 }
  - { offset: 0x12F5CE, size: 0x8, addend: 0x0, symName: _llama_set_embeddings, symObjAddr: 0xC088, symBinAddr: 0x23CC0, symSize: 0x48 }
  - { offset: 0x12F65B, size: 0x8, addend: 0x0, symName: _llama_set_causal_attn, symObjAddr: 0xC0D0, symBinAddr: 0x23D08, symSize: 0x64 }
  - { offset: 0x12F6F1, size: 0x8, addend: 0x0, symName: _llama_set_warmup, symObjAddr: 0xC134, symBinAddr: 0x23D6C, symSize: 0x54 }
  - { offset: 0x12F762, size: 0x8, addend: 0x0, symName: _llama_synchronize, symObjAddr: 0xC188, symBinAddr: 0x23DC0, symSize: 0x4 }
  - { offset: 0x12F78B, size: 0x8, addend: 0x0, symName: _llama_synchronize, symObjAddr: 0xC188, symBinAddr: 0x23DC0, symSize: 0x4 }
  - { offset: 0x12F7B7, size: 0x8, addend: 0x0, symName: _llama_get_logits, symObjAddr: 0xC18C, symBinAddr: 0x23DC4, symSize: 0x2C }
  - { offset: 0x12F829, size: 0x8, addend: 0x0, symName: _llama_get_logits_ith, symObjAddr: 0xC1B8, symBinAddr: 0x23DF0, symSize: 0x48 }
  - { offset: 0x12F8CB, size: 0x8, addend: 0x0, symName: _llama_get_embeddings, symObjAddr: 0xC200, symBinAddr: 0x23E38, symSize: 0x2C }
  - { offset: 0x12F93D, size: 0x8, addend: 0x0, symName: _llama_get_embeddings_ith, symObjAddr: 0xC22C, symBinAddr: 0x23E64, symSize: 0x2C }
  - { offset: 0x12F9CD, size: 0x8, addend: 0x0, symName: _llama_get_embeddings_seq, symObjAddr: 0xC258, symBinAddr: 0x23E90, symSize: 0x74 }
  - { offset: 0x12FB5B, size: 0x8, addend: 0x0, symName: __Z26llama_set_embeddings_nextnP13llama_contextbb, symObjAddr: 0xC2CC, symBinAddr: 0x23F04, symSize: 0x5C }
  - { offset: 0x12FC08, size: 0x8, addend: 0x0, symName: __Z30llama_set_embeddings_layer_inpP13llama_contextjb, symObjAddr: 0xC328, symBinAddr: 0x23F60, symSize: 0xC4 }
  - { offset: 0x12FD02, size: 0x8, addend: 0x0, symName: __Z28llama_set_nextn_layer_offsetP13llama_contexti, symObjAddr: 0xC3EC, symBinAddr: 0x24024, symSize: 0x8 }
  - { offset: 0x12FD39, size: 0x8, addend: 0x0, symName: __Z28llama_set_nextn_layer_offsetP13llama_contexti, symObjAddr: 0xC3EC, symBinAddr: 0x24024, symSize: 0x8 }
  - { offset: 0x12FD73, size: 0x8, addend: 0x0, symName: __Z28llama_set_nextn_layer_offsetP13llama_contexti, symObjAddr: 0xC3EC, symBinAddr: 0x24024, symSize: 0x8 }
  - { offset: 0x12FDAE, size: 0x8, addend: 0x0, symName: __Z26llama_get_embeddings_nextnP13llama_context, symObjAddr: 0xC3F4, symBinAddr: 0x2402C, symSize: 0x2C }
  - { offset: 0x12FE24, size: 0x8, addend: 0x0, symName: __Z30llama_get_embeddings_nextn_ithP13llama_contexti, symObjAddr: 0xC420, symBinAddr: 0x24058, symSize: 0x2C }
  - { offset: 0x12FEAC, size: 0x8, addend: 0x0, symName: __Z30llama_get_embeddings_layer_inpP13llama_contextj, symObjAddr: 0xC44C, symBinAddr: 0x24084, symSize: 0x80 }
  - { offset: 0x12FF91, size: 0x8, addend: 0x0, symName: _llama_set_sampler, symObjAddr: 0xC4CC, symBinAddr: 0x24104, symSize: 0x4 }
  - { offset: 0x12FFA4, size: 0x8, addend: 0x0, symName: _llama_set_sampler, symObjAddr: 0xC4CC, symBinAddr: 0x24104, symSize: 0x4 }
  - { offset: 0x12FFED, size: 0x8, addend: 0x0, symName: _llama_set_sampler, symObjAddr: 0xC4CC, symBinAddr: 0x24104, symSize: 0x4 }
  - { offset: 0x13000E, size: 0x8, addend: 0x0, symName: _llama_get_sampled_token_ith, symObjAddr: 0xC4D0, symBinAddr: 0x24108, symSize: 0x2C }
  - { offset: 0x13006D, size: 0x8, addend: 0x0, symName: _llama_get_sampled_probs_ith, symObjAddr: 0xC4FC, symBinAddr: 0x24134, symSize: 0x2C }
  - { offset: 0x1300CC, size: 0x8, addend: 0x0, symName: _llama_get_sampled_logits_ith, symObjAddr: 0xC528, symBinAddr: 0x24160, symSize: 0x2C }
  - { offset: 0x13012B, size: 0x8, addend: 0x0, symName: _llama_get_sampled_candidates_ith, symObjAddr: 0xC554, symBinAddr: 0x2418C, symSize: 0x2C }
  - { offset: 0x13018A, size: 0x8, addend: 0x0, symName: _llama_get_sampled_candidates_count_ith, symObjAddr: 0xC580, symBinAddr: 0x241B8, symSize: 0x30 }
  - { offset: 0x1301F5, size: 0x8, addend: 0x0, symName: _llama_get_sampled_logits_count_ith, symObjAddr: 0xC5B0, symBinAddr: 0x241E8, symSize: 0x30 }
  - { offset: 0x130260, size: 0x8, addend: 0x0, symName: _llama_get_sampled_probs_count_ith, symObjAddr: 0xC5E0, symBinAddr: 0x24218, symSize: 0x30 }
  - { offset: 0x1302CB, size: 0x8, addend: 0x0, symName: __Z19llama_graph_reserveP13llama_contextjjj, symObjAddr: 0xC610, symBinAddr: 0x24248, symSize: 0xBC }
  - { offset: 0x130501, size: 0x8, addend: 0x0, symName: _llama_set_adapters_lora, symObjAddr: 0xC6CC, symBinAddr: 0x24304, symSize: 0x58 }
  - { offset: 0x13056D, size: 0x8, addend: 0x0, symName: _llama_set_adapter_cvec, symObjAddr: 0xC724, symBinAddr: 0x2435C, symSize: 0x9C }
  - { offset: 0x1305E1, size: 0x8, addend: 0x0, symName: _llama_set_adapter_cvec, symObjAddr: 0xC724, symBinAddr: 0x2435C, symSize: 0x9C }
  - { offset: 0x1306EF, size: 0x8, addend: 0x0, symName: _llama_memory_clear, symObjAddr: 0xC7C0, symBinAddr: 0x243F8, symSize: 0x14 }
  - { offset: 0x130734, size: 0x8, addend: 0x0, symName: _llama_memory_seq_rm, symObjAddr: 0xC7D4, symBinAddr: 0x2440C, symSize: 0x18 }
  - { offset: 0x130796, size: 0x8, addend: 0x0, symName: _llama_memory_seq_cp, symObjAddr: 0xC7EC, symBinAddr: 0x24424, symSize: 0x14 }
  - { offset: 0x130800, size: 0x8, addend: 0x0, symName: _llama_memory_seq_keep, symObjAddr: 0xC800, symBinAddr: 0x24438, symSize: 0x14 }
  - { offset: 0x130840, size: 0x8, addend: 0x0, symName: _llama_memory_seq_add, symObjAddr: 0xC814, symBinAddr: 0x2444C, symSize: 0x14 }
  - { offset: 0x1308AA, size: 0x8, addend: 0x0, symName: _llama_memory_seq_div, symObjAddr: 0xC828, symBinAddr: 0x24460, symSize: 0x14 }
  - { offset: 0x130914, size: 0x8, addend: 0x0, symName: _llama_memory_seq_pos_min, symObjAddr: 0xC83C, symBinAddr: 0x24474, symSize: 0x18 }
  - { offset: 0x13095A, size: 0x8, addend: 0x0, symName: _llama_memory_seq_pos_max, symObjAddr: 0xC854, symBinAddr: 0x2448C, symSize: 0x18 }
  - { offset: 0x1309A0, size: 0x8, addend: 0x0, symName: _llama_memory_can_shift, symObjAddr: 0xC86C, symBinAddr: 0x244A4, symSize: 0x14 }
  - { offset: 0x1309F1, size: 0x8, addend: 0x0, symName: _llama_get_state_size, symObjAddr: 0xC880, symBinAddr: 0x244B8, symSize: 0x4 }
  - { offset: 0x130A1D, size: 0x8, addend: 0x0, symName: _llama_get_state_size, symObjAddr: 0xC880, symBinAddr: 0x244B8, symSize: 0x4 }
  - { offset: 0x130A3B, size: 0x8, addend: 0x0, symName: _llama_get_state_size, symObjAddr: 0xC880, symBinAddr: 0x244B8, symSize: 0x4 }
  - { offset: 0x130A4E, size: 0x8, addend: 0x0, symName: _llama_state_get_size, symObjAddr: 0xC884, symBinAddr: 0x244BC, symSize: 0x4 }
  - { offset: 0x130A6D, size: 0x8, addend: 0x0, symName: _llama_state_get_size, symObjAddr: 0xC884, symBinAddr: 0x244BC, symSize: 0x4 }
  - { offset: 0x130AB3, size: 0x8, addend: 0x0, symName: _llama_copy_state_data, symObjAddr: 0xC888, symBinAddr: 0x244C0, symSize: 0x30 }
  - { offset: 0x130B4A, size: 0x8, addend: 0x0, symName: _llama_state_get_data, symObjAddr: 0xC8B8, symBinAddr: 0x244F0, symSize: 0x3C }
  - { offset: 0x130BD0, size: 0x8, addend: 0x0, symName: _llama_set_state_data, symObjAddr: 0xC8F4, symBinAddr: 0x2452C, symSize: 0x30 }
  - { offset: 0x130C67, size: 0x8, addend: 0x0, symName: _llama_state_set_data, symObjAddr: 0xC924, symBinAddr: 0x2455C, symSize: 0x3C }
  - { offset: 0x130CBA, size: 0x8, addend: 0x0, symName: _llama_load_session_file, symObjAddr: 0xC960, symBinAddr: 0x24598, symSize: 0x4 }
  - { offset: 0x130D1F, size: 0x8, addend: 0x0, symName: _llama_load_session_file, symObjAddr: 0xC960, symBinAddr: 0x24598, symSize: 0x4 }
  - { offset: 0x130D4E, size: 0x8, addend: 0x0, symName: _llama_state_load_file, symObjAddr: 0xC964, symBinAddr: 0x2459C, symSize: 0xD0 }
  - { offset: 0x130E2A, size: 0x8, addend: 0x0, symName: _llama_save_session_file, symObjAddr: 0xCA34, symBinAddr: 0x2466C, symSize: 0x4 }
  - { offset: 0x130E81, size: 0x8, addend: 0x0, symName: _llama_save_session_file, symObjAddr: 0xCA34, symBinAddr: 0x2466C, symSize: 0x4 }
  - { offset: 0x130EA9, size: 0x8, addend: 0x0, symName: _llama_state_save_file, symObjAddr: 0xCA38, symBinAddr: 0x24670, symSize: 0xC0 }
  - { offset: 0x130FA2, size: 0x8, addend: 0x0, symName: _llama_state_seq_get_size, symObjAddr: 0xCAF8, symBinAddr: 0x24730, symSize: 0x8 }
  - { offset: 0x130FDC, size: 0x8, addend: 0x0, symName: _llama_state_seq_get_size, symObjAddr: 0xCAF8, symBinAddr: 0x24730, symSize: 0x8 }
  - { offset: 0x131027, size: 0x8, addend: 0x0, symName: _llama_state_seq_get_size_ext, symObjAddr: 0xCB00, symBinAddr: 0x24738, symSize: 0x4 }
  - { offset: 0x131054, size: 0x8, addend: 0x0, symName: _llama_state_seq_get_size_ext, symObjAddr: 0xCB00, symBinAddr: 0x24738, symSize: 0x4 }
  - { offset: 0x1310C0, size: 0x8, addend: 0x0, symName: _llama_state_seq_get_data, symObjAddr: 0xCB04, symBinAddr: 0x2473C, symSize: 0x48 }
  - { offset: 0x131186, size: 0x8, addend: 0x0, symName: _llama_state_seq_get_data_ext, symObjAddr: 0xCB4C, symBinAddr: 0x24784, symSize: 0x54 }
  - { offset: 0x131236, size: 0x8, addend: 0x0, symName: _llama_state_seq_set_data, symObjAddr: 0xCBA0, symBinAddr: 0x247D8, symSize: 0x48 }
  - { offset: 0x1312FC, size: 0x8, addend: 0x0, symName: _llama_state_seq_set_data_ext, symObjAddr: 0xCBE8, symBinAddr: 0x24820, symSize: 0x54 }
  - { offset: 0x131361, size: 0x8, addend: 0x0, symName: _llama_state_seq_save_file, symObjAddr: 0xCC3C, symBinAddr: 0x24874, symSize: 0xD0 }
  - { offset: 0x13143D, size: 0x8, addend: 0x0, symName: _llama_state_seq_load_file, symObjAddr: 0xCD0C, symBinAddr: 0x24944, symSize: 0xD8 }
  - { offset: 0x13152F, size: 0x8, addend: 0x0, symName: _llama_encode, symObjAddr: 0xCDE4, symBinAddr: 0x24A1C, symSize: 0x4C }
  - { offset: 0x1315AA, size: 0x8, addend: 0x0, symName: _llama_decode, symObjAddr: 0xCE30, symBinAddr: 0x24A68, symSize: 0x50 }
  - { offset: 0x13164A, size: 0x8, addend: 0x0, symName: _llama_perf_context, symObjAddr: 0xCE80, symBinAddr: 0x24AB8, symSize: 0x5C }
  - { offset: 0x131770, size: 0x8, addend: 0x0, symName: _llama_perf_context_print, symObjAddr: 0xCEDC, symBinAddr: 0x24B14, symSize: 0x190 }
  - { offset: 0x1319A4, size: 0x8, addend: 0x0, symName: _llama_perf_context_reset, symObjAddr: 0xD06C, symBinAddr: 0x24CA4, symSize: 0x34 }
  - { offset: 0x1319F7, size: 0x8, addend: 0x0, symName: _llama_opt_param_filter_all, symObjAddr: 0xD0A0, symBinAddr: 0x24CD8, symSize: 0x8 }
  - { offset: 0x131A31, size: 0x8, addend: 0x0, symName: _llama_opt_init, symObjAddr: 0xD0A8, symBinAddr: 0x24CE0, symSize: 0x30 }
  - { offset: 0x131A9B, size: 0x8, addend: 0x0, symName: _llama_opt_epoch, symObjAddr: 0xD0D8, symBinAddr: 0x24D10, symSize: 0x4 }
  - { offset: 0x131B18, size: 0x8, addend: 0x0, symName: _llama_opt_epoch, symObjAddr: 0xD0D8, symBinAddr: 0x24D10, symSize: 0x4 }
  - { offset: 0x131B55, size: 0x8, addend: 0x0, symName: __Z26llama_get_memory_breakdownPK13llama_context, symObjAddr: 0xD0DC, symBinAddr: 0x24D14, symSize: 0x4 }
  - { offset: 0x131B86, size: 0x8, addend: 0x0, symName: __Z26llama_get_memory_breakdownPK13llama_context, symObjAddr: 0xD0DC, symBinAddr: 0x24D14, symSize: 0x4 }
  - { offset: 0x131BA0, size: 0x8, addend: 0x0, symName: __Z19llama_get_ctx_otherP13llama_context, symObjAddr: 0xD0E0, symBinAddr: 0x24D18, symSize: 0x8 }
  - { offset: 0x132722, size: 0x8, addend: 0x0, symName: __ZNSt3__110unique_ptrINS_11__tree_nodeINS_12__value_typeIiP13llama_samplerEEPvEENS_6__treeIS5_NS_19__map_value_compareIiNS_4pairIKiS4_EENS_4lessIiEEEENS_9allocatorISC_EEE14__tree_deleterEED1B9nqe220106Ev, symObjAddr: 0xD61C, symBinAddr: 0x24F84, symSize: 0x38 }
  - { offset: 0x1327EB, size: 0x8, addend: 0x0, symName: __ZN20llama_io_write_dummyD0Ev, symObjAddr: 0xD6A0, symBinAddr: 0x25008, symSize: 0x4 }
  - { offset: 0x132817, size: 0x8, addend: 0x0, symName: __ZN20llama_io_write_dummy12write_tensorEP11ggml_tensormm, symObjAddr: 0xD6A4, symBinAddr: 0x2500C, symSize: 0x18 }
  - { offset: 0x132860, size: 0x8, addend: 0x0, symName: __ZN20llama_io_write_dummy7n_bytesEv, symObjAddr: 0xD6BC, symBinAddr: 0x25024, symSize: 0x8 }
  - { offset: 0x132887, size: 0x8, addend: 0x0, symName: __ZN19llama_io_write_hostD0Ev, symObjAddr: 0xD6C4, symBinAddr: 0x2502C, symSize: 0x74 }
  - { offset: 0x132A66, size: 0x8, addend: 0x0, symName: __ZN19llama_io_write_host5writeEPKvm, symObjAddr: 0xD738, symBinAddr: 0x250A0, symSize: 0x84 }
  - { offset: 0x132AC1, size: 0x8, addend: 0x0, symName: __ZN19llama_io_write_host5writeEPKvm.cold.1, symObjAddr: 0x10B78, symBinAddr: 0x363650, symSize: 0xC }
  - { offset: 0x132CC1, size: 0x8, addend: 0x0, symName: __ZN19llama_io_write_host12write_tensorEP11ggml_tensormm, symObjAddr: 0xD7BC, symBinAddr: 0x25124, symSize: 0xD8 }
  - { offset: 0x132E4D, size: 0x8, addend: 0x0, symName: __ZZNSt3__16vectorIN19llama_io_write_host10write_infoENS_9allocatorIS2_EEE12emplace_backIJS2_EEERS2_DpOT_ENKUlvE0_clEv, symObjAddr: 0xD89C, symBinAddr: 0x25204, symSize: 0xD8 }
  - { offset: 0x133156, size: 0x8, addend: 0x0, symName: __ZNSt3__16vectorIN19llama_io_write_host10write_infoENS_9allocatorIS2_EEE20__throw_length_errorB9nqe220106Ev, symObjAddr: 0xD974, symBinAddr: 0x252DC, symSize: 0x14 }
  - { offset: 0x133161, size: 0x8, addend: 0x0, symName: __ZN19llama_io_write_host12write_tensorEP11ggml_tensormm.cold.1, symObjAddr: 0x10B84, symBinAddr: 0x36365C, symSize: 0xC }
  - { offset: 0x133179, size: 0x8, addend: 0x0, symName: __ZN19llama_io_write_host7n_bytesEv, symObjAddr: 0xD894, symBinAddr: 0x251FC, symSize: 0x8 }
  - { offset: 0x133375, size: 0x8, addend: 0x0, symName: __ZNSt3__16vectorIN19llama_io_write_host10write_infoENS_9allocatorIS2_EEE20__throw_length_errorB9nqe220106Ev, symObjAddr: 0xD974, symBinAddr: 0x252DC, symSize: 0x14 }
  - { offset: 0x13338D, size: 0x8, addend: 0x0, symName: __ZN18llama_io_read_hostD0Ev, symObjAddr: 0xD988, symBinAddr: 0x252F0, symSize: 0x74 }
  - { offset: 0x133398, size: 0x8, addend: 0x0, symName: __ZN18llama_io_read_hostD0Ev, symObjAddr: 0xD988, symBinAddr: 0x252F0, symSize: 0x74 }
  - { offset: 0x133577, size: 0x8, addend: 0x0, symName: __ZN18llama_io_read_host4readEPvm, symObjAddr: 0xD9FC, symBinAddr: 0x25364, symSize: 0x8C }
  - { offset: 0x1335BF, size: 0x8, addend: 0x0, symName: __ZN18llama_io_read_host4readEPvm.cold.1, symObjAddr: 0x10B90, symBinAddr: 0x363668, symSize: 0xC }
  - { offset: 0x1337BF, size: 0x8, addend: 0x0, symName: __ZN18llama_io_read_host11read_tensorEP11ggml_tensormm, symObjAddr: 0xDA88, symBinAddr: 0x253F0, symSize: 0xD8 }
  - { offset: 0x13394B, size: 0x8, addend: 0x0, symName: __ZZNSt3__16vectorIN18llama_io_read_host9read_infoENS_9allocatorIS2_EEE12emplace_backIJS2_EEERS2_DpOT_ENKUlvE0_clEv, symObjAddr: 0xDB68, symBinAddr: 0x254D0, symSize: 0xD8 }
  - { offset: 0x133C54, size: 0x8, addend: 0x0, symName: __ZNSt3__16vectorIN18llama_io_read_host9read_infoENS_9allocatorIS2_EEE20__throw_length_errorB9nqe220106Ev, symObjAddr: 0xDC40, symBinAddr: 0x255A8, symSize: 0x14 }
  - { offset: 0x133C5F, size: 0x8, addend: 0x0, symName: __ZN18llama_io_read_host11read_tensorEP11ggml_tensormm.cold.1, symObjAddr: 0x10B9C, symBinAddr: 0x363674, symSize: 0xC }
  - { offset: 0x133C77, size: 0x8, addend: 0x0, symName: __ZN18llama_io_read_host7n_bytesEv, symObjAddr: 0xDB60, symBinAddr: 0x254C8, symSize: 0x8 }
  - { offset: 0x133E73, size: 0x8, addend: 0x0, symName: __ZNSt3__16vectorIN18llama_io_read_host9read_infoENS_9allocatorIS2_EEE20__throw_length_errorB9nqe220106Ev, symObjAddr: 0xDC40, symBinAddr: 0x255A8, symSize: 0x14 }
  - { offset: 0x133E8B, size: 0x8, addend: 0x0, symName: __ZN18llama_io_read_fileD0Ev, symObjAddr: 0xDC54, symBinAddr: 0x255BC, symSize: 0x44 }
  - { offset: 0x133E96, size: 0x8, addend: 0x0, symName: __ZN18llama_io_read_fileD0Ev, symObjAddr: 0xDC54, symBinAddr: 0x255BC, symSize: 0x44 }
  - { offset: 0x133EC6, size: 0x8, addend: 0x0, symName: __ZN18llama_io_read_fileD0Ev, symObjAddr: 0xDC54, symBinAddr: 0x255BC, symSize: 0x44 }
  - { offset: 0x133EE4, size: 0x8, addend: 0x0, symName: __ZN18llama_io_read_fileD0Ev, symObjAddr: 0xDC54, symBinAddr: 0x255BC, symSize: 0x44 }
  - { offset: 0x13400E, size: 0x8, addend: 0x0, symName: __ZN18llama_io_read_file4readEPvm, symObjAddr: 0xDC98, symBinAddr: 0x25600, symSize: 0x34 }
  - { offset: 0x13446E, size: 0x8, addend: 0x0, symName: __ZN18llama_io_read_file11read_tensorEP11ggml_tensormm, symObjAddr: 0xDCCC, symBinAddr: 0x25634, symSize: 0x120 }
  - { offset: 0x1349A9, size: 0x8, addend: 0x0, symName: __ZN18llama_io_read_file7n_bytesEv, symObjAddr: 0xDDEC, symBinAddr: 0x25754, symSize: 0x8 }
  - { offset: 0x1349BE, size: 0x8, addend: 0x0, symName: __ZN19llama_io_write_fileD0Ev, symObjAddr: 0xDE08, symBinAddr: 0x2575C, symSize: 0x44 }
  - { offset: 0x1349C9, size: 0x8, addend: 0x0, symName: __ZN18llama_io_read_file7n_bytesEv, symObjAddr: 0xDDEC, symBinAddr: 0x25754, symSize: 0x8 }
  - { offset: 0x1349F0, size: 0x8, addend: 0x0, symName: __ZN19llama_io_write_fileD0Ev, symObjAddr: 0xDE08, symBinAddr: 0x2575C, symSize: 0x44 }
  - { offset: 0x134A20, size: 0x8, addend: 0x0, symName: __ZN19llama_io_write_fileD0Ev, symObjAddr: 0xDE08, symBinAddr: 0x2575C, symSize: 0x44 }
  - { offset: 0x134A3E, size: 0x8, addend: 0x0, symName: __ZN19llama_io_write_fileD0Ev, symObjAddr: 0xDE08, symBinAddr: 0x2575C, symSize: 0x44 }
  - { offset: 0x134B68, size: 0x8, addend: 0x0, symName: __ZN19llama_io_write_file5writeEPKvm, symObjAddr: 0xDE4C, symBinAddr: 0x257A0, symSize: 0x34 }
  - { offset: 0x134BAF, size: 0x8, addend: 0x0, symName: __ZN19llama_io_write_file12write_tensorEP11ggml_tensormm, symObjAddr: 0xDE80, symBinAddr: 0x257D4, symSize: 0x12C }
  - { offset: 0x135109, size: 0x8, addend: 0x0, symName: __ZN18llama_adapter_cvecD2Ev, symObjAddr: 0xDFAC, symBinAddr: 0x25900, symSize: 0xC8 }
  - { offset: 0x1355BF, size: 0x8, addend: 0x0, symName: __ZNSt3__120__shared_ptr_pointerIP18llama_adapter_cvecNS_14default_deleteIS1_EENS_9allocatorIS1_EEED1Ev, symObjAddr: 0xE074, symBinAddr: 0x259C8, symSize: 0x4 }
  - { offset: 0x1355E1, size: 0x8, addend: 0x0, symName: __ZNSt3__120__shared_ptr_pointerIP18llama_adapter_cvecNS_14default_deleteIS1_EENS_9allocatorIS1_EEED1Ev, symObjAddr: 0xE074, symBinAddr: 0x259C8, symSize: 0x4 }
  - { offset: 0x13561B, size: 0x8, addend: 0x0, symName: __ZNSt3__120__shared_ptr_pointerIP18llama_adapter_cvecNS_14default_deleteIS1_EENS_9allocatorIS1_EEED0Ev, symObjAddr: 0xE078, symBinAddr: 0x259CC, symSize: 0x14 }
  - { offset: 0x13567E, size: 0x8, addend: 0x0, symName: __ZNSt3__120__shared_ptr_pointerIP18llama_adapter_cvecNS_14default_deleteIS1_EENS_9allocatorIS1_EEE16__on_zero_sharedEv, symObjAddr: 0xE08C, symBinAddr: 0x259E0, symSize: 0x20 }
  - { offset: 0x135743, size: 0x8, addend: 0x0, symName: __ZNKSt3__120__shared_ptr_pointerIP18llama_adapter_cvecNS_14default_deleteIS1_EENS_9allocatorIS1_EEE13__get_deleterERKSt9type_info, symObjAddr: 0xE0AC, symBinAddr: 0x25A00, symSize: 0x70 }
  - { offset: 0x135847, size: 0x8, addend: 0x0, symName: __ZNSt3__120__shared_ptr_pointerIP18llama_adapter_cvecNS_14default_deleteIS1_EENS_9allocatorIS1_EEE21__on_zero_shared_weakEv, symObjAddr: 0xE11C, symBinAddr: 0x25A70, symSize: 0x4 }
  - { offset: 0x135879, size: 0x8, addend: 0x0, symName: __ZNSt3__120__shared_ptr_pointerIP18llama_adapter_cvecNS_14default_deleteIS1_EENS_9allocatorIS1_EEE21__on_zero_shared_weakEv, symObjAddr: 0xE11C, symBinAddr: 0x25A70, symSize: 0x4 }
  - { offset: 0x13589B, size: 0x8, addend: 0x0, symName: __ZNSt3__120__shared_ptr_pointerIP18llama_adapter_cvecNS_14default_deleteIS1_EENS_9allocatorIS1_EEE21__on_zero_shared_weakEv, symObjAddr: 0xE11C, symBinAddr: 0x25A70, symSize: 0x4 }
  - { offset: 0x135B73, size: 0x8, addend: 0x0, symName: __ZNSt3__16__treeINS_12__value_typeIP24ggml_backend_buffer_type19llama_memory_bufferEENS_19__map_value_compareIS3_NS_4pairIKS3_S4_EENS_4lessIS3_EEEENS_9allocatorIS9_EEE14__tree_deleterclB9nqe220106EPNS_11__tree_nodeIS5_PvEE, symObjAddr: 0xE1F0, symBinAddr: 0x25B44, symSize: 0x54 }
  - { offset: 0x136089, size: 0x8, addend: 0x0, symName: __ZNSt3__16vectorINS_10unique_ptrI12ggml_backend20ggml_backend_deleterEENS_9allocatorIS4_EEE20__throw_length_errorB9nqe220106Ev, symObjAddr: 0xE56C, symBinAddr: 0x25CEC, symSize: 0x14 }
  - { offset: 0x1360A1, size: 0x8, addend: 0x0, symName: __ZZNSt3__16vectorINS_4pairIP12ggml_backendPFvS3_iEEENS_9allocatorIS6_EEE12emplace_backIJS3_RS5_EEERS6_DpOT_ENKUlvE0_clEv, symObjAddr: 0xE580, symBinAddr: 0x25D00, symSize: 0xE8 }
  - { offset: 0x136292, size: 0x8, addend: 0x0, symName: __ZNSt3__16vectorINS_4pairIP12ggml_backendPFvS3_iEEENS_9allocatorIS6_EEE20__throw_length_errorB9nqe220106Ev, symObjAddr: 0xE668, symBinAddr: 0x25DE8, symSize: 0x14 }
  - { offset: 0x1362AA, size: 0x8, addend: 0x0, symName: __ZZNSt3__16vectorIP24ggml_backend_buffer_typeNS_9allocatorIS2_EEE12emplace_backIJRKS2_EEERS2_DpOT_ENKUlvE0_clEv, symObjAddr: 0xE67C, symBinAddr: 0x25DFC, symSize: 0xDC }
  - { offset: 0x136479, size: 0x8, addend: 0x0, symName: __ZZNSt3__16vectorIP12ggml_backendNS_9allocatorIS2_EEE12emplace_backIJS2_EEERS2_DpOT_ENKUlvE0_clEv, symObjAddr: 0xE76C, symBinAddr: 0x25ED8, symSize: 0xDC }
  - { offset: 0x13663E, size: 0x8, addend: 0x0, symName: __ZNSt3__16vectorIP12ggml_backendNS_9allocatorIS2_EEE20__throw_length_errorB9nqe220106Ev, symObjAddr: 0xE848, symBinAddr: 0x25FB4, symSize: 0x14 }
  - { offset: 0x136656, size: 0x8, addend: 0x0, symName: __ZZNSt3__16vectorImNS_9allocatorImEEE12emplace_backIJmEEERmDpOT_ENKUlvE0_clEv, symObjAddr: 0xE85C, symBinAddr: 0x25FC8, symSize: 0xDC }
  - { offset: 0x1367EF, size: 0x8, addend: 0x0, symName: __ZNSt3__16vectorImNS_9allocatorImEEE20__throw_length_errorB9nqe220106Ev, symObjAddr: 0xE938, symBinAddr: 0x260A4, symSize: 0x14 }
  - { offset: 0x136D74, size: 0x8, addend: 0x0, symName: __ZNSt3__112__hash_tableINS_17__hash_value_typeIP18llama_adapter_lorafEENS_22__unordered_map_hasherIS3_NS_4pairIKS3_fEENS_4hashIS3_EENS_8equal_toIS3_EEEENS_21__unordered_map_equalIS3_S8_SC_SA_EENS_9allocatorIS8_EEE11__do_rehashILb1EEEvm, symObjAddr: 0xF0C8, symBinAddr: 0x2680C, symSize: 0x180 }
  - { offset: 0x136FD0, size: 0x8, addend: 0x0, symName: __ZNSt3__112__hash_tableINS_17__hash_value_typeIP18llama_adapter_lorafEENS_22__unordered_map_hasherIS3_NS_4pairIKS3_fEENS_4hashIS3_EENS_8equal_toIS3_EEEENS_21__unordered_map_equalIS3_S8_SC_SA_EENS_9allocatorIS8_EEE4findIS3_EENS_15__hash_iteratorIPNS_11__hash_nodeIS4_PvEEEERKT_, symObjAddr: 0xF248, symBinAddr: 0x2698C, symSize: 0x120 }
  - { offset: 0x13727A, size: 0x8, addend: 0x0, symName: __ZNSt3__16vectorIN13llama_context9swap_infoENS_9allocatorIS2_EEE20__throw_length_errorB9nqe220106Ev, symObjAddr: 0xF4B8, symBinAddr: 0x26BD4, symSize: 0x14 }
  - { offset: 0x137292, size: 0x8, addend: 0x0, symName: __ZNSt3__16vectorIjNS_9allocatorIjEEE20__throw_length_errorB9nqe220106Ev, symObjAddr: 0xF4CC, symBinAddr: 0x26BE8, symSize: 0x14 }
  - { offset: 0x13729D, size: 0x8, addend: 0x0, symName: '__ZNSt3__110__function6__funcIZNK13llama_context12graph_get_cbEvE3$_0FvRK12llama_ubatchP11ggml_tensorPKciEED1Ev', symObjAddr: 0xF4E0, symBinAddr: 0x26BFC, symSize: 0x4 }
  - { offset: 0x1372CC, size: 0x8, addend: 0x0, symName: '__ZNSt3__110__function6__funcIZNK13llama_context12graph_get_cbEvE3$_0FvRK12llama_ubatchP11ggml_tensorPKciEED0Ev', symObjAddr: 0xF4E4, symBinAddr: 0x26C00, symSize: 0x4 }
  - { offset: 0x137341, size: 0x8, addend: 0x0, symName: '__ZNKSt3__110__function6__funcIZNK13llama_context12graph_get_cbEvE3$_0FvRK12llama_ubatchP11ggml_tensorPKciEE7__cloneEv', symObjAddr: 0xF4E8, symBinAddr: 0x26C04, symSize: 0x34 }
  - { offset: 0x1373A0, size: 0x8, addend: 0x0, symName: '__ZNKSt3__110__function6__funcIZNK13llama_context12graph_get_cbEvE3$_0FvRK12llama_ubatchP11ggml_tensorPKciEE7__cloneEPNS0_6__baseISB_EE', symObjAddr: 0xF51C, symBinAddr: 0x26C38, symSize: 0x14 }
  - { offset: 0x13740B, size: 0x8, addend: 0x0, symName: '__ZNSt3__110__function6__funcIZNK13llama_context12graph_get_cbEvE3$_0FvRK12llama_ubatchP11ggml_tensorPKciEE7destroyEv', symObjAddr: 0xF530, symBinAddr: 0x26C4C, symSize: 0x4 }
  - { offset: 0x13742E, size: 0x8, addend: 0x0, symName: '__ZNSt3__110__function6__funcIZNK13llama_context12graph_get_cbEvE3$_0FvRK12llama_ubatchP11ggml_tensorPKciEE18destroy_deallocateEv', symObjAddr: 0xF534, symBinAddr: 0x26C50, symSize: 0x14 }
  - { offset: 0x137572, size: 0x8, addend: 0x0, symName: '__ZNSt3__110__function6__funcIZNK13llama_context12graph_get_cbEvE3$_0FvRK12llama_ubatchP11ggml_tensorPKciEEclES6_OS8_OSA_Oi', symObjAddr: 0xF548, symBinAddr: 0x26C64, symSize: 0x110 }
  - { offset: 0x13780F, size: 0x8, addend: 0x0, symName: '__ZNKSt3__110__function6__funcIZNK13llama_context12graph_get_cbEvE3$_0FvRK12llama_ubatchP11ggml_tensorPKciEE6targetERKSt9type_info', symObjAddr: 0xF658, symBinAddr: 0x26D74, symSize: 0x60 }
  - { offset: 0x1378C2, size: 0x8, addend: 0x0, symName: '__ZNKSt3__110__function6__funcIZNK13llama_context12graph_get_cbEvE3$_0FvRK12llama_ubatchP11ggml_tensorPKciEE11target_typeEv', symObjAddr: 0xF6B8, symBinAddr: 0x26DD4, symSize: 0xC }
  - { offset: 0x1378E5, size: 0x8, addend: 0x0, symName: __ZN21llama_io_write_deviceD1Ev, symObjAddr: 0xF6C4, symBinAddr: 0x26DE0, symSize: 0x4 }
  - { offset: 0x137908, size: 0x8, addend: 0x0, symName: __ZN21llama_io_write_deviceD1Ev, symObjAddr: 0xF6C4, symBinAddr: 0x26DE0, symSize: 0x4 }
  - { offset: 0x13791B, size: 0x8, addend: 0x0, symName: __ZN21llama_io_write_deviceD2Ev, symObjAddr: 0xF7E8, symBinAddr: 0x26F04, symSize: 0x7F8 }
  - { offset: 0x1399DC, size: 0x8, addend: 0x0, symName: __ZN21llama_io_write_deviceD0Ev, symObjAddr: 0xF6C8, symBinAddr: 0x26DE4, symSize: 0x14 }
  - { offset: 0x139A37, size: 0x8, addend: 0x0, symName: __ZN21llama_io_write_device5writeEPKvm, symObjAddr: 0xF6DC, symBinAddr: 0x26DF8, symSize: 0x84 }
  - { offset: 0x139A92, size: 0x8, addend: 0x0, symName: __ZN21llama_io_write_device5writeEPKvm.cold.1, symObjAddr: 0x10BA8, symBinAddr: 0x363680, symSize: 0xC }
  - { offset: 0x139C97, size: 0x8, addend: 0x0, symName: __ZN21llama_io_write_device12write_tensorEP11ggml_tensormm, symObjAddr: 0xF760, symBinAddr: 0x26E7C, symSize: 0x80 }
  - { offset: 0x139E0F, size: 0x8, addend: 0x0, symName: __ZZNSt3__16vectorIN21llama_io_write_device10write_infoENS_9allocatorIS2_EEE12emplace_backIJS2_EEERS2_DpOT_ENKUlvE0_clEv, symObjAddr: 0x101A4, symBinAddr: 0x277D0, symSize: 0xD8 }
  - { offset: 0x13A118, size: 0x8, addend: 0x0, symName: __ZNSt3__16vectorIN21llama_io_write_device10write_infoENS_9allocatorIS2_EEE20__throw_length_errorB9nqe220106Ev, symObjAddr: 0x1027C, symBinAddr: 0x278A8, symSize: 0x14 }
  - { offset: 0x13A123, size: 0x8, addend: 0x0, symName: __ZN21llama_io_write_device7n_bytesEv, symObjAddr: 0xF7E0, symBinAddr: 0x26EFC, symSize: 0x8 }
  - { offset: 0x13AF86, size: 0x8, addend: 0x0, symName: __ZZNSt3__16vectorIN21llama_io_write_device10write_infoENS_9allocatorIS2_EEE12emplace_backIJS2_EEERS2_DpOT_ENKUlvE0_clEv, symObjAddr: 0x101A4, symBinAddr: 0x277D0, symSize: 0xD8 }
  - { offset: 0x13AFAF, size: 0x8, addend: 0x0, symName: __ZN19llama_memory_bufferaSEOS_, symObjAddr: 0xFFE0, symBinAddr: 0x276FC, symSize: 0xD4 }
  - { offset: 0x13B711, size: 0x8, addend: 0x0, symName: __ZNSt3__16vectorIN21llama_io_write_device10write_infoENS_9allocatorIS2_EEE20__throw_length_errorB9nqe220106Ev, symObjAddr: 0x1027C, symBinAddr: 0x278A8, symSize: 0x14 }
  - { offset: 0x13B729, size: 0x8, addend: 0x0, symName: __ZN20llama_io_read_deviceD1Ev, symObjAddr: 0x10290, symBinAddr: 0x278BC, symSize: 0x4 }
  - { offset: 0x13B734, size: 0x8, addend: 0x0, symName: __ZN20llama_io_read_deviceD1Ev, symObjAddr: 0x10290, symBinAddr: 0x278BC, symSize: 0x4 }
  - { offset: 0x13B757, size: 0x8, addend: 0x0, symName: __ZN20llama_io_read_deviceD1Ev, symObjAddr: 0x10290, symBinAddr: 0x278BC, symSize: 0x4 }
  - { offset: 0x13B76A, size: 0x8, addend: 0x0, symName: __ZN20llama_io_read_deviceD2Ev, symObjAddr: 0x103BC, symBinAddr: 0x279E8, symSize: 0x5B8 }
  - { offset: 0x13CE7F, size: 0x8, addend: 0x0, symName: __ZN20llama_io_read_deviceD0Ev, symObjAddr: 0x10294, symBinAddr: 0x278C0, symSize: 0x14 }
  - { offset: 0x13CEDA, size: 0x8, addend: 0x0, symName: __ZN20llama_io_read_device4readEPvm, symObjAddr: 0x102A8, symBinAddr: 0x278D4, symSize: 0x8C }
  - { offset: 0x13CF35, size: 0x8, addend: 0x0, symName: __ZN20llama_io_read_device4readEPvm.cold.1, symObjAddr: 0x10BB4, symBinAddr: 0x36368C, symSize: 0xC }
  - { offset: 0x13D13A, size: 0x8, addend: 0x0, symName: __ZN20llama_io_read_device11read_tensorEP11ggml_tensormm, symObjAddr: 0x10334, symBinAddr: 0x27960, symSize: 0x80 }
  - { offset: 0x13D2B2, size: 0x8, addend: 0x0, symName: __ZZNSt3__16vectorIN20llama_io_read_device9read_infoENS_9allocatorIS2_EEE12emplace_backIJS2_EEERS2_DpOT_ENKUlvE0_clEv, symObjAddr: 0x109E8, symBinAddr: 0x27FA0, symSize: 0xD8 }
  - { offset: 0x13D5BB, size: 0x8, addend: 0x0, symName: __ZNSt3__16vectorIN20llama_io_read_device9read_infoENS_9allocatorIS2_EEE20__throw_length_errorB9nqe220106Ev, symObjAddr: 0x10AC0, symBinAddr: 0x28078, symSize: 0x14 }
  - { offset: 0x13D5C6, size: 0x8, addend: 0x0, symName: __ZN20llama_io_read_device7n_bytesEv, symObjAddr: 0x103B4, symBinAddr: 0x279E0, symSize: 0x8 }
  - { offset: 0x13D9BB, size: 0x8, addend: 0x0, symName: __ZNSt3__16vectorIN20llama_io_read_device9read_infoENS_9allocatorIS2_EEE20__throw_length_errorB9nqe220106Ev, symObjAddr: 0x10AC0, symBinAddr: 0x28078, symSize: 0x14 }
  - { offset: 0x13D9D3, size: 0x8, addend: 0x0, symName: __ZNSt3__16__treeINS_12__value_typeIP24ggml_backend_buffer_type27llama_memory_breakdown_dataEENS_19__map_value_compareIS3_NS_4pairIKS3_S4_EENS_4lessIS3_EEEENS_9allocatorIS9_EEE14__tree_deleterclB9nqe220106EPNS_11__tree_nodeIS5_PvEE, symObjAddr: 0x10AD4, symBinAddr: 0x2808C, symSize: 0x4C }
  - { offset: 0x13DAA3, size: 0x8, addend: 0x0, symName: _OUTLINED_FUNCTION_0, symObjAddr: 0x10BC0, symBinAddr: 0x28124, symSize: 0x14 }
  - { offset: 0x13F8DC, size: 0x8, addend: 0x0, symName: _llama_max_parallel_sequences, symObjAddr: 0x0, symBinAddr: 0x28138, symSize: 0x8 }
  - { offset: 0x13F8EA, size: 0x8, addend: 0x0, symName: _llama_max_parallel_sequences, symObjAddr: 0x0, symBinAddr: 0x28138, symSize: 0x8 }
  - { offset: 0x167926, size: 0x8, addend: 0x0, symName: __ZNSt3__125__try_key_extraction_implB9nqe220106INS_12basic_stringIcNS_11char_traitsIcEENS_9allocatorIcEEEENS_4pairINS_15__tree_iteratorINS_12__value_typeIS6_jEEPNS_11__tree_nodeISA_PvEElEEbEEZNS_6__treeISA_NS_19__map_value_compareIS6_NS7_IKS6_jEENS_4lessIS6_EEEENS4_ISK_EEE16__emplace_uniqueB9nqe220106IJS6_RjEEESG_DpOT_EUlRSJ_OS6_SR_E_ZNSQ_IJS6_SR_EEESG_SU_EUlSW_SR_E_S6_SR_Li0EEET0_NS_14__priority_tagILm1EEET1_T2_OT3_OT4_, symObjAddr: 0xD7B4, symBinAddr: 0x35530, symSize: 0x144 }
  - { offset: 0x167FD4, size: 0x8, addend: 0x0, symName: __ZNSt3__125__try_key_extraction_implB9nqe220106INS_12basic_stringIcNS_11char_traitsIcEENS_9allocatorIcEEEENS_4pairINS_15__tree_iteratorINS_12__value_typeIS6_jEEPNS_11__tree_nodeISA_PvEElEEbEEZNS_6__treeISA_NS_19__map_value_compareIS6_NS7_IKS6_jEENS_4lessIS6_EEEENS4_ISK_EEE16__emplace_uniqueB9nqe220106IJRKNS_21piecewise_construct_tENS_5tupleIJOS6_EEENSU_IJEEEEEESG_DpOT_EUlRSJ_ST_OSW_OSX_E_ZNSQ_IJST_SW_SX_EEESG_S10_EUlST_S12_S13_E_ST_SW_SX_Li0EEET0_NS_14__priority_tagILm1EEET1_T2_OT3_OT4_OT5_, symObjAddr: 0xD8F8, symBinAddr: 0x35674, symSize: 0x148 }
  - { offset: 0x16B9D0, size: 0x8, addend: 0x0, symName: __ZNSt3__116__if_likely_elseB9nqe220106IZNS_6vectorI29llama_grammar_trigger_patternNS_9allocatorIS2_EEE12emplace_backIJEEERS2_DpOT_EUlvE_ZNS6_IJEEES7_SA_EUlvE0_EEvbT_T0_, symObjAddr: 0xE1B0, symBinAddr: 0x35E3C, symSize: 0xDC }
  - { offset: 0x16C6B5, size: 0x8, addend: 0x0, symName: __ZNSt3__135__uninitialized_allocator_copy_implB9nqe220106INS_9allocatorINS_6vectorI21llama_grammar_elementNS1_IS3_EEEEEEPS5_S7_S7_EET2_RT_T0_T1_S8_, symObjAddr: 0x1624C, symBinAddr: 0x3DE34, symSize: 0xF8 }
  - { offset: 0x16CBF5, size: 0x8, addend: 0x0, symName: __ZNSt3__135__uninitialized_allocator_copy_implB9nqe220106INS_9allocatorINS_6vectorIPK21llama_grammar_elementNS1_IS5_EEEEEEPS7_S9_S9_EET2_RT_T0_T1_SA_, symObjAddr: 0x16434, symBinAddr: 0x3E01C, symSize: 0xF8 }
  - { offset: 0x16E279, size: 0x8, addend: 0x0, symName: __ZNSt3__119__throw_regex_errorB9nqe220106ILNS_15regex_constants10error_typeE12EEEvv, symObjAddr: 0xBCF8, symBinAddr: 0x33A74, symSize: 0x4C }
  - { offset: 0x16E29F, size: 0x8, addend: 0x0, symName: __ZNSt3__119__throw_regex_errorB9nqe220106ILNS_15regex_constants10error_typeE16EEEvv, symObjAddr: 0xBD44, symBinAddr: 0x33AC0, symSize: 0x4C }
  - { offset: 0x16FB0F, size: 0x8, addend: 0x0, symName: __ZNSt3__134__uninitialized_allocator_relocateB9nqe220106INS_9allocatorI29llama_grammar_trigger_patternEEPS2_EEvRT_T0_S7_S7_, symObjAddr: 0xE56C, symBinAddr: 0x361F8, symSize: 0xFC }
  - { offset: 0x16FB6A, size: 0x8, addend: 0x0, symName: __ZNSt3__134__uninitialized_allocator_relocateB9nqe220106INS_9allocatorI29llama_grammar_trigger_patternEEPS2_EEvRT_T0_S7_S7_, symObjAddr: 0xE56C, symBinAddr: 0x361F8, symSize: 0xFC }
  - { offset: 0x16FFF6, size: 0x8, addend: 0x0, symName: __ZNSt3__119__throw_regex_errorB9nqe220106ILNS_15regex_constants10error_typeE17EEEvv, symObjAddr: 0xE9FC, symBinAddr: 0x36688, symSize: 0x4C }
  - { offset: 0x1703DD, size: 0x8, addend: 0x0, symName: __ZNSt3__119__throw_regex_errorB9nqe220106ILNS_15regex_constants10error_typeE14EEEvv, symObjAddr: 0xF294, symBinAddr: 0x36F20, symSize: 0x4C }
  - { offset: 0x170403, size: 0x8, addend: 0x0, symName: __ZNSt3__119__throw_regex_errorB9nqe220106ILNS_15regex_constants10error_typeE15EEEvv, symObjAddr: 0x156E8, symBinAddr: 0x3D360, symSize: 0x4C }
  - { offset: 0x170701, size: 0x8, addend: 0x0, symName: __ZNSt3__119__throw_regex_errorB9nqe220106ILNS_15regex_constants10error_typeE6EEEvv, symObjAddr: 0xFF24, symBinAddr: 0x37BB0, symSize: 0x4C }
  - { offset: 0x170727, size: 0x8, addend: 0x0, symName: __ZNSt3__119__throw_regex_errorB9nqe220106ILNS_15regex_constants10error_typeE11EEEvv, symObjAddr: 0x108D8, symBinAddr: 0x38564, symSize: 0x4C }
  - { offset: 0x17076B, size: 0x8, addend: 0x0, symName: __ZNSt3__119__throw_regex_errorB9nqe220106ILNS_15regex_constants10error_typeE7EEEvv, symObjAddr: 0x1512C, symBinAddr: 0x3CDA4, symSize: 0x4C }
  - { offset: 0x170791, size: 0x8, addend: 0x0, symName: __ZNSt3__119__throw_regex_errorB9nqe220106ILNS_15regex_constants10error_typeE8EEEvv, symObjAddr: 0x150E0, symBinAddr: 0x3CD58, symSize: 0x4C }
  - { offset: 0x1707DC, size: 0x8, addend: 0x0, symName: __ZNSt3__119__throw_regex_errorB9nqe220106ILNS_15regex_constants10error_typeE4EEEvv, symObjAddr: 0x11230, symBinAddr: 0x38EBC, symSize: 0x4C }
  - { offset: 0x170802, size: 0x8, addend: 0x0, symName: __ZNSt3__119__throw_regex_errorB9nqe220106ILNS_15regex_constants10error_typeE3EEEvv, symObjAddr: 0x10A30, symBinAddr: 0x386BC, symSize: 0x4C }
  - { offset: 0x170828, size: 0x8, addend: 0x0, symName: __ZNSt3__119__throw_regex_errorB9nqe220106ILNS_15regex_constants10error_typeE5EEEvv, symObjAddr: 0x12EC4, symBinAddr: 0x3AB3C, symSize: 0x4C }
  - { offset: 0x1711F9, size: 0x8, addend: 0x0, symName: __ZNSt3__119__throw_regex_errorB9nqe220106ILNS_15regex_constants10error_typeE1EEEvv, symObjAddr: 0x14210, symBinAddr: 0x3BE88, symSize: 0x4C }
  - { offset: 0x17121F, size: 0x8, addend: 0x0, symName: __ZNSt3__119__throw_regex_errorB9nqe220106ILNS_15regex_constants10error_typeE2EEEvv, symObjAddr: 0x147D4, symBinAddr: 0x3C44C, symSize: 0x4C }
  - { offset: 0x1712C5, size: 0x8, addend: 0x0, symName: __ZNSt3__119__throw_regex_errorB9nqe220106ILNS_15regex_constants10error_typeE9EEEvv, symObjAddr: 0x14BB8, symBinAddr: 0x3C830, symSize: 0x4C }
  - { offset: 0x17307F, size: 0x8, addend: 0x0, symName: __ZL11decode_utf8RKNSt3__112basic_stringIcNS_11char_traitsIcEENS_9allocatorIcEEEE18llama_partial_utf8, symObjAddr: 0x806C, symBinAddr: 0x30104, symSize: 0x354 }
  - { offset: 0x1730A9, size: 0x8, addend: 0x0, symName: __ZZL11decode_utf8RKNSt3__112basic_stringIcNS_11char_traitsIcEENS_9allocatorIcEEEE18llama_partial_utf8E6lookup, symObjAddr: 0x17B10, symBinAddr: 0x3B5468, symSize: 0x0 }
  - { offset: 0x173D06, size: 0x8, addend: 0x0, symName: __ZTVNSt3__111__end_stateIcEE, symObjAddr: 0x186C0, symBinAddr: 0x3FA730, symSize: 0x0 }
  - { offset: 0x173F5D, size: 0x8, addend: 0x0, symName: __ZTVNSt3__120__shared_ptr_pointerIPNS_13__empty_stateIcEENS_10shared_ptrIS2_E27__shared_ptr_default_deleteIS2_S2_EENS_9allocatorIS2_EEEE, symObjAddr: 0x18718, symBinAddr: 0x3FA788, symSize: 0x0 }
  - { offset: 0x174025, size: 0x8, addend: 0x0, symName: __ZTVNSt3__113__empty_stateIcEE, symObjAddr: 0x18768, symBinAddr: 0x3FA7D8, symSize: 0x0 }
  - { offset: 0x17403A, size: 0x8, addend: 0x0, symName: __ZTVNSt3__116__owns_one_stateIcEE, symObjAddr: 0x187E0, symBinAddr: 0x3FA850, symSize: 0x0 }
  - { offset: 0x17404F, size: 0x8, addend: 0x0, symName: __ZTVNSt3__120__l_anchor_multilineIcEE, symObjAddr: 0x18810, symBinAddr: 0x3FA880, symSize: 0x0 }
  - { offset: 0x174079, size: 0x8, addend: 0x0, symName: __ZTVNSt3__120__r_anchor_multilineIcEE, symObjAddr: 0x18858, symBinAddr: 0x3FA8C8, symSize: 0x0 }
  - { offset: 0x1740A3, size: 0x8, addend: 0x0, symName: __ZTVNSt3__115__word_boundaryIcNS_12regex_traitsIcEEEE, symObjAddr: 0x188A0, symBinAddr: 0x3FA910, symSize: 0x0 }
  - { offset: 0x17419B, size: 0x8, addend: 0x0, symName: __ZTVNSt3__111__lookaheadIcNS_12regex_traitsIcEEEE, symObjAddr: 0x188E8, symBinAddr: 0x3FA958, symSize: 0x0 }
  - { offset: 0x174530, size: 0x8, addend: 0x0, symName: __ZTVNSt3__123__match_any_but_newlineIcEE, symObjAddr: 0x18930, symBinAddr: 0x3FA9A0, symSize: 0x0 }
  - { offset: 0x17455A, size: 0x8, addend: 0x0, symName: __ZTVNSt3__118__match_char_icaseIcNS_12regex_traitsIcEEEE, symObjAddr: 0x18978, symBinAddr: 0x3FA9E8, symSize: 0x0 }
  - { offset: 0x174590, size: 0x8, addend: 0x0, symName: __ZTVNSt3__120__match_char_collateIcNS_12regex_traitsIcEEEE, symObjAddr: 0x189C0, symBinAddr: 0x3FAA30, symSize: 0x0 }
  - { offset: 0x1745C6, size: 0x8, addend: 0x0, symName: __ZTVNSt3__112__match_charIcEE, symObjAddr: 0x18A08, symBinAddr: 0x3FAA78, symSize: 0x0 }
  - { offset: 0x1745FC, size: 0x8, addend: 0x0, symName: __ZTVNSt3__116__back_ref_icaseIcNS_12regex_traitsIcEEEE, symObjAddr: 0x18A50, symBinAddr: 0x3FAAC0, symSize: 0x0 }
  - { offset: 0x174626, size: 0x8, addend: 0x0, symName: __ZTVNSt3__118__back_ref_collateIcNS_12regex_traitsIcEEEE, symObjAddr: 0x18A98, symBinAddr: 0x3FAB08, symSize: 0x0 }
  - { offset: 0x174650, size: 0x8, addend: 0x0, symName: __ZTVNSt3__110__back_refIcEE, symObjAddr: 0x18AE0, symBinAddr: 0x3FAB50, symSize: 0x0 }
  - { offset: 0x17467A, size: 0x8, addend: 0x0, symName: __ZTVNSt3__120__bracket_expressionIcNS_12regex_traitsIcEEEE, symObjAddr: 0x18B28, symBinAddr: 0x3FAB98, symSize: 0x0 }
  - { offset: 0x17468F, size: 0x8, addend: 0x0, symName: __ZTVNSt3__128__begin_marked_subexpressionIcEE, symObjAddr: 0x18B70, symBinAddr: 0x3FABE0, symSize: 0x0 }
  - { offset: 0x1746B9, size: 0x8, addend: 0x0, symName: __ZTVNSt3__126__end_marked_subexpressionIcEE, symObjAddr: 0x18BB8, symBinAddr: 0x3FAC28, symSize: 0x0 }
  - { offset: 0x1746E3, size: 0x8, addend: 0x0, symName: __ZTVNSt3__16__loopIcEE, symObjAddr: 0x18C00, symBinAddr: 0x3FAC70, symSize: 0x0 }
  - { offset: 0x174727, size: 0x8, addend: 0x0, symName: __ZTVNSt3__117__owns_two_statesIcEE, symObjAddr: 0x18C60, symBinAddr: 0x3FACD0, symSize: 0x0 }
  - { offset: 0x17473C, size: 0x8, addend: 0x0, symName: __ZTVNSt3__117__repeat_one_loopIcEE, symObjAddr: 0x18C90, symBinAddr: 0x3FAD00, symSize: 0x0 }
  - { offset: 0x174766, size: 0x8, addend: 0x0, symName: __ZTVNSt3__111__alternateIcEE, symObjAddr: 0x18CD8, symBinAddr: 0x3FAD48, symSize: 0x0 }
  - { offset: 0x174790, size: 0x8, addend: 0x0, symName: __ZTVNSt3__121__empty_non_own_stateIcEE, symObjAddr: 0x18D20, symBinAddr: 0x3FAD90, symSize: 0x0 }
  - { offset: 0x1747BA, size: 0x8, addend: 0x0, symName: __ZTVNSt3__111__match_anyIcEE, symObjAddr: 0x18D68, symBinAddr: 0x3FADD8, symSize: 0x0 }
  - { offset: 0x174FF4, size: 0x8, addend: 0x0, symName: __ZL27llama_grammar_advance_stackRKNSt3__16vectorINS0_I21llama_grammar_elementNS_9allocatorIS1_EEEENS2_IS4_EEEERKNS0_IPKS1_NS2_ISA_EEEERNS0_ISC_NS2_ISC_EEEE, symObjAddr: 0x58EC, symBinAddr: 0x2D984, symSize: 0x7E8 }
  - { offset: 0x178940, size: 0x8, addend: 0x0, symName: __ZNK29llama_grammar_trigger_pattern4findERKNSt3__112basic_stringIcNS0_11char_traitsIcEENS0_9allocatorIcEEEE, symObjAddr: 0x0, symBinAddr: 0x28140, symSize: 0x5A8 }
  - { offset: 0x17A8BB, size: 0x8, addend: 0x0, symName: __ZNKSt3__111basic_regexIcNS_12regex_traitsIcEEE8__searchINS_9allocatorINS_9sub_matchIPKcEEEEEEbS8_S8_RNS_13match_resultsIS8_T_EENS_15regex_constants15match_flag_typeE, symObjAddr: 0xA328, symBinAddr: 0x320A4, symSize: 0x308 }
  - { offset: 0x17AE10, size: 0x8, addend: 0x0, symName: __ZNSt3__16vectorINS_9sub_matchINS_11__wrap_iterIPKcEEEENS_9allocatorIS6_EEE6resizeEm, symObjAddr: 0xD628, symBinAddr: 0x353A4, symSize: 0x178 }
  - { offset: 0x17B385, size: 0x8, addend: 0x0, symName: __ZNSt3__16vectorINS_9sub_matchINS_11__wrap_iterIPKcEEEENS_9allocatorIS6_EEE20__throw_length_errorB9nqe220106Ev, symObjAddr: 0xD7A0, symBinAddr: 0x3551C, symSize: 0x14 }
  - { offset: 0x17C1F1, size: 0x8, addend: 0x0, symName: __ZN20llama_grammar_parser13get_symbol_idEPKcm, symObjAddr: 0x5A8, symBinAddr: 0x286E8, symSize: 0x108 }
  - { offset: 0x17C769, size: 0x8, addend: 0x0, symName: __ZNKSt3__111basic_regexIcNS_12regex_traitsIcEEE8__searchINS_9allocatorINS_9sub_matchIPKcEEEEEEbS8_S8_RNS_13match_resultsIS8_T_EENS_15regex_constants15match_flag_typeE, symObjAddr: 0xA328, symBinAddr: 0x320A4, symSize: 0x308 }
  - { offset: 0x17C774, size: 0x8, addend: 0x0, symName: __ZNSt3__112basic_stringIcNS_11char_traitsIcEENS_9allocatorIcEEEC1B9nqe220106EPKcm, symObjAddr: 0x6B0, symBinAddr: 0x287F0, symSize: 0x98 }
  - { offset: 0x17C9EE, size: 0x8, addend: 0x0, symName: __ZN20llama_grammar_parser18generate_symbol_idERKNSt3__112basic_stringIcNS0_11char_traitsIcEENS0_9allocatorIcEEEE, symObjAddr: 0x748, symBinAddr: 0x28888, symSize: 0x204 }
  - { offset: 0x17CBCC, size: 0x8, addend: 0x0, symName: __ZN20llama_grammar_parser18generate_symbol_idERKNSt3__112basic_stringIcNS0_11char_traitsIcEENS0_9allocatorIcEEEE, symObjAddr: 0x748, symBinAddr: 0x28888, symSize: 0x204 }
  - { offset: 0x17D70F, size: 0x8, addend: 0x0, symName: __ZN20llama_grammar_parser8add_ruleEjRKNSt3__16vectorI21llama_grammar_elementNS0_9allocatorIS2_EEEE, symObjAddr: 0x94C, symBinAddr: 0x28A8C, symSize: 0x84 }
  - { offset: 0x17D835, size: 0x8, addend: 0x0, symName: __ZNSt3__16vectorINS0_I21llama_grammar_elementNS_9allocatorIS1_EEEENS2_IS4_EEE6resizeEm, symObjAddr: 0x9D0, symBinAddr: 0x28B10, symSize: 0x1C0 }
  - { offset: 0x17DD9E, size: 0x8, addend: 0x0, symName: __ZN20llama_grammar_parser16parse_alternatesEPKcRKNSt3__112basic_stringIcNS2_11char_traitsIcEENS2_9allocatorIcEEEEjb, symObjAddr: 0xB90, symBinAddr: 0x28CD0, symSize: 0x21C }
  - { offset: 0x17DDA9, size: 0x8, addend: 0x0, symName: __ZNSt3__16vectorI21llama_grammar_elementNS_9allocatorIS1_EEE18__assign_with_sizeB9nqe220106INS_17_ClassicAlgPolicyEPS1_S7_EEvT0_T1_l, symObjAddr: 0xDA54, symBinAddr: 0x357D0, symSize: 0x12C }
  - { offset: 0x17E6F7, size: 0x8, addend: 0x0, symName: __ZZNSt3__16vectorI21llama_grammar_elementNS_9allocatorIS1_EEE12emplace_backIJS1_EEERS1_DpOT_ENKUlvE0_clEv, symObjAddr: 0xDB80, symBinAddr: 0x358FC, symSize: 0xDC }
  - { offset: 0x17EC29, size: 0x8, addend: 0x0, symName: __ZNSt3__16vectorINS0_I21llama_grammar_elementNS_9allocatorIS1_EEEENS2_IS4_EEE20__throw_length_errorB9nqe220106Ev, symObjAddr: 0xDA40, symBinAddr: 0x357BC, symSize: 0x14 }
  - { offset: 0x17EC41, size: 0x8, addend: 0x0, symName: __ZNSt3__16vectorI21llama_grammar_elementNS_9allocatorIS1_EEE18__assign_with_sizeB9nqe220106INS_17_ClassicAlgPolicyEPS1_S7_EEvT0_T1_l, symObjAddr: 0xDA54, symBinAddr: 0x357D0, symSize: 0x12C }
  - { offset: 0x17EE9D, size: 0x8, addend: 0x0, symName: __ZN20llama_grammar_parser16parse_alternatesEPKcRKNSt3__112basic_stringIcNS2_11char_traitsIcEENS2_9allocatorIcEEEEjb, symObjAddr: 0xB90, symBinAddr: 0x28CD0, symSize: 0x21C }
  - { offset: 0x17F52E, size: 0x8, addend: 0x0, symName: __ZN20llama_grammar_parser14parse_sequenceEPKcRKNSt3__112basic_stringIcNS2_11char_traitsIcEENS2_9allocatorIcEEEERNS2_6vectorI21llama_grammar_elementNS6_ISC_EEEEb, symObjAddr: 0xDAC, symBinAddr: 0x28EEC, symSize: 0x1CD4 }
  - { offset: 0x1827A3, size: 0x8, addend: 0x0, symName: __ZZNSt3__16vectorI21llama_grammar_elementNS_9allocatorIS1_EEE12emplace_backIJS1_EEERS1_DpOT_ENKUlvE0_clEv, symObjAddr: 0xDB80, symBinAddr: 0x358FC, symSize: 0xDC }
  - { offset: 0x182A8B, size: 0x8, addend: 0x0, symName: __ZNSt3__16__treeINS_12__value_typeIjNS_12basic_stringIcNS_11char_traitsIcEENS_9allocatorIcEEEEEENS_19__map_value_compareIjNS_4pairIKjS7_EENS_4lessIjEEEENS5_ISC_EEE14__tree_deleterclB9nqe220106EPNS_11__tree_nodeIS8_PvEE, symObjAddr: 0xDC5C, symBinAddr: 0x359D8, symSize: 0x64 }
  - { offset: 0x182E02, size: 0x8, addend: 0x0, symName: __ZL10parse_charPKc, symObjAddr: 0x2A80, symBinAddr: 0x2ABC0, symSize: 0x270 }
  - { offset: 0x18311E, size: 0x8, addend: 0x0, symName: __ZL9parse_intPKc, symObjAddr: 0x3708, symBinAddr: 0x2B7A0, symSize: 0x13C }
  - { offset: 0x1833BB, size: 0x8, addend: 0x0, symName: __ZL10parse_namePKc, symObjAddr: 0x2CF0, symBinAddr: 0x2AE30, symSize: 0x154 }
  - { offset: 0x18367A, size: 0x8, addend: 0x0, symName: '__ZZN20llama_grammar_parser14parse_sequenceEPKcRKNSt3__112basic_stringIcNS2_11char_traitsIcEENS2_9allocatorIcEEEERNS2_6vectorI21llama_grammar_elementNS6_ISC_EEEEbENK3$_0clEyy', symObjAddr: 0x2EEC, symBinAddr: 0x2AF84, symSize: 0x81C }
  - { offset: 0x184EC9, size: 0x8, addend: 0x0, symName: '__ZZN20llama_grammar_parser14parse_sequenceEPKcRKNSt3__112basic_stringIcNS2_11char_traitsIcEENS2_9allocatorIcEEEERNS2_6vectorI21llama_grammar_elementNS6_ISC_EEEEbENK3$_0clEyy', symObjAddr: 0x2EEC, symBinAddr: 0x2AF84, symSize: 0x81C }
  - { offset: 0x184ED4, size: 0x8, addend: 0x0, symName: __ZN20llama_grammar_parser14parse_sequenceEPKcRKNSt3__112basic_stringIcNS2_11char_traitsIcEENS2_9allocatorIcEEEERNS2_6vectorI21llama_grammar_elementNS6_ISC_EEEEb.cold.3, symObjAddr: 0x16B24, symBinAddr: 0x3636B0, symSize: 0xC }
  - { offset: 0x184EEC, size: 0x8, addend: 0x0, symName: __ZN20llama_grammar_parser14parse_sequenceEPKcRKNSt3__112basic_stringIcNS2_11char_traitsIcEENS2_9allocatorIcEEEERNS2_6vectorI21llama_grammar_elementNS6_ISC_EEEEb.cold.1, symObjAddr: 0x16B0C, symBinAddr: 0x363698, symSize: 0xC }
  - { offset: 0x184F04, size: 0x8, addend: 0x0, symName: __ZN20llama_grammar_parser14parse_sequenceEPKcRKNSt3__112basic_stringIcNS2_11char_traitsIcEENS2_9allocatorIcEEEERNS2_6vectorI21llama_grammar_elementNS6_ISC_EEEEb.cold.2, symObjAddr: 0x16B18, symBinAddr: 0x3636A4, symSize: 0xC }
  - { offset: 0x184F1C, size: 0x8, addend: 0x0, symName: __ZNSt3__16vectorI21llama_grammar_elementNS_9allocatorIS1_EEE20__throw_length_errorB9nqe220106Ev, symObjAddr: 0x9544, symBinAddr: 0x315CC, symSize: 0x14 }
  - { offset: 0x184FA9, size: 0x8, addend: 0x0, symName: __ZL9parse_hexPKci, symObjAddr: 0x91E4, symBinAddr: 0x3126C, symSize: 0x23C }
  - { offset: 0x18554C, size: 0x8, addend: 0x0, symName: __ZL10parse_charPKc.cold.1, symObjAddr: 0x16B30, symBinAddr: 0x3636BC, symSize: 0xC }
  - { offset: 0x185BCD, size: 0x8, addend: 0x0, symName: __ZNSt3__16vectorI21llama_grammar_elementNS_9allocatorIS1_EEE18__insert_with_sizeB9nqe220106INS_17_ClassicAlgPolicyENS_11__wrap_iterIPS1_EES9_EES9_NS7_IPKS1_EET0_T1_l, symObjAddr: 0x95F4, symBinAddr: 0x315E0, symSize: 0x2FC }
  - { offset: 0x1866F1, size: 0x8, addend: 0x0, symName: __ZNSt3__16vectorI21llama_grammar_elementNS_9allocatorIS1_EEE6resizeEm, symObjAddr: 0x9420, symBinAddr: 0x314A8, symSize: 0x124 }
  - { offset: 0x186B5B, size: 0x8, addend: 0x0, symName: __ZNSt3__16vectorI21llama_grammar_elementNS_9allocatorIS1_EEE20__throw_length_errorB9nqe220106Ev, symObjAddr: 0x9544, symBinAddr: 0x315CC, symSize: 0x14 }
  - { offset: 0x186B80, size: 0x8, addend: 0x0, symName: __ZN20llama_grammar_parser10parse_ruleEPKc, symObjAddr: 0x3844, symBinAddr: 0x2B8DC, symSize: 0x44C }
  - { offset: 0x187769, size: 0x8, addend: 0x0, symName: __ZN20llama_grammar_parser5parseEPKc, symObjAddr: 0x3C90, symBinAddr: 0x2BD28, symSize: 0x364 }
  - { offset: 0x188825, size: 0x8, addend: 0x0, symName: __ZN20llama_grammar_parser5printEP7__sFILE, symObjAddr: 0x3FF4, symBinAddr: 0x2C08C, symSize: 0x9D8 }
  - { offset: 0x18A3EE, size: 0x8, addend: 0x0, symName: __ZNSt3__16__treeINS_12__value_typeIjNS_12basic_stringIcNS_11char_traitsIcEENS_9allocatorIcEEEEEENS_19__map_value_compareIjNS_4pairIKjS7_EENS_4lessIjEEEENS5_ISC_EEE14__tree_deleterclB9nqe220106EPNS_11__tree_nodeIS8_PvEE, symObjAddr: 0xDC5C, symBinAddr: 0x359D8, symSize: 0x64 }
  - { offset: 0x18A650, size: 0x8, addend: 0x0, symName: __ZNSt3__13mapIjNS_12basic_stringIcNS_11char_traitsIcEENS_9allocatorIcEEEENS_4lessIjEENS4_INS_4pairIKjS6_EEEEED1B9nqe220106Ev, symObjAddr: 0x49CC, symBinAddr: 0x2CA64, symSize: 0x40 }
  - { offset: 0x18ABC1, size: 0x8, addend: 0x0, symName: __ZNK20llama_grammar_parser7c_rulesEv, symObjAddr: 0x4A0C, symBinAddr: 0x2CAA4, symSize: 0x108 }
  - { offset: 0x18B03D, size: 0x8, addend: 0x0, symName: __ZZNSt3__16vectorIPK21llama_grammar_elementNS_9allocatorIS3_EEE12emplace_backIJS3_EEERS3_DpOT_ENKUlvE0_clEv, symObjAddr: 0xDCC0, symBinAddr: 0x35A3C, symSize: 0xDC }
  - { offset: 0x18B325, size: 0x8, addend: 0x0, symName: __ZZNSt3__16vectorIPK21llama_grammar_elementNS_9allocatorIS3_EEE12emplace_backIJRKS3_EEERS3_DpOT_ENKUlvE0_clEv, symObjAddr: 0xDD9C, symBinAddr: 0x35B18, symSize: 0xDC }
  - { offset: 0x18B330, size: 0x8, addend: 0x0, symName: __ZNSt3__16vectorIPK21llama_grammar_elementNS_9allocatorIS3_EEE20__throw_length_errorB9nqe220106Ev, symObjAddr: 0x9E90, symBinAddr: 0x31C34, symSize: 0x14 }
  - { offset: 0x18B348, size: 0x8, addend: 0x0, symName: '__ZNSt3__16__treeINS_6vectorIPK21llama_grammar_elementNS_9allocatorIS4_EEEEZL27llama_grammar_advance_stackRKNS1_INS1_IS2_NS5_IS2_EEEENS5_IS9_EEEERKS7_RNS1_IS7_NS5_IS7_EEEEE3$_0SG_E14__tree_deleterclB9nqe220106EPNS_11__tree_nodeIS7_PvEE', symObjAddr: 0x9EA4, symBinAddr: 0x31C48, symSize: 0x54 }
  - { offset: 0x18B353, size: 0x8, addend: 0x0, symName: __Z23llama_grammar_get_rulesPK13llama_grammar, symObjAddr: 0x4B14, symBinAddr: 0x2CBAC, symSize: 0x8 }
  - { offset: 0x18B383, size: 0x8, addend: 0x0, symName: __Z24llama_grammar_get_stacksP13llama_grammar, symObjAddr: 0x4B1C, symBinAddr: 0x2CBB4, symSize: 0x8 }
  - { offset: 0x18B687, size: 0x8, addend: 0x0, symName: __Z20llama_grammar_acceptP13llama_grammarj, symObjAddr: 0x4B24, symBinAddr: 0x2CBBC, symSize: 0x138 }
  - { offset: 0x18BBB8, size: 0x8, addend: 0x0, symName: __ZL24llama_grammar_accept_chrR13llama_grammarRKNSt3__16vectorIPK21llama_grammar_elementNS1_9allocatorIS5_EEEEjRNS2_IS8_NS6_IS8_EEEE, symObjAddr: 0x4C5C, symBinAddr: 0x2CCF4, symSize: 0x2C4 }
  - { offset: 0x18C4E0, size: 0x8, addend: 0x0, symName: __ZNSt3__16vectorINS0_IPK21llama_grammar_elementNS_9allocatorIS3_EEEENS4_IS6_EEE20__throw_length_errorB9nqe220106Ev, symObjAddr: 0x9B44, symBinAddr: 0x31ABC, symSize: 0x14 }
  - { offset: 0x18C4F8, size: 0x8, addend: 0x0, symName: __ZNSt3__110unique_ptrINS_11__tree_nodeINS_6vectorIPK21llama_grammar_elementNS_9allocatorIS5_EEEEPvEENS_22__tree_node_destructorINS6_ISA_EEEEED1B9nqe220106Ev, symObjAddr: 0x9B58, symBinAddr: 0x31AD0, symSize: 0x60 }
  - { offset: 0x18C503, size: 0x8, addend: 0x0, symName: __ZNSt3__16vectorINS0_IPK21llama_grammar_elementNS_9allocatorIS3_EEEENS4_IS6_EEED1B9nqe220106Ev, symObjAddr: 0x4F20, symBinAddr: 0x2CFB8, symSize: 0x74 }
  - { offset: 0x18D3B7, size: 0x8, addend: 0x0, symName: __Z41llama_grammar_reject_candidates_for_stackRKNSt3__16vectorINS0_I21llama_grammar_elementNS_9allocatorIS1_EEEENS2_IS4_EEEERKNS0_IPKS1_NS2_ISA_EEEERKNS0_I23llama_grammar_candidateNS2_ISF_EEEE, symObjAddr: 0x4F94, symBinAddr: 0x2D02C, symSize: 0x958 }
  - { offset: 0x18F0A1, size: 0x8, addend: 0x0, symName: __ZZNSt3__16vectorI23llama_grammar_candidateNS_9allocatorIS1_EEE12emplace_backIJRKS1_EEERS1_DpOT_ENKUlvE0_clEv, symObjAddr: 0xDE8C, symBinAddr: 0x35C08, symSize: 0xD8 }
  - { offset: 0x18F3AA, size: 0x8, addend: 0x0, symName: __ZZNSt3__16vectorI23llama_grammar_candidateNS_9allocatorIS1_EEE12emplace_backIJS1_EEERS1_DpOT_ENKUlvE0_clEv, symObjAddr: 0xDF64, symBinAddr: 0x35CE0, symSize: 0xD8 }
  - { offset: 0x18F3BF, size: 0x8, addend: 0x0, symName: __ZZNSt3__16vectorI23llama_grammar_candidateNS_9allocatorIS1_EEE12emplace_backIJS1_EEERS1_DpOT_ENKUlvE0_clEv, symObjAddr: 0xDF64, symBinAddr: 0x35CE0, symSize: 0xD8 }
  - { offset: 0x18F6C8, size: 0x8, addend: 0x0, symName: __ZNSt3__128__exception_guard_exceptionsINS_6vectorINS1_I21llama_grammar_elementNS_9allocatorIS2_EEEENS3_IS5_EEE16__destroy_vectorEED1B9nqe220106Ev, symObjAddr: 0xE03C, symBinAddr: 0x35DB8, symSize: 0x84 }
  - { offset: 0x18F6D3, size: 0x8, addend: 0x0, symName: __ZL31llama_grammar_reject_candidatesRKNSt3__16vectorINS0_I21llama_grammar_elementNS_9allocatorIS1_EEEENS2_IS4_EEEERKNS0_INS0_IPKS1_NS2_ISA_EEEENS2_ISC_EEEERKNS0_I23llama_grammar_candidateNS2_ISH_EEEE, symObjAddr: 0x60D4, symBinAddr: 0x2E16C, symSize: 0x120 }
  - { offset: 0x18FA59, size: 0x8, addend: 0x0, symName: __ZNSt3__16vectorI23llama_grammar_candidateNS_9allocatorIS1_EEE20__throw_length_errorB9nqe220106Ev, symObjAddr: 0xDE78, symBinAddr: 0x35BF4, symSize: 0x14 }
  - { offset: 0x18FA71, size: 0x8, addend: 0x0, symName: __ZZNSt3__16vectorI23llama_grammar_candidateNS_9allocatorIS1_EEE12emplace_backIJRKS1_EEERS1_DpOT_ENKUlvE0_clEv, symObjAddr: 0xDE8C, symBinAddr: 0x35C08, symSize: 0xD8 }
  - { offset: 0x190A31, size: 0x8, addend: 0x0, symName: __ZNSt3__16vectorINS0_IPK21llama_grammar_elementNS_9allocatorIS3_EEEENS4_IS6_EEE24__emplace_back_slow_pathIJRKS6_EEEPS6_DpOT_, symObjAddr: 0x9964, symBinAddr: 0x318DC, symSize: 0x174 }
  - { offset: 0x1911AF, size: 0x8, addend: 0x0, symName: __ZZNSt3__16vectorINS0_IPK21llama_grammar_elementNS_9allocatorIS3_EEEENS4_IS6_EEE12emplace_backIJS6_EEERS6_DpOT_ENKUlvE0_clEv, symObjAddr: 0x9D8C, symBinAddr: 0x31B30, symSize: 0x104 }
  - { offset: 0x1914F6, size: 0x8, addend: 0x0, symName: __ZNSt3__16vectorIPK21llama_grammar_elementNS_9allocatorIS3_EEE20__throw_length_errorB9nqe220106Ev, symObjAddr: 0x9E90, symBinAddr: 0x31C34, symSize: 0x14 }
  - { offset: 0x191501, size: 0x8, addend: 0x0, symName: __ZZNSt3__16vectorIPK21llama_grammar_elementNS_9allocatorIS3_EEE12emplace_backIJRKS3_EEERS3_DpOT_ENKUlvE0_clEv, symObjAddr: 0xDD9C, symBinAddr: 0x35B18, symSize: 0xDC }
  - { offset: 0x1917E9, size: 0x8, addend: 0x0, symName: __ZNSt3__16vectorI23llama_grammar_candidateNS_9allocatorIS1_EEE20__throw_length_errorB9nqe220106Ev, symObjAddr: 0xDE78, symBinAddr: 0x35BF4, symSize: 0x14 }
  - { offset: 0x1917F4, size: 0x8, addend: 0x0, symName: '__ZNSt3__16__treeINS_6vectorIPK21llama_grammar_elementNS_9allocatorIS4_EEEEZL27llama_grammar_advance_stackRKNS1_INS1_IS2_NS5_IS2_EEEENS5_IS9_EEEERKS7_RNS1_IS7_NS5_IS7_EEEEE3$_0SG_E14__tree_deleterclB9nqe220106EPNS_11__tree_nodeIS7_PvEE', symObjAddr: 0x9EA4, symBinAddr: 0x31C48, symSize: 0x54 }
  - { offset: 0x191A10, size: 0x8, addend: 0x0, symName: __ZNSt3__110unique_ptrINS_11__tree_nodeINS_6vectorIPK21llama_grammar_elementNS_9allocatorIS5_EEEEPvEENS_22__tree_node_destructorINS6_ISA_EEEEED1B9nqe220106Ev, symObjAddr: 0x9B58, symBinAddr: 0x31AD0, symSize: 0x60 }
  - { offset: 0x192329, size: 0x8, addend: 0x0, symName: __Z23llama_grammar_init_implPK11llama_vocabPPK21llama_grammar_elementmm, symObjAddr: 0x61F4, symBinAddr: 0x2E28C, symSize: 0x598 }
  - { offset: 0x193ED3, size: 0x8, addend: 0x0, symName: __ZL35llama_grammar_detect_left_recursionRKNSt3__16vectorINS0_I21llama_grammar_elementNS_9allocatorIS1_EEEENS2_IS4_EEEEmPNS0_IbNS2_IbEEEESB_SB_, symObjAddr: 0x678C, symBinAddr: 0x2E824, symSize: 0x184 }
  - { offset: 0x194243, size: 0x8, addend: 0x0, symName: __ZNSt3__16vectorINS0_I21llama_grammar_elementNS_9allocatorIS1_EEEENS2_IS4_EEED1B9nqe220106Ev, symObjAddr: 0x6910, symBinAddr: 0x2E9A8, symSize: 0x74 }
  - { offset: 0x19448A, size: 0x8, addend: 0x0, symName: __ZNSt3__128__exception_guard_exceptionsINS_6vectorINS1_I21llama_grammar_elementNS_9allocatorIS2_EEEENS3_IS5_EEE16__destroy_vectorEED1B9nqe220106Ev, symObjAddr: 0xE03C, symBinAddr: 0x35DB8, symSize: 0x84 }
  - { offset: 0x1952FC, size: 0x8, addend: 0x0, symName: __Z23llama_grammar_init_implPK11llama_vocabPKcS3_bPS3_mPKim, symObjAddr: 0x6984, symBinAddr: 0x2EA1C, symSize: 0xC54 }
  - { offset: 0x198BC8, size: 0x8, addend: 0x0, symName: __ZNSt3__16__treeINS_12__value_typeINS_12basic_stringIcNS_11char_traitsIcEENS_9allocatorIcEEEEjEENS_19__map_value_compareIS7_NS_4pairIKS7_jEENS_4lessIS7_EEEENS5_ISC_EEE14__tree_deleterclB9nqe220106EPNS_11__tree_nodeIS8_PvEE, symObjAddr: 0x9F5C, symBinAddr: 0x31D00, symSize: 0x64 }
  - { offset: 0x199034, size: 0x8, addend: 0x0, symName: __ZNSt3__111basic_regexIcNS_12regex_traitsIcEEEC2B9nqe220106INS_11char_traitsIcEENS_9allocatorIcEEEERKNS_12basic_stringIcT_T0_EENS_15regex_constants18syntax_option_typeE, symObjAddr: 0xE720, symBinAddr: 0x363AC, symSize: 0xD4 }
  - { offset: 0x1991FC, size: 0x8, addend: 0x0, symName: __ZN20llama_grammar_parserD1Ev, symObjAddr: 0x76FC, symBinAddr: 0x2F794, symSize: 0x94 }
  - { offset: 0x199577, size: 0x8, addend: 0x0, symName: __ZNSt3__16vectorI29llama_grammar_trigger_patternNS_9allocatorIS1_EEED1B9nqe220106Ev, symObjAddr: 0x763C, symBinAddr: 0x2F6D4, symSize: 0xC0 }
  - { offset: 0x1998E8, size: 0x8, addend: 0x0, symName: __ZNSt3__111basic_regexIcNS_12regex_traitsIcEEED1Ev, symObjAddr: 0x75D8, symBinAddr: 0x2F670, symSize: 0x64 }
  - { offset: 0x199C43, size: 0x8, addend: 0x0, symName: __Z23llama_grammar_free_implP13llama_grammar, symObjAddr: 0x7790, symBinAddr: 0x2F828, symSize: 0x1C }
  - { offset: 0x199C98, size: 0x8, addend: 0x0, symName: __ZN13llama_grammarD2Ev, symObjAddr: 0x9FC0, symBinAddr: 0x31D64, symSize: 0x188 }
  - { offset: 0x19B13D, size: 0x8, addend: 0x0, symName: __Z24llama_grammar_clone_implRK13llama_grammar, symObjAddr: 0x77AC, symBinAddr: 0x2F844, symSize: 0x4C0 }
  - { offset: 0x19C19A, size: 0x8, addend: 0x0, symName: __ZNSt3__135__uninitialized_allocator_copy_implB9nqe220106INS_9allocatorINS_6vectorI21llama_grammar_elementNS1_IS3_EEEEEEPS5_S7_S7_EET2_RT_T0_T1_S8_, symObjAddr: 0x1624C, symBinAddr: 0x3DE34, symSize: 0xF8 }
  - { offset: 0x19C1A5, size: 0x8, addend: 0x0, symName: __ZNSt3__16vectorI29llama_grammar_trigger_patternNS_9allocatorIS1_EEE18__construct_at_endIPS1_S6_EEvT_T0_m, symObjAddr: 0x165AC, symBinAddr: 0x3E194, symSize: 0x118 }
  - { offset: 0x19C5A1, size: 0x8, addend: 0x0, symName: __ZNSt3__16vectorINS_4pairIiNS1_ImmEEEENS_9allocatorIS3_EEE20__throw_length_errorB9nqe220106Ev, symObjAddr: 0x16598, symBinAddr: 0x3E180, symSize: 0x14 }
  - { offset: 0x19C5B9, size: 0x8, addend: 0x0, symName: __ZNSt3__16vectorI29llama_grammar_trigger_patternNS_9allocatorIS1_EEE18__construct_at_endIPS1_S6_EEvT_T0_m, symObjAddr: 0x165AC, symBinAddr: 0x3E194, symSize: 0x118 }
  - { offset: 0x19C5CE, size: 0x8, addend: 0x0, symName: __ZNSt3__116__if_likely_elseB9nqe220106IZNS_6vectorI29llama_grammar_trigger_patternNS_9allocatorIS2_EEE12emplace_backIJEEERS2_DpOT_EUlvE_ZNS6_IJEEES7_SA_EUlvE0_EEvbT_T0_, symObjAddr: 0xE1B0, symBinAddr: 0x35E3C, symSize: 0xDC }
  - { offset: 0x19C5D9, size: 0x8, addend: 0x0, symName: __ZNSt3__16vectorI29llama_grammar_trigger_patternNS_9allocatorIS1_EEE20__throw_length_errorB9nqe220106Ev, symObjAddr: 0xE558, symBinAddr: 0x361E4, symSize: 0x14 }
  - { offset: 0x19C5F1, size: 0x8, addend: 0x0, symName: __ZNSt3__134__uninitialized_allocator_relocateB9nqe220106INS_9allocatorI29llama_grammar_trigger_patternEEPS2_EEvRT_T0_S7_S7_, symObjAddr: 0xE56C, symBinAddr: 0x361F8, symSize: 0xFC }
  - { offset: 0x19C5FC, size: 0x8, addend: 0x0, symName: __ZNSt3__128__exception_guard_exceptionsINS_6vectorINS1_IPK21llama_grammar_elementNS_9allocatorIS4_EEEENS5_IS7_EEE16__destroy_vectorEED1B9nqe220106Ev, symObjAddr: 0x163B0, symBinAddr: 0x3DF98, symSize: 0x84 }
  - { offset: 0x19C855, size: 0x8, addend: 0x0, symName: __ZNSt3__128__exception_guard_exceptionsINS_6vectorI29llama_grammar_trigger_patternNS_9allocatorIS2_EEE16__destroy_vectorEED1B9nqe220106Ev, symObjAddr: 0x166C4, symBinAddr: 0x3E2AC, symSize: 0xD8 }
  - { offset: 0x19D2F4, size: 0x8, addend: 0x0, symName: __Z24llama_grammar_apply_implRK13llama_grammarP22llama_token_data_array, symObjAddr: 0x7C6C, symBinAddr: 0x2FD04, symSize: 0x400 }
  - { offset: 0x19E42F, size: 0x8, addend: 0x0, symName: __ZZNSt3__16vectorINS_4pairINS0_IjNS_9allocatorIjEEEE18llama_partial_utf8EENS2_IS6_EEE12emplace_backIJS6_EEERS6_DpOT_ENKUlvE0_clEv, symObjAddr: 0x167B0, symBinAddr: 0x3E398, symSize: 0xEC }
  - { offset: 0x19E7BC, size: 0x8, addend: 0x0, symName: __ZZNSt3__16vectorINS_4pairIiNS1_ImmEEEENS_9allocatorIS3_EEE12emplace_backIJS3_EEERS3_DpOT_ENKUlvE0_clEv, symObjAddr: 0x1689C, symBinAddr: 0x3E484, symSize: 0xFC }
  - { offset: 0x19E7C7, size: 0x8, addend: 0x0, symName: __ZNSt3__16vectorINS_4pairINS0_IjNS_9allocatorIjEEEE18llama_partial_utf8EENS2_IS6_EEE20__throw_length_errorB9nqe220106Ev, symObjAddr: 0x1679C, symBinAddr: 0x3E384, symSize: 0x14 }
  - { offset: 0x19E7DF, size: 0x8, addend: 0x0, symName: __ZZNSt3__16vectorINS_4pairINS0_IjNS_9allocatorIjEEEE18llama_partial_utf8EENS2_IS6_EEE12emplace_backIJS6_EEERS6_DpOT_ENKUlvE0_clEv, symObjAddr: 0x167B0, symBinAddr: 0x3E398, symSize: 0xEC }
  - { offset: 0x19E7EA, size: 0x8, addend: 0x0, symName: __ZNSt3__16vectorINS_4pairINS0_IjNS_9allocatorIjEEEE18llama_partial_utf8EENS2_IS6_EEED1B9nqe220106Ev, symObjAddr: 0x83C0, symBinAddr: 0x30458, symSize: 0x74 }
  - { offset: 0x19F00F, size: 0x8, addend: 0x0, symName: __ZZNSt3__16vectorIjNS_9allocatorIjEEE12emplace_backIJRKjEEERjDpOT_ENKUlvE0_clEv, symObjAddr: 0xA238, symBinAddr: 0x31FC8, symSize: 0xDC }
  - { offset: 0x19F315, size: 0x8, addend: 0x0, symName: __ZZNSt3__16vectorIjNS_9allocatorIjEEE12emplace_backIJjEEERjDpOT_ENKUlvE0_clEv, symObjAddr: 0xA15C, symBinAddr: 0x31EEC, symSize: 0xDC }
  - { offset: 0x19F606, size: 0x8, addend: 0x0, symName: __ZZNSt3__16vectorIjNS_9allocatorIjEEE12emplace_backIJRKjEEERjDpOT_ENKUlvE0_clEv, symObjAddr: 0xA238, symBinAddr: 0x31FC8, symSize: 0xDC }
  - { offset: 0x19F61B, size: 0x8, addend: 0x0, symName: __ZZNSt3__16vectorIjNS_9allocatorIjEEE12emplace_backIJjEEERjDpOT_ENKUlvE0_clEv, symObjAddr: 0xA15C, symBinAddr: 0x31EEC, symSize: 0xDC }
  - { offset: 0x19FA94, size: 0x8, addend: 0x0, symName: __Z25llama_grammar_accept_implR13llama_grammari, symObjAddr: 0x8434, symBinAddr: 0x304CC, symSize: 0x4A4 }
  - { offset: 0x1A0F15, size: 0x8, addend: 0x0, symName: __Z26llama_grammar_accept_tokenR13llama_grammariRKNSt3__112basic_stringIcNS1_11char_traitsIcEENS1_9allocatorIcEEEE, symObjAddr: 0x88D8, symBinAddr: 0x30970, symSize: 0x7C0 }
  - { offset: 0x1A3C9C, size: 0x8, addend: 0x0, symName: __ZZNSt3__16vectorINS_4pairIiNS1_ImmEEEENS_9allocatorIS3_EEE12emplace_backIJS3_EEERS3_DpOT_ENKUlvE0_clEv, symObjAddr: 0x1689C, symBinAddr: 0x3E484, symSize: 0xFC }
  - { offset: 0x1A3F82, size: 0x8, addend: 0x0, symName: __ZNSt3__16vectorINS0_IPK21llama_grammar_elementNS_9allocatorIS3_EEEENS4_IS6_EEE24__emplace_back_slow_pathIJRS6_EEEPS6_DpOT_, symObjAddr: 0x16998, symBinAddr: 0x3E580, symSize: 0x174 }
  - { offset: 0x1A3F97, size: 0x8, addend: 0x0, symName: __ZNSt3__14pairINS_12basic_stringIcNS_11char_traitsIcEENS_9allocatorIcEEEES6_ED1Ev, symObjAddr: 0x126A8, symBinAddr: 0x3A320, symSize: 0x58 }
  - { offset: 0x1A43BB, size: 0x8, addend: 0x0, symName: __ZNSt3__16vectorINS0_IPK21llama_grammar_elementNS_9allocatorIS3_EEEENS4_IS6_EEE24__emplace_back_slow_pathIJRS6_EEEPS6_DpOT_, symObjAddr: 0x16998, symBinAddr: 0x3E580, symSize: 0x174 }
  - { offset: 0x1A4B13, size: 0x8, addend: 0x0, symName: __ZNSt3__128__exception_guard_exceptionsINS_29_AllocatorDestroyRangeReverseINS_9allocatorINS_6vectorIPK21llama_grammar_elementNS2_IS6_EEEEEEPS8_EEED1B9nqe220106Ev, symObjAddr: 0x1652C, symBinAddr: 0x3E114, symSize: 0x6C }
  - { offset: 0x1A4CC0, size: 0x8, addend: 0x0, symName: __Z24llama_grammar_accept_strR13llama_grammarRKNSt3__112basic_stringIcNS1_11char_traitsIcEENS1_9allocatorIcEEEE, symObjAddr: 0x9098, symBinAddr: 0x31130, symSize: 0x13C }
  - { offset: 0x1A54BA, size: 0x8, addend: 0x0, symName: __ZNSt3__114__split_bufferINS_6vectorIPK21llama_grammar_elementNS_9allocatorIS4_EEEERNS5_IS7_EEED1Ev, symObjAddr: 0x9AD8, symBinAddr: 0x31A50, symSize: 0x6C }
  - { offset: 0x1A5884, size: 0x8, addend: 0x0, symName: __ZNSt3__110shared_ptrINS_13__empty_stateIcEEED1B9nqe220106Ev, symObjAddr: 0x9EF8, symBinAddr: 0x31C9C, symSize: 0x64 }
  - { offset: 0x1A5CC9, size: 0x8, addend: 0x0, symName: __ZNSt3__16vectorINS_9sub_matchIPKcEENS_9allocatorIS4_EEE6assignEmRKS4_, symObjAddr: 0xA630, symBinAddr: 0x323AC, symSize: 0x1DC }
  - { offset: 0x1A626E, size: 0x8, addend: 0x0, symName: __ZNKSt3__111basic_regexIcNS_12regex_traitsIcEEE21__match_at_start_ecmaINS_9allocatorINS_9sub_matchIPKcEEEEEEbS8_S8_RNS_13match_resultsIS8_T_EENS_15regex_constants15match_flag_typeEb, symObjAddr: 0xA80C, symBinAddr: 0x32588, symSize: 0x42C }
  - { offset: 0x1A6279, size: 0x8, addend: 0x0, symName: __ZNKSt3__111basic_regexIcNS_12regex_traitsIcEEE27__match_at_start_posix_subsINS_9allocatorINS_9sub_matchIPKcEEEEEEbS8_S8_RNS_13match_resultsIS8_T_EENS_15regex_constants15match_flag_typeEb, symObjAddr: 0xB498, symBinAddr: 0x33214, symSize: 0x564 }
  - { offset: 0x1A7D5F, size: 0x8, addend: 0x0, symName: __ZNKSt3__111basic_regexIcNS_12regex_traitsIcEEE21__match_at_start_ecmaINS_9allocatorINS_9sub_matchIPKcEEEEEEbS8_S8_RNS_13match_resultsIS8_T_EENS_15regex_constants15match_flag_typeEb, symObjAddr: 0xA80C, symBinAddr: 0x32588, symSize: 0x42C }
  - { offset: 0x1A8DF5, size: 0x8, addend: 0x0, symName: __ZNKSt3__111basic_regexIcNS_12regex_traitsIcEEE29__match_at_start_posix_nosubsINS_9allocatorINS_9sub_matchIPKcEEEEEEbS8_S8_RNS_13match_resultsIS8_T_EENS_15regex_constants15match_flag_typeEb, symObjAddr: 0xAC38, symBinAddr: 0x329B4, symSize: 0x860 }
  - { offset: 0x1AAC53, size: 0x8, addend: 0x0, symName: __ZNSt3__16vectorINS_9sub_matchIPKcEENS_9allocatorIS4_EEE20__throw_length_errorB9nqe220106Ev, symObjAddr: 0xC138, symBinAddr: 0x33EB4, symSize: 0x14 }
  - { offset: 0x1AAC6B, size: 0x8, addend: 0x0, symName: __ZNSt3__16vectorINS_4pairImPKcEENS_9allocatorIS4_EEE20__throw_length_errorB9nqe220106Ev, symObjAddr: 0xC14C, symBinAddr: 0x33EC8, symSize: 0x14 }
  - { offset: 0x1AB383, size: 0x8, addend: 0x0, symName: __ZNSt3__16vectorINS_7__stateIcEENS_9allocatorIS2_EEE24__emplace_back_slow_pathIJS2_EEEPS2_DpOT_, symObjAddr: 0xBE10, symBinAddr: 0x33B8C, symSize: 0x17C }
  - { offset: 0x1AB9A5, size: 0x8, addend: 0x0, symName: __ZNSt3__16vectorINS_9sub_matchIPKcEENS_9allocatorIS4_EEE6resizeEmRKS4_, symObjAddr: 0xBA3C, symBinAddr: 0x337B8, symSize: 0x198 }
  - { offset: 0x1ABEE4, size: 0x8, addend: 0x0, symName: __ZNSt3__16vectorINS_4pairImPKcEENS_9allocatorIS4_EEE6resizeEm, symObjAddr: 0xBBD4, symBinAddr: 0x33950, symSize: 0x124 }
  - { offset: 0x1ABEEF, size: 0x8, addend: 0x0, symName: __ZNSt3__16vectorINS_4pairImPKcEENS_9allocatorIS4_EEE6resizeEm, symObjAddr: 0xBBD4, symBinAddr: 0x33950, symSize: 0x124 }
  - { offset: 0x1AC3C6, size: 0x8, addend: 0x0, symName: __ZNSt3__119__throw_regex_errorB9nqe220106ILNS_15regex_constants10error_typeE12EEEvv, symObjAddr: 0xBCF8, symBinAddr: 0x33A74, symSize: 0x4C }
  - { offset: 0x1AC3D1, size: 0x8, addend: 0x0, symName: __ZNSt3__17__stateIcEC2ERKS1_, symObjAddr: 0xC160, symBinAddr: 0x33EDC, symSize: 0x16C }
  - { offset: 0x1AC9C3, size: 0x8, addend: 0x0, symName: __ZNSt3__16vectorINS_7__stateIcEENS_9allocatorIS2_EEED1B9nqe220106Ev, symObjAddr: 0xBD90, symBinAddr: 0x33B0C, symSize: 0x80 }
  - { offset: 0x1ACD5D, size: 0x8, addend: 0x0, symName: __ZNSt3__17__stateIcED1Ev, symObjAddr: 0xB9FC, symBinAddr: 0x33778, symSize: 0x40 }
  - { offset: 0x1AD415, size: 0x8, addend: 0x0, symName: __ZNSt3__15dequeINS_7__stateIcEENS_9allocatorIS2_EEE19__add_back_capacityEv, symObjAddr: 0xC498, symBinAddr: 0x34214, symSize: 0x334 }
  - { offset: 0x1ADFD1, size: 0x8, addend: 0x0, symName: __ZNSt3__15dequeINS_7__stateIcEENS_9allocatorIS2_EEE20__add_front_capacityEv, symObjAddr: 0xCC30, symBinAddr: 0x349AC, symSize: 0x3A0 }
  - { offset: 0x1AEC55, size: 0x8, addend: 0x0, symName: __ZNSt3__15dequeINS_7__stateIcEENS_9allocatorIS2_EEED1B9nqe220106Ev, symObjAddr: 0xC428, symBinAddr: 0x341A4, symSize: 0x70 }
  - { offset: 0x1AEF6E, size: 0x8, addend: 0x0, symName: __ZNSt3__16vectorINS_9sub_matchIPKcEENS_9allocatorIS4_EEE18__assign_with_sizeB9nqe220106INS_17_ClassicAlgPolicyEPS4_SA_EEvT0_T1_l, symObjAddr: 0xD154, symBinAddr: 0x34ED0, symSize: 0x204 }
  - { offset: 0x1AF654, size: 0x8, addend: 0x0, symName: __ZNSt3__16vectorINS_4pairImPKcEENS_9allocatorIS4_EEE18__assign_with_sizeB9nqe220106INS_17_ClassicAlgPolicyEPS4_SA_EEvT0_T1_l, symObjAddr: 0xD358, symBinAddr: 0x350D4, symSize: 0x2D0 }
  - { offset: 0x1AF67A, size: 0x8, addend: 0x0, symName: __ZNSt3__16vectorINS_4pairImPKcEENS_9allocatorIS4_EEE18__assign_with_sizeB9nqe220106INS_17_ClassicAlgPolicyEPS4_SA_EEvT0_T1_l, symObjAddr: 0xD358, symBinAddr: 0x350D4, symSize: 0x2D0 }
  - { offset: 0x1AFD1C, size: 0x8, addend: 0x0, symName: __ZNSt3__16vectorINS_9sub_matchINS_11__wrap_iterIPKcEEEENS_9allocatorIS6_EEE6resizeEm, symObjAddr: 0xD628, symBinAddr: 0x353A4, symSize: 0x178 }
  - { offset: 0x1B039E, size: 0x8, addend: 0x0, symName: __ZNSt3__16vectorINS_4pairImPKcEENS_9allocatorIS4_EEE20__throw_length_errorB9nqe220106Ev, symObjAddr: 0xC14C, symBinAddr: 0x33EC8, symSize: 0x14 }
  - { offset: 0x1B03B6, size: 0x8, addend: 0x0, symName: __ZNSt3__17__stateIcEC2ERKS1_, symObjAddr: 0xC160, symBinAddr: 0x33EDC, symSize: 0x16C }
  - { offset: 0x1B0561, size: 0x8, addend: 0x0, symName: __ZNSt3__16vectorINS_7__stateIcEENS_9allocatorIS2_EEE26__swap_out_circular_bufferERNS_14__split_bufferIS2_RS4_EE, symObjAddr: 0xBF8C, symBinAddr: 0x33D08, symSize: 0x124 }
  - { offset: 0x1B0A99, size: 0x8, addend: 0x0, symName: __ZNSt3__16vectorINS_7__stateIcEENS_9allocatorIS2_EEE20__throw_length_errorB9nqe220106Ev, symObjAddr: 0xC124, symBinAddr: 0x33EA0, symSize: 0x14 }
  - { offset: 0x1B0AB1, size: 0x8, addend: 0x0, symName: __ZNSt3__16vectorINS_9sub_matchIPKcEENS_9allocatorIS4_EEE20__throw_length_errorB9nqe220106Ev, symObjAddr: 0xC138, symBinAddr: 0x33EB4, symSize: 0x14 }
  - { offset: 0x1B0ABC, size: 0x8, addend: 0x0, symName: __ZNSt3__114__split_bufferINS_7__stateIcEERNS_9allocatorIS2_EEED1Ev, symObjAddr: 0xC0B0, symBinAddr: 0x33E2C, symSize: 0x74 }
  - { offset: 0x1B1213, size: 0x8, addend: 0x0, symName: __ZNSt3__15dequeINS_7__stateIcEENS_9allocatorIS2_EEE5clearEv, symObjAddr: 0xC2CC, symBinAddr: 0x34048, symSize: 0x15C }
  - { offset: 0x1B1B71, size: 0x8, addend: 0x0, symName: __ZNSt3__114__split_bufferIPNS_7__stateIcEENS_9allocatorIS3_EEE12emplace_backIJRS3_EEEvDpOT_, symObjAddr: 0xC7CC, symBinAddr: 0x34548, symSize: 0x170 }
  - { offset: 0x1B1F9E, size: 0x8, addend: 0x0, symName: __ZNSt3__114__split_bufferIPNS_7__stateIcEENS_9allocatorIS3_EEE12emplace_backIJS3_EEEvDpOT_, symObjAddr: 0xC93C, symBinAddr: 0x346B8, symSize: 0x170 }
  - { offset: 0x1B1FB4, size: 0x8, addend: 0x0, symName: __ZNSt3__114__split_bufferIPNS_7__stateIcEENS_9allocatorIS3_EEE12emplace_backIJS3_EEEvDpOT_, symObjAddr: 0xC93C, symBinAddr: 0x346B8, symSize: 0x170 }
  - { offset: 0x1B23E1, size: 0x8, addend: 0x0, symName: __ZNSt3__114__split_bufferIPNS_7__stateIcEENS_9allocatorIS3_EEE13emplace_frontIJS3_EEEvDpOT_, symObjAddr: 0xCAAC, symBinAddr: 0x34828, symSize: 0x184 }
  - { offset: 0x1B23F7, size: 0x8, addend: 0x0, symName: __ZNSt3__114__split_bufferIPNS_7__stateIcEENS_9allocatorIS3_EEE13emplace_frontIJS3_EEEvDpOT_, symObjAddr: 0xCAAC, symBinAddr: 0x34828, symSize: 0x184 }
  - { offset: 0x1B2824, size: 0x8, addend: 0x0, symName: __ZNSt3__15dequeINS_7__stateIcEENS_9allocatorIS2_EEE20__add_front_capacityEv, symObjAddr: 0xCC30, symBinAddr: 0x349AC, symSize: 0x3A0 }
  - { offset: 0x1B2904, size: 0x8, addend: 0x0, symName: __ZNSt3__114__split_bufferIPNS_7__stateIcEENS_9allocatorIS3_EEE13emplace_frontIJRS3_EEEvDpOT_, symObjAddr: 0xCFD0, symBinAddr: 0x34D4C, symSize: 0x184 }
  - { offset: 0x1B2D31, size: 0x8, addend: 0x0, symName: __ZNSt3__16vectorINS_9sub_matchIPKcEENS_9allocatorIS4_EEE18__assign_with_sizeB9nqe220106INS_17_ClassicAlgPolicyEPS4_SA_EEvT0_T1_l, symObjAddr: 0xD154, symBinAddr: 0x34ED0, symSize: 0x204 }
  - { offset: 0x1B328F, size: 0x8, addend: 0x0, symName: __ZNSt3__16vectorINS_9sub_matchINS_11__wrap_iterIPKcEEEENS_9allocatorIS6_EEE20__throw_length_errorB9nqe220106Ev, symObjAddr: 0xD7A0, symBinAddr: 0x3551C, symSize: 0x14 }
  - { offset: 0x1B32A7, size: 0x8, addend: 0x0, symName: __ZNSt3__125__try_key_extraction_implB9nqe220106INS_12basic_stringIcNS_11char_traitsIcEENS_9allocatorIcEEEENS_4pairINS_15__tree_iteratorINS_12__value_typeIS6_jEEPNS_11__tree_nodeISA_PvEElEEbEEZNS_6__treeISA_NS_19__map_value_compareIS6_NS7_IKS6_jEENS_4lessIS6_EEEENS4_ISK_EEE16__emplace_uniqueB9nqe220106IJS6_RjEEESG_DpOT_EUlRSJ_OS6_SR_E_ZNSQ_IJS6_SR_EEESG_SU_EUlSW_SR_E_S6_SR_Li0EEET0_NS_14__priority_tagILm1EEET1_T2_OT3_OT4_, symObjAddr: 0xD7B4, symBinAddr: 0x35530, symSize: 0x144 }
  - { offset: 0x1B3FFC, size: 0x8, addend: 0x0, symName: __ZNSt3__16vectorI29llama_grammar_trigger_patternNS_9allocatorIS1_EEE24__emplace_back_slow_pathIJEEEPS1_DpOT_, symObjAddr: 0xE2F8, symBinAddr: 0x35F84, symSize: 0x1B0 }
  - { offset: 0x1B44F7, size: 0x8, addend: 0x0, symName: __ZNSt3__111basic_regexIcNS_12regex_traitsIcEEEC1B9nqe220106Ev, symObjAddr: 0xE28C, symBinAddr: 0x35F18, symSize: 0x6C }
  - { offset: 0x1B470A, size: 0x8, addend: 0x0, symName: __ZNSt3__114__split_bufferI29llama_grammar_trigger_patternRNS_9allocatorIS1_EEED1Ev, symObjAddr: 0xE4A8, symBinAddr: 0x36134, symSize: 0xB0 }
  - { offset: 0x1B4C38, size: 0x8, addend: 0x0, symName: __ZNSt3__128__exception_guard_exceptionsINS_29_AllocatorDestroyRangeReverseINS_9allocatorI29llama_grammar_trigger_patternEEPS3_EEED1B9nqe220106Ev, symObjAddr: 0xE668, symBinAddr: 0x362F4, symSize: 0xB8 }
  - { offset: 0x1B4F52, size: 0x8, addend: 0x0, symName: __ZNSt3__111basic_regexIcNS_12regex_traitsIcEEE7__parseINS_11__wrap_iterIPKcEEEET_S9_S9_, symObjAddr: 0xE7F4, symBinAddr: 0x36480, symSize: 0x208 }
  - { offset: 0x1B5890, size: 0x8, addend: 0x0, symName: __ZNSt3__111basic_regexIcNS_12regex_traitsIcEEE13__parse_egrepINS_11__wrap_iterIPKcEEEET_S9_S9_, symObjAddr: 0xF0F4, symBinAddr: 0x36D80, symSize: 0x1A0 }
  - { offset: 0x1B5E25, size: 0x8, addend: 0x0, symName: __ZNSt3__111basic_regexIcNS_12regex_traitsIcEEE24__parse_extended_reg_expINS_11__wrap_iterIPKcEEEET_S9_S9_, symObjAddr: 0xEDF0, symBinAddr: 0x36A7C, symSize: 0x164 }
  - { offset: 0x1B615A, size: 0x8, addend: 0x0, symName: __ZNSt3__111basic_regexIcNS_12regex_traitsIcEEE12__parse_grepINS_11__wrap_iterIPKcEEEET_S9_S9_, symObjAddr: 0xEF54, symBinAddr: 0x36BE0, symSize: 0x1A0 }
  - { offset: 0x1B616E, size: 0x8, addend: 0x0, symName: __ZNSt3__111basic_regexIcNS_12regex_traitsIcEEE21__parse_basic_reg_expINS_11__wrap_iterIPKcEEEET_S9_S9_, symObjAddr: 0xEC90, symBinAddr: 0x3691C, symSize: 0x160 }
  - { offset: 0x1B6503, size: 0x8, addend: 0x0, symName: __ZNSt3__111basic_regexIcNS_12regex_traitsIcEEE24__parse_extended_reg_expINS_11__wrap_iterIPKcEEEET_S9_S9_, symObjAddr: 0xEDF0, symBinAddr: 0x36A7C, symSize: 0x164 }
  - { offset: 0x1B6517, size: 0x8, addend: 0x0, symName: __ZNSt3__111basic_regexIcNS_12regex_traitsIcEEE12__parse_grepINS_11__wrap_iterIPKcEEEET_S9_S9_, symObjAddr: 0xEF54, symBinAddr: 0x36BE0, symSize: 0x1A0 }
  - { offset: 0x1B6AAC, size: 0x8, addend: 0x0, symName: __ZNSt3__111basic_regexIcNS_12regex_traitsIcEEE16__parse_ecma_expINS_11__wrap_iterIPKcEEEET_S9_S9_, symObjAddr: 0xEA48, symBinAddr: 0x366D4, symSize: 0x248 }
  - { offset: 0x1B7229, size: 0x8, addend: 0x0, symName: __ZNSt3__111basic_regexIcNS_12regex_traitsIcEEE17__parse_assertionINS_11__wrap_iterIPKcEEEET_S9_S9_, symObjAddr: 0xF4D4, symBinAddr: 0x37160, symSize: 0x364 }
  - { offset: 0x1B78F2, size: 0x8, addend: 0x0, symName: __ZNSt3__111basic_regexIcNS_12regex_traitsIcEEE12__parse_atomINS_11__wrap_iterIPKcEEEET_S9_S9_, symObjAddr: 0xF838, symBinAddr: 0x374C4, symSize: 0x268 }
  - { offset: 0x1B7CB8, size: 0x8, addend: 0x0, symName: __ZNSt3__111basic_regexIcNS_12regex_traitsIcEEE23__parse_ERE_dupl_symbolINS_11__wrap_iterIPKcEEEET_S9_S9_PNS_16__owns_one_stateIcEEjj, symObjAddr: 0xFAA0, symBinAddr: 0x3772C, symSize: 0x3D0 }
  - { offset: 0x1B7CCC, size: 0x8, addend: 0x0, symName: __ZNSt3__111basic_regexIcNS_12regex_traitsIcEEE23__parse_ERE_dupl_symbolINS_11__wrap_iterIPKcEEEET_S9_S9_PNS_16__owns_one_stateIcEEjj, symObjAddr: 0xFAA0, symBinAddr: 0x3772C, symSize: 0x3D0 }
  - { offset: 0x1B8372, size: 0x8, addend: 0x0, symName: __ZNSt3__111basic_regexIcNS_12regex_traitsIcEEE16__push_lookaheadERKS3_bj, symObjAddr: 0xFE70, symBinAddr: 0x37AFC, symSize: 0xB4 }
  - { offset: 0x1B8542, size: 0x8, addend: 0x0, symName: __ZNSt3__111basic_regexIcNS_12regex_traitsIcEEE18__parse_nondupl_REINS_11__wrap_iterIPKcEEEET_S9_S9_, symObjAddr: 0x15734, symBinAddr: 0x3D3AC, symSize: 0x334 }
  - { offset: 0x1B8C3A, size: 0x8, addend: 0x0, symName: __ZNSt3__111basic_regexIcNS_12regex_traitsIcEEE22__parse_RE_dupl_symbolINS_11__wrap_iterIPKcEEEET_S9_S9_PNS_16__owns_one_stateIcEEjj, symObjAddr: 0x15A68, symBinAddr: 0x3D6E0, symSize: 0x268 }
  - { offset: 0x1B8C4E, size: 0x8, addend: 0x0, symName: __ZNSt3__111basic_regexIcNS_12regex_traitsIcEEE22__parse_RE_dupl_symbolINS_11__wrap_iterIPKcEEEET_S9_S9_PNS_16__owns_one_stateIcEEjj, symObjAddr: 0x15A68, symBinAddr: 0x3D6E0, symSize: 0x268 }
  - { offset: 0x1B9215, size: 0x8, addend: 0x0, symName: __ZNSt3__111__match_anyIcED1Ev, symObjAddr: 0x15CD0, symBinAddr: 0x3D948, symSize: 0x48 }
  - { offset: 0x1B926C, size: 0x8, addend: 0x0, symName: __ZNSt3__111basic_regexIcNS_12regex_traitsIcEEE22__parse_ERE_expressionINS_11__wrap_iterIPKcEEEET_S9_S9_, symObjAddr: 0x15DFC, symBinAddr: 0x3DA74, symSize: 0x258 }
  - { offset: 0x1B9754, size: 0x8, addend: 0x0, symName: __ZNSt3__111basic_regexIcNS_12regex_traitsIcEEE20__parse_ORD_CHAR_EREINS_11__wrap_iterIPKcEEEET_S9_S9_, symObjAddr: 0x16054, symBinAddr: 0x3DCCC, symSize: 0x94 }
  - { offset: 0x1B9784, size: 0x8, addend: 0x0, symName: __ZNSt3__111__end_stateIcED1Ev, symObjAddr: 0xF2E0, symBinAddr: 0x36F6C, symSize: 0x4 }
  - { offset: 0x1B97B4, size: 0x8, addend: 0x0, symName: __ZNSt3__111__end_stateIcED0Ev, symObjAddr: 0xF2E4, symBinAddr: 0x36F70, symSize: 0x4 }
  - { offset: 0x1B97D4, size: 0x8, addend: 0x0, symName: __ZNKSt3__111__end_stateIcE6__execERNS_7__stateIcEE, symObjAddr: 0xF2E8, symBinAddr: 0x36F74, symSize: 0xC }
  - { offset: 0x1B9807, size: 0x8, addend: 0x0, symName: __ZNKSt3__16__nodeIcE12__exec_splitEbRNS_7__stateIcEE, symObjAddr: 0xF2F4, symBinAddr: 0x36F80, symSize: 0x4 }
  - { offset: 0x1B9847, size: 0x8, addend: 0x0, symName: __ZNKSt3__16__nodeIcE6__execERNS_7__stateIcEE, symObjAddr: 0xF2F8, symBinAddr: 0x36F84, symSize: 0x4 }
  - { offset: 0x1B9897, size: 0x8, addend: 0x0, symName: __ZNSt3__120__shared_ptr_pointerIPNS_13__empty_stateIcEENS_10shared_ptrIS2_E27__shared_ptr_default_deleteIS2_S2_EENS_9allocatorIS2_EEED1Ev, symObjAddr: 0xF2FC, symBinAddr: 0x36F88, symSize: 0x4 }
  - { offset: 0x1B98B9, size: 0x8, addend: 0x0, symName: __ZNSt3__120__shared_ptr_pointerIPNS_13__empty_stateIcEENS_10shared_ptrIS2_E27__shared_ptr_default_deleteIS2_S2_EENS_9allocatorIS2_EEED1Ev, symObjAddr: 0xF2FC, symBinAddr: 0x36F88, symSize: 0x4 }
  - { offset: 0x1B98F3, size: 0x8, addend: 0x0, symName: __ZNSt3__120__shared_ptr_pointerIPNS_13__empty_stateIcEENS_10shared_ptrIS2_E27__shared_ptr_default_deleteIS2_S2_EENS_9allocatorIS2_EEED0Ev, symObjAddr: 0xF300, symBinAddr: 0x36F8C, symSize: 0x14 }
  - { offset: 0x1B9956, size: 0x8, addend: 0x0, symName: __ZNSt3__120__shared_ptr_pointerIPNS_13__empty_stateIcEENS_10shared_ptrIS2_E27__shared_ptr_default_deleteIS2_S2_EENS_9allocatorIS2_EEE16__on_zero_sharedEv, symObjAddr: 0xF314, symBinAddr: 0x36FA0, symSize: 0x18 }
  - { offset: 0x1B99FD, size: 0x8, addend: 0x0, symName: __ZNKSt3__120__shared_ptr_pointerIPNS_13__empty_stateIcEENS_10shared_ptrIS2_E27__shared_ptr_default_deleteIS2_S2_EENS_9allocatorIS2_EEE13__get_deleterERKSt9type_info, symObjAddr: 0xF32C, symBinAddr: 0x36FB8, symSize: 0x70 }
  - { offset: 0x1B9B18, size: 0x8, addend: 0x0, symName: __ZNSt3__120__shared_ptr_pointerIPNS_13__empty_stateIcEENS_10shared_ptrIS2_E27__shared_ptr_default_deleteIS2_S2_EENS_9allocatorIS2_EEE21__on_zero_shared_weakEv, symObjAddr: 0xF39C, symBinAddr: 0x37028, symSize: 0x4 }
  - { offset: 0x1B9B4A, size: 0x8, addend: 0x0, symName: __ZNSt3__120__shared_ptr_pointerIPNS_13__empty_stateIcEENS_10shared_ptrIS2_E27__shared_ptr_default_deleteIS2_S2_EENS_9allocatorIS2_EEE21__on_zero_shared_weakEv, symObjAddr: 0xF39C, symBinAddr: 0x37028, symSize: 0x4 }
  - { offset: 0x1B9B6C, size: 0x8, addend: 0x0, symName: __ZNSt3__120__shared_ptr_pointerIPNS_13__empty_stateIcEENS_10shared_ptrIS2_E27__shared_ptr_default_deleteIS2_S2_EENS_9allocatorIS2_EEE21__on_zero_shared_weakEv, symObjAddr: 0xF39C, symBinAddr: 0x37028, symSize: 0x4 }
  - { offset: 0x1B9BAC, size: 0x8, addend: 0x0, symName: __ZNSt3__113__empty_stateIcED1Ev, symObjAddr: 0xF3A0, symBinAddr: 0x3702C, symSize: 0x48 }
  - { offset: 0x1B9BD0, size: 0x8, addend: 0x0, symName: __ZNSt3__113__empty_stateIcED1Ev, symObjAddr: 0xF3A0, symBinAddr: 0x3702C, symSize: 0x48 }
  - { offset: 0x1B9BEE, size: 0x8, addend: 0x0, symName: __ZNSt3__113__empty_stateIcED1Ev, symObjAddr: 0xF3A0, symBinAddr: 0x3702C, symSize: 0x48 }
  - { offset: 0x1B9C18, size: 0x8, addend: 0x0, symName: __ZNSt3__113__empty_stateIcED0Ev, symObjAddr: 0xF3E8, symBinAddr: 0x37074, symSize: 0x48 }
  - { offset: 0x1B9C3C, size: 0x8, addend: 0x0, symName: __ZNSt3__113__empty_stateIcED0Ev, symObjAddr: 0xF3E8, symBinAddr: 0x37074, symSize: 0x48 }
  - { offset: 0x1B9C5A, size: 0x8, addend: 0x0, symName: __ZNSt3__113__empty_stateIcED0Ev, symObjAddr: 0xF3E8, symBinAddr: 0x37074, symSize: 0x48 }
  - { offset: 0x1B9C78, size: 0x8, addend: 0x0, symName: __ZNSt3__113__empty_stateIcED0Ev, symObjAddr: 0xF3E8, symBinAddr: 0x37074, symSize: 0x48 }
  - { offset: 0x1B9CBE, size: 0x8, addend: 0x0, symName: __ZNKSt3__113__empty_stateIcE6__execERNS_7__stateIcEE, symObjAddr: 0xF430, symBinAddr: 0x370BC, symSize: 0x14 }
  - { offset: 0x1B9D10, size: 0x8, addend: 0x0, symName: __ZNSt3__116__owns_one_stateIcED1Ev, symObjAddr: 0xF444, symBinAddr: 0x370D0, symSize: 0x48 }
  - { offset: 0x1B9D34, size: 0x8, addend: 0x0, symName: __ZNSt3__116__owns_one_stateIcED1Ev, symObjAddr: 0xF444, symBinAddr: 0x370D0, symSize: 0x48 }
  - { offset: 0x1B9D7D, size: 0x8, addend: 0x0, symName: __ZNSt3__116__owns_one_stateIcED0Ev, symObjAddr: 0xF48C, symBinAddr: 0x37118, symSize: 0x48 }
  - { offset: 0x1B9DAC, size: 0x8, addend: 0x0, symName: __ZNSt3__116__owns_one_stateIcED0Ev, symObjAddr: 0xF48C, symBinAddr: 0x37118, symSize: 0x48 }
  - { offset: 0x1B9DCA, size: 0x8, addend: 0x0, symName: __ZNSt3__116__owns_one_stateIcED0Ev, symObjAddr: 0xF48C, symBinAddr: 0x37118, symSize: 0x48 }
  - { offset: 0x1B9EDD, size: 0x8, addend: 0x0, symName: __ZNSt3__111basic_regexIcNS_12regex_traitsIcEEE16__push_lookaheadERKS3_bj, symObjAddr: 0xFE70, symBinAddr: 0x37AFC, symSize: 0xB4 }
  - { offset: 0x1BA25A, size: 0x8, addend: 0x0, symName: __ZNSt3__111basic_regexIcNS_12regex_traitsIcEEE26__parse_bracket_expressionINS_11__wrap_iterIPKcEEEET_S9_S9_, symObjAddr: 0x10778, symBinAddr: 0x38404, symSize: 0x160 }
  - { offset: 0x1BA486, size: 0x8, addend: 0x0, symName: __ZNSt3__111basic_regexIcNS_12regex_traitsIcEEE19__parse_atom_escapeINS_11__wrap_iterIPKcEEEET_S9_S9_, symObjAddr: 0x105FC, symBinAddr: 0x38288, symSize: 0x17C }
  - { offset: 0x1BA650, size: 0x8, addend: 0x0, symName: __ZNSt3__111basic_regexIcNS_12regex_traitsIcEEE26__parse_bracket_expressionINS_11__wrap_iterIPKcEEEET_S9_S9_, symObjAddr: 0x10778, symBinAddr: 0x38404, symSize: 0x160 }
  - { offset: 0x1BA664, size: 0x8, addend: 0x0, symName: __ZNSt3__111basic_regexIcNS_12regex_traitsIcEEE25__parse_pattern_characterINS_11__wrap_iterIPKcEEEET_S9_S9_, symObjAddr: 0x10924, symBinAddr: 0x385B0, symSize: 0x7C }
  - { offset: 0x1BA838, size: 0x8, addend: 0x0, symName: __ZNSt3__111basic_regexIcNS_12regex_traitsIcEEE11__push_loopEmmPNS_16__owns_one_stateIcEEmmb, symObjAddr: 0x14FA4, symBinAddr: 0x3CC1C, symSize: 0x13C }
  - { offset: 0x1BADCD, size: 0x8, addend: 0x0, symName: __ZNSt3__120__l_anchor_multilineIcED1Ev, symObjAddr: 0xFF70, symBinAddr: 0x37BFC, symSize: 0x48 }
  - { offset: 0x1BADF1, size: 0x8, addend: 0x0, symName: __ZNSt3__120__l_anchor_multilineIcED1Ev, symObjAddr: 0xFF70, symBinAddr: 0x37BFC, symSize: 0x48 }
  - { offset: 0x1BAE0F, size: 0x8, addend: 0x0, symName: __ZNSt3__120__l_anchor_multilineIcED1Ev, symObjAddr: 0xFF70, symBinAddr: 0x37BFC, symSize: 0x48 }
  - { offset: 0x1BAE5A, size: 0x8, addend: 0x0, symName: __ZNSt3__120__l_anchor_multilineIcED0Ev, symObjAddr: 0xFFB8, symBinAddr: 0x37C44, symSize: 0x48 }
  - { offset: 0x1BAE8A, size: 0x8, addend: 0x0, symName: __ZNSt3__120__l_anchor_multilineIcED0Ev, symObjAddr: 0xFFB8, symBinAddr: 0x37C44, symSize: 0x48 }
  - { offset: 0x1BAEA8, size: 0x8, addend: 0x0, symName: __ZNSt3__120__l_anchor_multilineIcED0Ev, symObjAddr: 0xFFB8, symBinAddr: 0x37C44, symSize: 0x48 }
  - { offset: 0x1BAEC6, size: 0x8, addend: 0x0, symName: __ZNSt3__120__l_anchor_multilineIcED0Ev, symObjAddr: 0xFFB8, symBinAddr: 0x37C44, symSize: 0x48 }
  - { offset: 0x1BAEF1, size: 0x8, addend: 0x0, symName: __ZNKSt3__120__l_anchor_multilineIcE6__execERNS_7__stateIcEE, symObjAddr: 0x10000, symBinAddr: 0x37C8C, symSize: 0x68 }
  - { offset: 0x1BAF59, size: 0x8, addend: 0x0, symName: __ZNSt3__120__r_anchor_multilineIcED1Ev, symObjAddr: 0x10068, symBinAddr: 0x37CF4, symSize: 0x48 }
  - { offset: 0x1BAF7D, size: 0x8, addend: 0x0, symName: __ZNSt3__120__r_anchor_multilineIcED1Ev, symObjAddr: 0x10068, symBinAddr: 0x37CF4, symSize: 0x48 }
  - { offset: 0x1BAF9B, size: 0x8, addend: 0x0, symName: __ZNSt3__120__r_anchor_multilineIcED1Ev, symObjAddr: 0x10068, symBinAddr: 0x37CF4, symSize: 0x48 }
  - { offset: 0x1BAFE6, size: 0x8, addend: 0x0, symName: __ZNSt3__120__r_anchor_multilineIcED0Ev, symObjAddr: 0x100B0, symBinAddr: 0x37D3C, symSize: 0x48 }
  - { offset: 0x1BB016, size: 0x8, addend: 0x0, symName: __ZNSt3__120__r_anchor_multilineIcED0Ev, symObjAddr: 0x100B0, symBinAddr: 0x37D3C, symSize: 0x48 }
  - { offset: 0x1BB034, size: 0x8, addend: 0x0, symName: __ZNSt3__120__r_anchor_multilineIcED0Ev, symObjAddr: 0x100B0, symBinAddr: 0x37D3C, symSize: 0x48 }
  - { offset: 0x1BB052, size: 0x8, addend: 0x0, symName: __ZNSt3__120__r_anchor_multilineIcED0Ev, symObjAddr: 0x100B0, symBinAddr: 0x37D3C, symSize: 0x48 }
  - { offset: 0x1BB07D, size: 0x8, addend: 0x0, symName: __ZNKSt3__120__r_anchor_multilineIcE6__execERNS_7__stateIcEE, symObjAddr: 0x100F8, symBinAddr: 0x37D84, symSize: 0x54 }
  - { offset: 0x1BB0E5, size: 0x8, addend: 0x0, symName: __ZNSt3__115__word_boundaryIcNS_12regex_traitsIcEEED1Ev, symObjAddr: 0x1014C, symBinAddr: 0x37DD8, symSize: 0x58 }
  - { offset: 0x1BB199, size: 0x8, addend: 0x0, symName: __ZNSt3__115__word_boundaryIcNS_12regex_traitsIcEEED0Ev, symObjAddr: 0x101A4, symBinAddr: 0x37E30, symSize: 0x58 }
  - { offset: 0x1BB2B3, size: 0x8, addend: 0x0, symName: __ZNKSt3__115__word_boundaryIcNS_12regex_traitsIcEEE6__execERNS_7__stateIcEE, symObjAddr: 0x101FC, symBinAddr: 0x37E88, symSize: 0x154 }
  - { offset: 0x1BB475, size: 0x8, addend: 0x0, symName: __ZNSt3__111__lookaheadIcNS_12regex_traitsIcEEED1Ev, symObjAddr: 0x10350, symBinAddr: 0x37FDC, symSize: 0x94 }
  - { offset: 0x1BB5D9, size: 0x8, addend: 0x0, symName: __ZNSt3__111__lookaheadIcNS_12regex_traitsIcEEED0Ev, symObjAddr: 0x103E4, symBinAddr: 0x38070, symSize: 0x94 }
  - { offset: 0x1BB745, size: 0x8, addend: 0x0, symName: __ZNKSt3__111__lookaheadIcNS_12regex_traitsIcEEE6__execERNS_7__stateIcEE, symObjAddr: 0x10478, symBinAddr: 0x38104, symSize: 0x184 }
  - { offset: 0x1BBCDE, size: 0x8, addend: 0x0, symName: __ZNSt3__111basic_regexIcNS_12regex_traitsIcEEE11__push_charEc, symObjAddr: 0x110EC, symBinAddr: 0x38D78, symSize: 0x144 }
  - { offset: 0x1BC049, size: 0x8, addend: 0x0, symName: __ZNSt3__111basic_regexIcNS_12regex_traitsIcEEE15__push_back_refEi, symObjAddr: 0x1127C, symBinAddr: 0x38F08, symSize: 0xD4 }
  - { offset: 0x1BC1FD, size: 0x8, addend: 0x0, symName: __ZNSt3__111basic_regexIcNS_12regex_traitsIcEEE30__parse_character_class_escapeINS_11__wrap_iterIPKcEEEET_S9_S9_, symObjAddr: 0x10A7C, symBinAddr: 0x38708, symSize: 0x25C }
  - { offset: 0x1BC66C, size: 0x8, addend: 0x0, symName: __ZNSt3__111basic_regexIcNS_12regex_traitsIcEEE24__parse_character_escapeINS_11__wrap_iterIPKcEEEET_S9_S9_PNS_12basic_stringIcNS_11char_traitsIcEENS_9allocatorIcEEEE, symObjAddr: 0x10CD8, symBinAddr: 0x38964, symSize: 0x414 }
  - { offset: 0x1BCB06, size: 0x8, addend: 0x0, symName: __ZNSt3__111basic_regexIcNS_12regex_traitsIcEEE11__push_charEc, symObjAddr: 0x110EC, symBinAddr: 0x38D78, symSize: 0x144 }
  - { offset: 0x1BCBF2, size: 0x8, addend: 0x0, symName: __ZNSt3__120__bracket_expressionIcNS_12regex_traitsIcEEEC2B9nqe220106ERKS2_PNS_6__nodeIcEEbbb, symObjAddr: 0x11BCC, symBinAddr: 0x39858, symSize: 0x19C }
  - { offset: 0x1BD1CC, size: 0x8, addend: 0x0, symName: __ZNSt3__120__bracket_expressionIcNS_12regex_traitsIcEEE10__add_charB9nqe220106Ec, symObjAddr: 0x11A94, symBinAddr: 0x39720, symSize: 0x138 }
  - { offset: 0x1BD5C4, size: 0x8, addend: 0x0, symName: __ZNSt3__111basic_regexIcNS_12regex_traitsIcEEE23__parse_expression_termINS_11__wrap_iterIPKcEEEET_S9_S9_PNS_20__bracket_expressionIcS2_EE, symObjAddr: 0x12F10, symBinAddr: 0x3AB88, symSize: 0x42C }
  - { offset: 0x1BE2DC, size: 0x8, addend: 0x0, symName: __ZNSt3__123__match_any_but_newlineIcED1Ev, symObjAddr: 0x109A0, symBinAddr: 0x3862C, symSize: 0x48 }
  - { offset: 0x1BE300, size: 0x8, addend: 0x0, symName: __ZNSt3__123__match_any_but_newlineIcED1Ev, symObjAddr: 0x109A0, symBinAddr: 0x3862C, symSize: 0x48 }
  - { offset: 0x1BE31E, size: 0x8, addend: 0x0, symName: __ZNSt3__123__match_any_but_newlineIcED1Ev, symObjAddr: 0x109A0, symBinAddr: 0x3862C, symSize: 0x48 }
  - { offset: 0x1BE369, size: 0x8, addend: 0x0, symName: __ZNSt3__123__match_any_but_newlineIcED0Ev, symObjAddr: 0x109E8, symBinAddr: 0x38674, symSize: 0x48 }
  - { offset: 0x1BE399, size: 0x8, addend: 0x0, symName: __ZNSt3__123__match_any_but_newlineIcED0Ev, symObjAddr: 0x109E8, symBinAddr: 0x38674, symSize: 0x48 }
  - { offset: 0x1BE3B7, size: 0x8, addend: 0x0, symName: __ZNSt3__123__match_any_but_newlineIcED0Ev, symObjAddr: 0x109E8, symBinAddr: 0x38674, symSize: 0x48 }
  - { offset: 0x1BE3D5, size: 0x8, addend: 0x0, symName: __ZNSt3__123__match_any_but_newlineIcED0Ev, symObjAddr: 0x109E8, symBinAddr: 0x38674, symSize: 0x48 }
  - { offset: 0x1BE775, size: 0x8, addend: 0x0, symName: __ZNSt3__118__match_char_icaseIcNS_12regex_traitsIcEEED1Ev, symObjAddr: 0x11350, symBinAddr: 0x38FDC, symSize: 0x58 }
  - { offset: 0x1BE829, size: 0x8, addend: 0x0, symName: __ZNSt3__118__match_char_icaseIcNS_12regex_traitsIcEEED0Ev, symObjAddr: 0x113A8, symBinAddr: 0x39034, symSize: 0x58 }
  - { offset: 0x1BE8E5, size: 0x8, addend: 0x0, symName: __ZNKSt3__118__match_char_icaseIcNS_12regex_traitsIcEEE6__execERNS_7__stateIcEE, symObjAddr: 0x11400, symBinAddr: 0x3908C, symSize: 0x84 }
  - { offset: 0x1BE9A2, size: 0x8, addend: 0x0, symName: __ZNSt3__120__match_char_collateIcNS_12regex_traitsIcEEED1Ev, symObjAddr: 0x11484, symBinAddr: 0x39110, symSize: 0x58 }
  - { offset: 0x1BEA56, size: 0x8, addend: 0x0, symName: __ZNSt3__120__match_char_collateIcNS_12regex_traitsIcEEED0Ev, symObjAddr: 0x114DC, symBinAddr: 0x39168, symSize: 0x58 }
  - { offset: 0x1BEB12, size: 0x8, addend: 0x0, symName: __ZNKSt3__120__match_char_collateIcNS_12regex_traitsIcEEE6__execERNS_7__stateIcEE, symObjAddr: 0x11534, symBinAddr: 0x391C0, symSize: 0x44 }
  - { offset: 0x1BEB83, size: 0x8, addend: 0x0, symName: __ZNSt3__112__match_charIcED1Ev, symObjAddr: 0x11578, symBinAddr: 0x39204, symSize: 0x48 }
  - { offset: 0x1BEBA7, size: 0x8, addend: 0x0, symName: __ZNSt3__112__match_charIcED1Ev, symObjAddr: 0x11578, symBinAddr: 0x39204, symSize: 0x48 }
  - { offset: 0x1BEBC5, size: 0x8, addend: 0x0, symName: __ZNSt3__112__match_charIcED1Ev, symObjAddr: 0x11578, symBinAddr: 0x39204, symSize: 0x48 }
  - { offset: 0x1BEC10, size: 0x8, addend: 0x0, symName: __ZNSt3__112__match_charIcED0Ev, symObjAddr: 0x115C0, symBinAddr: 0x3924C, symSize: 0x48 }
  - { offset: 0x1BEC40, size: 0x8, addend: 0x0, symName: __ZNSt3__112__match_charIcED0Ev, symObjAddr: 0x115C0, symBinAddr: 0x3924C, symSize: 0x48 }
  - { offset: 0x1BEC5E, size: 0x8, addend: 0x0, symName: __ZNSt3__112__match_charIcED0Ev, symObjAddr: 0x115C0, symBinAddr: 0x3924C, symSize: 0x48 }
  - { offset: 0x1BEC7C, size: 0x8, addend: 0x0, symName: __ZNSt3__112__match_charIcED0Ev, symObjAddr: 0x115C0, symBinAddr: 0x3924C, symSize: 0x48 }
  - { offset: 0x1BECA7, size: 0x8, addend: 0x0, symName: __ZNKSt3__112__match_charIcE6__execERNS_7__stateIcEE, symObjAddr: 0x11608, symBinAddr: 0x39294, symSize: 0x44 }
  - { offset: 0x1BED18, size: 0x8, addend: 0x0, symName: __ZNSt3__116__back_ref_icaseIcNS_12regex_traitsIcEEED1Ev, symObjAddr: 0x1164C, symBinAddr: 0x392D8, symSize: 0x58 }
  - { offset: 0x1BEDCC, size: 0x8, addend: 0x0, symName: __ZNSt3__116__back_ref_icaseIcNS_12regex_traitsIcEEED0Ev, symObjAddr: 0x116A4, symBinAddr: 0x39330, symSize: 0x58 }
  - { offset: 0x1BEE88, size: 0x8, addend: 0x0, symName: __ZNKSt3__116__back_ref_icaseIcNS_12regex_traitsIcEEE6__execERNS_7__stateIcEE, symObjAddr: 0x116FC, symBinAddr: 0x39388, symSize: 0xFC }
  - { offset: 0x1BEFF3, size: 0x8, addend: 0x0, symName: __ZNSt3__118__back_ref_collateIcNS_12regex_traitsIcEEED1Ev, symObjAddr: 0x117F8, symBinAddr: 0x39484, symSize: 0x58 }
  - { offset: 0x1BF0A7, size: 0x8, addend: 0x0, symName: __ZNSt3__118__back_ref_collateIcNS_12regex_traitsIcEEED0Ev, symObjAddr: 0x11850, symBinAddr: 0x394DC, symSize: 0x58 }
  - { offset: 0x1BF163, size: 0x8, addend: 0x0, symName: __ZNKSt3__118__back_ref_collateIcNS_12regex_traitsIcEEE6__execERNS_7__stateIcEE, symObjAddr: 0x118A8, symBinAddr: 0x39534, symSize: 0x8C }
  - { offset: 0x1BF238, size: 0x8, addend: 0x0, symName: __ZNSt3__110__back_refIcED1Ev, symObjAddr: 0x11934, symBinAddr: 0x395C0, symSize: 0x48 }
  - { offset: 0x1BF25C, size: 0x8, addend: 0x0, symName: __ZNSt3__110__back_refIcED1Ev, symObjAddr: 0x11934, symBinAddr: 0x395C0, symSize: 0x48 }
  - { offset: 0x1BF27A, size: 0x8, addend: 0x0, symName: __ZNSt3__110__back_refIcED1Ev, symObjAddr: 0x11934, symBinAddr: 0x395C0, symSize: 0x48 }
  - { offset: 0x1BF2C5, size: 0x8, addend: 0x0, symName: __ZNSt3__110__back_refIcED0Ev, symObjAddr: 0x1197C, symBinAddr: 0x39608, symSize: 0x48 }
  - { offset: 0x1BF2F5, size: 0x8, addend: 0x0, symName: __ZNSt3__110__back_refIcED0Ev, symObjAddr: 0x1197C, symBinAddr: 0x39608, symSize: 0x48 }
  - { offset: 0x1BF313, size: 0x8, addend: 0x0, symName: __ZNSt3__110__back_refIcED0Ev, symObjAddr: 0x1197C, symBinAddr: 0x39608, symSize: 0x48 }
  - { offset: 0x1BF331, size: 0x8, addend: 0x0, symName: __ZNSt3__110__back_refIcED0Ev, symObjAddr: 0x1197C, symBinAddr: 0x39608, symSize: 0x48 }
  - { offset: 0x1BF35C, size: 0x8, addend: 0x0, symName: __ZNKSt3__110__back_refIcE6__execERNS_7__stateIcEE, symObjAddr: 0x119C4, symBinAddr: 0x39650, symSize: 0xD0 }
  - { offset: 0x1BF4D5, size: 0x8, addend: 0x0, symName: __ZNSt3__120__bracket_expressionIcNS_12regex_traitsIcEEE10__add_charB9nqe220106Ec, symObjAddr: 0x11A94, symBinAddr: 0x39720, symSize: 0x138 }
  - { offset: 0x1BF898, size: 0x8, addend: 0x0, symName: __ZZNSt3__16vectorIcNS_9allocatorIcEEE12emplace_backIJcEEERcDpOT_ENKUlvE0_clEv, symObjAddr: 0x12D20, symBinAddr: 0x3A998, symSize: 0xC8 }
  - { offset: 0x1BFBC2, size: 0x8, addend: 0x0, symName: __ZNSt3__16vectorIcNS_9allocatorIcEEE20__throw_length_errorB9nqe220106Ev, symObjAddr: 0x12DE8, symBinAddr: 0x3AA60, symSize: 0x14 }
  - { offset: 0x1BFBD7, size: 0x8, addend: 0x0, symName: __ZZNSt3__16vectorIcNS_9allocatorIcEEE12emplace_backIJRKcEEERcDpOT_ENKUlvE0_clEv, symObjAddr: 0x12DFC, symBinAddr: 0x3AA74, symSize: 0xC8 }
  - { offset: 0x1BFF01, size: 0x8, addend: 0x0, symName: __ZNSt3__119__throw_regex_errorB9nqe220106ILNS_15regex_constants10error_typeE5EEEvv, symObjAddr: 0x12EC4, symBinAddr: 0x3AB3C, symSize: 0x4C }
  - { offset: 0x1C0177, size: 0x8, addend: 0x0, symName: __ZNSt3__16vectorINS_12basic_stringIcNS_11char_traitsIcEENS_9allocatorIcEEEENS4_IS6_EEED1B9nqe220106Ev, symObjAddr: 0x11D68, symBinAddr: 0x399F4, symSize: 0x70 }
  - { offset: 0x1C03B6, size: 0x8, addend: 0x0, symName: __ZNSt3__16vectorINS_4pairINS_12basic_stringIcNS_11char_traitsIcEENS_9allocatorIcEEEES7_EENS5_IS8_EEED1B9nqe220106Ev, symObjAddr: 0x11DD8, symBinAddr: 0x39A64, symSize: 0x94 }
  - { offset: 0x1C0A03, size: 0x8, addend: 0x0, symName: __ZNSt3__120__bracket_expressionIcNS_12regex_traitsIcEEED1Ev, symObjAddr: 0x11E6C, symBinAddr: 0x39AF8, symSize: 0x4 }
  - { offset: 0x1C0A26, size: 0x8, addend: 0x0, symName: __ZNSt3__120__bracket_expressionIcNS_12regex_traitsIcEEED1Ev, symObjAddr: 0x11E6C, symBinAddr: 0x39AF8, symSize: 0x4 }
  - { offset: 0x1C0A39, size: 0x8, addend: 0x0, symName: __ZNSt3__120__bracket_expressionIcNS_12regex_traitsIcEEED2Ev, symObjAddr: 0x12700, symBinAddr: 0x3A378, symSize: 0x148 }
  - { offset: 0x1C13AE, size: 0x8, addend: 0x0, symName: __ZNSt3__120__bracket_expressionIcNS_12regex_traitsIcEEED0Ev, symObjAddr: 0x11E70, symBinAddr: 0x39AFC, symSize: 0x14 }
  - { offset: 0x1C1889, size: 0x8, addend: 0x0, symName: __ZNKSt3__120__bracket_expressionIcNS_12regex_traitsIcEEE6__execERNS_7__stateIcEE, symObjAddr: 0x11E84, symBinAddr: 0x39B10, symSize: 0x810 }
  - { offset: 0x1C30F0, size: 0x8, addend: 0x0, symName: __ZNKSt3__112regex_traitsIcE20__lookup_collatenameIPcEENS_12basic_stringIcNS_11char_traitsIcEENS_9allocatorIcEEEET_SA_c, symObjAddr: 0x12968, symBinAddr: 0x3A5E0, symSize: 0x234 }
  - { offset: 0x1C3BF0, size: 0x8, addend: 0x0, symName: __ZNKSt3__112regex_traitsIcE9transformIPcEENS_12basic_stringIcNS_11char_traitsIcEENS_9allocatorIcEEEET_SA_, symObjAddr: 0x12848, symBinAddr: 0x3A4C0, symSize: 0x120 }
  - { offset: 0x1C41E6, size: 0x8, addend: 0x0, symName: __ZNKSt3__112regex_traitsIcE19__transform_primaryIPcEENS_12basic_stringIcNS_11char_traitsIcEENS_9allocatorIcEEEET_SA_c, symObjAddr: 0x12B9C, symBinAddr: 0x3A814, symSize: 0x184 }
  - { offset: 0x1C4941, size: 0x8, addend: 0x0, symName: __ZNSt3__14pairINS_12basic_stringIcNS_11char_traitsIcEENS_9allocatorIcEEEES6_ED1Ev, symObjAddr: 0x126A8, symBinAddr: 0x3A320, symSize: 0x58 }
  - { offset: 0x1C4DEB, size: 0x8, addend: 0x0, symName: __ZNSt3__16vectorIcNS_9allocatorIcEEE20__throw_length_errorB9nqe220106Ev, symObjAddr: 0x12DE8, symBinAddr: 0x3AA60, symSize: 0x14 }
  - { offset: 0x1C4E03, size: 0x8, addend: 0x0, symName: __ZZNSt3__16vectorIcNS_9allocatorIcEEE12emplace_backIJRKcEEERcDpOT_ENKUlvE0_clEv, symObjAddr: 0x12DFC, symBinAddr: 0x3AA74, symSize: 0xC8 }
  - { offset: 0x1C4E47, size: 0x8, addend: 0x0, symName: __ZNSt3__111basic_regexIcNS_12regex_traitsIcEEE25__parse_equivalence_classINS_11__wrap_iterIPKcEEEET_S9_S9_PNS_20__bracket_expressionIcS2_EE, symObjAddr: 0x1333C, symBinAddr: 0x3AFB4, symSize: 0x26C }
  - { offset: 0x1C5968, size: 0x8, addend: 0x0, symName: __ZNSt3__111basic_regexIcNS_12regex_traitsIcEEE18__parse_awk_escapeINS_11__wrap_iterIPKcEEEET_S9_S9_PNS_12basic_stringIcNS_11char_traitsIcEENS_9allocatorIcEEEE, symObjAddr: 0x138C4, symBinAddr: 0x3B53C, symSize: 0x2B4 }
  - { offset: 0x1C5B45, size: 0x8, addend: 0x0, symName: __ZNSt3__120__bracket_expressionIcNS_12regex_traitsIcEEE11__add_rangeB9nqe220106ENS_12basic_stringIcNS_11char_traitsIcEENS_9allocatorIcEEEES9_, symObjAddr: 0x13B78, symBinAddr: 0x3B7F0, symSize: 0x54C }
  - { offset: 0x1C5B59, size: 0x8, addend: 0x0, symName: __ZNSt3__111basic_regexIcNS_12regex_traitsIcEEE24__parse_collating_symbolINS_11__wrap_iterIPKcEEEET_S9_S9_RNS_12basic_stringIcNS_11char_traitsIcEENS_9allocatorIcEEEE, symObjAddr: 0x13658, symBinAddr: 0x3B2D0, symSize: 0xE4 }
  - { offset: 0x1C5EC4, size: 0x8, addend: 0x0, symName: __ZNSt3__111basic_regexIcNS_12regex_traitsIcEEE20__parse_class_escapeINS_11__wrap_iterIPKcEEEET_S9_S9_RNS_12basic_stringIcNS_11char_traitsIcEENS_9allocatorIcEEEEPNS_20__bracket_expressionIcS2_EE, symObjAddr: 0x1373C, symBinAddr: 0x3B3B4, symSize: 0x188 }
  - { offset: 0x1C5ED8, size: 0x8, addend: 0x0, symName: __ZNSt3__111basic_regexIcNS_12regex_traitsIcEEE23__parse_character_classINS_11__wrap_iterIPKcEEEET_S9_S9_PNS_20__bracket_expressionIcS2_EE, symObjAddr: 0x135A8, symBinAddr: 0x3B220, symSize: 0xB0 }
  - { offset: 0x1C614D, size: 0x8, addend: 0x0, symName: __ZNSt3__111basic_regexIcNS_12regex_traitsIcEEE24__parse_collating_symbolINS_11__wrap_iterIPKcEEEET_S9_S9_RNS_12basic_stringIcNS_11char_traitsIcEENS_9allocatorIcEEEE, symObjAddr: 0x13658, symBinAddr: 0x3B2D0, symSize: 0xE4 }
  - { offset: 0x1C616D, size: 0x8, addend: 0x0, symName: __ZNSt3__120__bracket_expressionIcNS_12regex_traitsIcEEE13__add_digraphB9nqe220106Ecc, symObjAddr: 0x140C4, symBinAddr: 0x3BD3C, symSize: 0x14C }
  - { offset: 0x1C6576, size: 0x8, addend: 0x0, symName: __ZNSt3__111basic_regexIcNS_12regex_traitsIcEEE20__parse_class_escapeINS_11__wrap_iterIPKcEEEET_S9_S9_RNS_12basic_stringIcNS_11char_traitsIcEENS_9allocatorIcEEEEPNS_20__bracket_expressionIcS2_EE, symObjAddr: 0x1373C, symBinAddr: 0x3B3B4, symSize: 0x188 }
  - { offset: 0x1C674A, size: 0x8, addend: 0x0, symName: __ZNSt3__111basic_regexIcNS_12regex_traitsIcEEE18__parse_awk_escapeINS_11__wrap_iterIPKcEEEET_S9_S9_PNS_12basic_stringIcNS_11char_traitsIcEENS_9allocatorIcEEEE, symObjAddr: 0x138C4, symBinAddr: 0x3B53C, symSize: 0x2B4 }
  - { offset: 0x1C675E, size: 0x8, addend: 0x0, symName: __ZNSt3__120__bracket_expressionIcNS_12regex_traitsIcEEE11__add_rangeB9nqe220106ENS_12basic_stringIcNS_11char_traitsIcEENS_9allocatorIcEEEES9_, symObjAddr: 0x13B78, symBinAddr: 0x3B7F0, symSize: 0x54C }
  - { offset: 0x1C8009, size: 0x8, addend: 0x0, symName: __ZNKSt3__112regex_traitsIcE20__lookup_collatenameINS_11__wrap_iterIPKcEEEENS_12basic_stringIcNS_11char_traitsIcEENS_9allocatorIcEEEET_SD_c, symObjAddr: 0x1425C, symBinAddr: 0x3BED4, symSize: 0x234 }
  - { offset: 0x1C8B1E, size: 0x8, addend: 0x0, symName: __ZNKSt3__112regex_traitsIcE19__transform_primaryINS_11__wrap_iterIPcEEEENS_12basic_stringIcNS_11char_traitsIcEENS_9allocatorIcEEEET_SC_c, symObjAddr: 0x14490, symBinAddr: 0x3C108, symSize: 0x184 }
  - { offset: 0x1C928E, size: 0x8, addend: 0x0, symName: __ZNSt3__16vectorINS_12basic_stringIcNS_11char_traitsIcEENS_9allocatorIcEEEENS4_IS6_EEE24__emplace_back_slow_pathIJRKS6_EEEPS6_DpOT_, symObjAddr: 0x14614, symBinAddr: 0x3C28C, symSize: 0x148 }
  - { offset: 0x1C96DD, size: 0x8, addend: 0x0, symName: __ZNKSt3__112regex_traitsIcE18__lookup_classnameINS_11__wrap_iterIPKcEEEEjT_S7_bc, symObjAddr: 0x14820, symBinAddr: 0x3C498, symSize: 0x140 }
  - { offset: 0x1C9DE9, size: 0x8, addend: 0x0, symName: __ZNSt3__120__bracket_expressionIcNS_12regex_traitsIcEEE14__add_neg_charB9nqe220106Ec, symObjAddr: 0x14960, symBinAddr: 0x3C5D8, symSize: 0x138 }
  - { offset: 0x1CA4C0, size: 0x8, addend: 0x0, symName: __ZNKSt3__112regex_traitsIcE9transformINS_11__wrap_iterIPcEEEENS_12basic_stringIcNS_11char_traitsIcEENS_9allocatorIcEEEET_SC_, symObjAddr: 0x14A98, symBinAddr: 0x3C710, symSize: 0x120 }
  - { offset: 0x1CAAF8, size: 0x8, addend: 0x0, symName: __ZZNSt3__16vectorINS_4pairINS_12basic_stringIcNS_11char_traitsIcEENS_9allocatorIcEEEES7_EENS5_IS8_EEE12emplace_backIJS8_EEERS8_DpOT_ENKUlvE0_clEv, symObjAddr: 0x14C04, symBinAddr: 0x3C87C, symSize: 0x11C }
  - { offset: 0x1CAED4, size: 0x8, addend: 0x0, symName: __ZNSt3__16vectorINS_4pairINS_12basic_stringIcNS_11char_traitsIcEENS_9allocatorIcEEEES7_EENS5_IS8_EEE20__throw_length_errorB9nqe220106Ev, symObjAddr: 0x14D20, symBinAddr: 0x3C998, symSize: 0x14 }
  - { offset: 0x1CB0CB, size: 0x8, addend: 0x0, symName: __ZZNSt3__16vectorINS_4pairIccEENS_9allocatorIS2_EEE12emplace_backIJS2_EEERS2_DpOT_ENKUlvE0_clEv, symObjAddr: 0x14D34, symBinAddr: 0x3C9AC, symSize: 0xD4 }
  - { offset: 0x1CB3BC, size: 0x8, addend: 0x0, symName: __ZNSt3__16vectorINS_4pairIccEENS_9allocatorIS2_EEE20__throw_length_errorB9nqe220106Ev, symObjAddr: 0x14E08, symBinAddr: 0x3CA80, symSize: 0x14 }
  - { offset: 0x1CB840, size: 0x8, addend: 0x0, symName: __ZNSt3__16vectorINS_12basic_stringIcNS_11char_traitsIcEENS_9allocatorIcEEEENS4_IS6_EEE20__throw_length_errorB9nqe220106Ev, symObjAddr: 0x147C0, symBinAddr: 0x3C438, symSize: 0x14 }
  - { offset: 0x1CB858, size: 0x8, addend: 0x0, symName: __ZNSt3__119__throw_regex_errorB9nqe220106ILNS_15regex_constants10error_typeE2EEEvv, symObjAddr: 0x147D4, symBinAddr: 0x3C44C, symSize: 0x4C }
  - { offset: 0x1CB863, size: 0x8, addend: 0x0, symName: __ZNSt3__114__split_bufferINS_12basic_stringIcNS_11char_traitsIcEENS_9allocatorIcEEEERNS4_IS6_EEED1Ev, symObjAddr: 0x1475C, symBinAddr: 0x3C3D4, symSize: 0x64 }
  - { offset: 0x1CBC95, size: 0x8, addend: 0x0, symName: __ZNSt3__16vectorINS_4pairINS_12basic_stringIcNS_11char_traitsIcEENS_9allocatorIcEEEES7_EENS5_IS8_EEE20__throw_length_errorB9nqe220106Ev, symObjAddr: 0x14D20, symBinAddr: 0x3C998, symSize: 0x14 }
  - { offset: 0x1CBCAD, size: 0x8, addend: 0x0, symName: __ZZNSt3__16vectorINS_4pairIccEENS_9allocatorIS2_EEE12emplace_backIJS2_EEERS2_DpOT_ENKUlvE0_clEv, symObjAddr: 0x14D34, symBinAddr: 0x3C9AC, symSize: 0xD4 }
  - { offset: 0x1CBE8D, size: 0x8, addend: 0x0, symName: __ZNSt3__16vectorINS_4pairIccEENS_9allocatorIS2_EEE20__throw_length_errorB9nqe220106Ev, symObjAddr: 0x14E08, symBinAddr: 0x3CA80, symSize: 0x14 }
  - { offset: 0x1CBEA5, size: 0x8, addend: 0x0, symName: __ZNSt3__128__begin_marked_subexpressionIcED1Ev, symObjAddr: 0x14E1C, symBinAddr: 0x3CA94, symSize: 0x48 }
  - { offset: 0x1CBED1, size: 0x8, addend: 0x0, symName: __ZNSt3__128__begin_marked_subexpressionIcED1Ev, symObjAddr: 0x14E1C, symBinAddr: 0x3CA94, symSize: 0x48 }
  - { offset: 0x1CBEF5, size: 0x8, addend: 0x0, symName: __ZNSt3__128__begin_marked_subexpressionIcED1Ev, symObjAddr: 0x14E1C, symBinAddr: 0x3CA94, symSize: 0x48 }
  - { offset: 0x1CBF13, size: 0x8, addend: 0x0, symName: __ZNSt3__128__begin_marked_subexpressionIcED1Ev, symObjAddr: 0x14E1C, symBinAddr: 0x3CA94, symSize: 0x48 }
  - { offset: 0x1CBF5E, size: 0x8, addend: 0x0, symName: __ZNSt3__128__begin_marked_subexpressionIcED0Ev, symObjAddr: 0x14E64, symBinAddr: 0x3CADC, symSize: 0x48 }
  - { offset: 0x1CBF8E, size: 0x8, addend: 0x0, symName: __ZNSt3__128__begin_marked_subexpressionIcED0Ev, symObjAddr: 0x14E64, symBinAddr: 0x3CADC, symSize: 0x48 }
  - { offset: 0x1CBFAC, size: 0x8, addend: 0x0, symName: __ZNSt3__128__begin_marked_subexpressionIcED0Ev, symObjAddr: 0x14E64, symBinAddr: 0x3CADC, symSize: 0x48 }
  - { offset: 0x1CBFCA, size: 0x8, addend: 0x0, symName: __ZNSt3__128__begin_marked_subexpressionIcED0Ev, symObjAddr: 0x14E64, symBinAddr: 0x3CADC, symSize: 0x48 }
  - { offset: 0x1CBFF5, size: 0x8, addend: 0x0, symName: __ZNKSt3__128__begin_marked_subexpressionIcE6__execERNS_7__stateIcEE, symObjAddr: 0x14EAC, symBinAddr: 0x3CB24, symSize: 0x30 }
  - { offset: 0x1CC085, size: 0x8, addend: 0x0, symName: __ZNSt3__126__end_marked_subexpressionIcED1Ev, symObjAddr: 0x14EDC, symBinAddr: 0x3CB54, symSize: 0x48 }
  - { offset: 0x1CC0A9, size: 0x8, addend: 0x0, symName: __ZNSt3__126__end_marked_subexpressionIcED1Ev, symObjAddr: 0x14EDC, symBinAddr: 0x3CB54, symSize: 0x48 }
  - { offset: 0x1CC0C7, size: 0x8, addend: 0x0, symName: __ZNSt3__126__end_marked_subexpressionIcED1Ev, symObjAddr: 0x14EDC, symBinAddr: 0x3CB54, symSize: 0x48 }
  - { offset: 0x1CC112, size: 0x8, addend: 0x0, symName: __ZNSt3__126__end_marked_subexpressionIcED0Ev, symObjAddr: 0x14F24, symBinAddr: 0x3CB9C, symSize: 0x48 }
  - { offset: 0x1CC142, size: 0x8, addend: 0x0, symName: __ZNSt3__126__end_marked_subexpressionIcED0Ev, symObjAddr: 0x14F24, symBinAddr: 0x3CB9C, symSize: 0x48 }
  - { offset: 0x1CC160, size: 0x8, addend: 0x0, symName: __ZNSt3__126__end_marked_subexpressionIcED0Ev, symObjAddr: 0x14F24, symBinAddr: 0x3CB9C, symSize: 0x48 }
  - { offset: 0x1CC17E, size: 0x8, addend: 0x0, symName: __ZNSt3__126__end_marked_subexpressionIcED0Ev, symObjAddr: 0x14F24, symBinAddr: 0x3CB9C, symSize: 0x48 }
  - { offset: 0x1CC1A9, size: 0x8, addend: 0x0, symName: __ZNKSt3__126__end_marked_subexpressionIcE6__execERNS_7__stateIcEE, symObjAddr: 0x14F6C, symBinAddr: 0x3CBE4, symSize: 0x38 }
  - { offset: 0x1CC438, size: 0x8, addend: 0x0, symName: __ZNSt3__16__loopIcED0Ev, symObjAddr: 0x151E0, symBinAddr: 0x3CE58, symSize: 0x68 }
  - { offset: 0x1CC531, size: 0x8, addend: 0x0, symName: __ZNSt3__16__loopIcED1Ev, symObjAddr: 0x15178, symBinAddr: 0x3CDF0, symSize: 0x68 }
  - { offset: 0x1CC656, size: 0x8, addend: 0x0, symName: __ZNKSt3__16__loopIcE6__execERNS_7__stateIcEE, symObjAddr: 0x15248, symBinAddr: 0x3CEC0, symSize: 0x1D0 }
  - { offset: 0x1CC793, size: 0x8, addend: 0x0, symName: __ZNKSt3__16__loopIcE12__exec_splitEbRNS_7__stateIcEE, symObjAddr: 0x15418, symBinAddr: 0x3D090, symSize: 0xC8 }
  - { offset: 0x1CC868, size: 0x8, addend: 0x0, symName: __ZNSt3__117__owns_two_statesIcED1Ev, symObjAddr: 0x154E0, symBinAddr: 0x3D158, symSize: 0x68 }
  - { offset: 0x1CC8FA, size: 0x8, addend: 0x0, symName: __ZNSt3__117__owns_two_statesIcED0Ev, symObjAddr: 0x15548, symBinAddr: 0x3D1C0, symSize: 0x68 }
  - { offset: 0x1CC994, size: 0x8, addend: 0x0, symName: __ZNSt3__117__repeat_one_loopIcED1Ev, symObjAddr: 0x155B0, symBinAddr: 0x3D228, symSize: 0x4 }
  - { offset: 0x1CC9C4, size: 0x8, addend: 0x0, symName: __ZNSt3__117__repeat_one_loopIcED0Ev, symObjAddr: 0x155B4, symBinAddr: 0x3D22C, symSize: 0x4 }
  - { offset: 0x1CC9F0, size: 0x8, addend: 0x0, symName: __ZNKSt3__117__repeat_one_loopIcE6__execERNS_7__stateIcEE, symObjAddr: 0x155B8, symBinAddr: 0x3D230, symSize: 0x14 }
  - { offset: 0x1CCA61, size: 0x8, addend: 0x0, symName: __ZNSt3__111__alternateIcED1Ev, symObjAddr: 0x155CC, symBinAddr: 0x3D244, symSize: 0x68 }
  - { offset: 0x1CCB13, size: 0x8, addend: 0x0, symName: __ZNSt3__111__alternateIcED0Ev, symObjAddr: 0x15634, symBinAddr: 0x3D2AC, symSize: 0x68 }
  - { offset: 0x1CCBCD, size: 0x8, addend: 0x0, symName: __ZNKSt3__111__alternateIcE6__execERNS_7__stateIcEE, symObjAddr: 0x1569C, symBinAddr: 0x3D314, symSize: 0xC }
  - { offset: 0x1CCC00, size: 0x8, addend: 0x0, symName: __ZNKSt3__111__alternateIcE12__exec_splitEbRNS_7__stateIcEE, symObjAddr: 0x156A8, symBinAddr: 0x3D320, symSize: 0x24 }
  - { offset: 0x1CCC46, size: 0x8, addend: 0x0, symName: __ZNSt3__121__empty_non_own_stateIcED1Ev, symObjAddr: 0x156CC, symBinAddr: 0x3D344, symSize: 0x4 }
  - { offset: 0x1CCC76, size: 0x8, addend: 0x0, symName: __ZNSt3__121__empty_non_own_stateIcED0Ev, symObjAddr: 0x156D0, symBinAddr: 0x3D348, symSize: 0x4 }
  - { offset: 0x1CCCA2, size: 0x8, addend: 0x0, symName: __ZNKSt3__121__empty_non_own_stateIcE6__execERNS_7__stateIcEE, symObjAddr: 0x156D4, symBinAddr: 0x3D34C, symSize: 0x14 }
  - { offset: 0x1CCFD9, size: 0x8, addend: 0x0, symName: __ZNSt3__111__match_anyIcED1Ev, symObjAddr: 0x15CD0, symBinAddr: 0x3D948, symSize: 0x48 }
  - { offset: 0x1CCFFD, size: 0x8, addend: 0x0, symName: __ZNSt3__111__match_anyIcED1Ev, symObjAddr: 0x15CD0, symBinAddr: 0x3D948, symSize: 0x48 }
  - { offset: 0x1CD01B, size: 0x8, addend: 0x0, symName: __ZNSt3__111__match_anyIcED1Ev, symObjAddr: 0x15CD0, symBinAddr: 0x3D948, symSize: 0x48 }
  - { offset: 0x1CD066, size: 0x8, addend: 0x0, symName: __ZNSt3__111__match_anyIcED0Ev, symObjAddr: 0x15D18, symBinAddr: 0x3D990, symSize: 0x48 }
  - { offset: 0x1CD096, size: 0x8, addend: 0x0, symName: __ZNSt3__111__match_anyIcED0Ev, symObjAddr: 0x15D18, symBinAddr: 0x3D990, symSize: 0x48 }
  - { offset: 0x1CD0B4, size: 0x8, addend: 0x0, symName: __ZNSt3__111__match_anyIcED0Ev, symObjAddr: 0x15D18, symBinAddr: 0x3D990, symSize: 0x48 }
  - { offset: 0x1CD0D2, size: 0x8, addend: 0x0, symName: __ZNSt3__111__match_anyIcED0Ev, symObjAddr: 0x15D18, symBinAddr: 0x3D990, symSize: 0x48 }
  - { offset: 0x1CD0FD, size: 0x8, addend: 0x0, symName: __ZNKSt3__111__match_anyIcE6__execERNS_7__stateIcEE, symObjAddr: 0x15D60, symBinAddr: 0x3D9D8, symSize: 0x3C }
  - { offset: 0x1CD14D, size: 0x8, addend: 0x0, symName: __ZNSt3__111basic_regexIcNS_12regex_traitsIcEEE15__test_back_refEc, symObjAddr: 0x15D9C, symBinAddr: 0x3DA14, symSize: 0x60 }
  - { offset: 0x1CD21B, size: 0x8, addend: 0x0, symName: __ZNSt3__111basic_regexIcNS_12regex_traitsIcEEE22__parse_ERE_expressionINS_11__wrap_iterIPKcEEEET_S9_S9_, symObjAddr: 0x15DFC, symBinAddr: 0x3DA74, symSize: 0x258 }
  - { offset: 0x1CD269, size: 0x8, addend: 0x0, symName: __ZNSt3__111basic_regexIcNS_12regex_traitsIcEEE20__parse_ORD_CHAR_EREINS_11__wrap_iterIPKcEEEET_S9_S9_, symObjAddr: 0x16054, symBinAddr: 0x3DCCC, symSize: 0x94 }
  - { offset: 0x1CD2DB, size: 0x8, addend: 0x0, symName: __ZNSt3__111basic_regexIcNS_12regex_traitsIcEEE23__parse_QUOTED_CHAR_EREINS_11__wrap_iterIPKcEEEET_S9_S9_, symObjAddr: 0x160E8, symBinAddr: 0x3DD60, symSize: 0xD4 }
  - { offset: 0x1CD4F8, size: 0x8, addend: 0x0, symName: __ZNSt3__128__exception_guard_exceptionsINS_29_AllocatorDestroyRangeReverseINS_9allocatorINS_6vectorI21llama_grammar_elementNS2_IS4_EEEEEEPS6_EEED1B9nqe220106Ev, symObjAddr: 0x16344, symBinAddr: 0x3DF2C, symSize: 0x6C }
  - { offset: 0x1CDADF, size: 0x8, addend: 0x0, symName: _OUTLINED_FUNCTION_0, symObjAddr: 0x16B3C, symBinAddr: 0x3E6F4, symSize: 0x14 }
  - { offset: 0x1CF93C, size: 0x8, addend: 0x0, symName: __ZTV20llm_graph_input_embd, symObjAddr: 0x12240, symBinAddr: 0x3FAE60, symSize: 0x0 }
  - { offset: 0x201DBC, size: 0x8, addend: 0x0, symName: __ZNSt3__125__throw_bad_function_callB9nqe220106Ev, symObjAddr: 0xF8F0, symBinAddr: 0x4D7D4, symSize: 0x34 }
  - { offset: 0x202444, size: 0x8, addend: 0x0, symName: __ZNSt3__111make_uniqueB9nqe220106I24llm_graph_input_samplingJRKNS_3mapIiP13llama_samplerNS_4lessIiEENS_9allocatorINS_4pairIKiS4_EEEEEEELi0EEENS_10unique_ptrIT_NS_14default_deleteISG_EEEEDpOT0_, symObjAddr: 0xD920, symBinAddr: 0x4BF3C, symSize: 0x144 }
  - { offset: 0x209829, size: 0x8, addend: 0x0, symName: __ZTV22llm_graph_input_embd_h, symObjAddr: 0x12298, symBinAddr: 0x3FAEB8, symSize: 0x0 }
  - { offset: 0x209908, size: 0x8, addend: 0x0, symName: __ZTV19llm_graph_input_pos, symObjAddr: 0x122E0, symBinAddr: 0x3FAF00, symSize: 0x0 }
  - { offset: 0x2099CD, size: 0x8, addend: 0x0, symName: __ZTV25llm_graph_input_attn_temp, symObjAddr: 0x12328, symBinAddr: 0x3FAF48, symSize: 0x0 }
  - { offset: 0x209A93, size: 0x8, addend: 0x0, symName: __ZTV26llm_graph_input_pos_bucket, symObjAddr: 0x12370, symBinAddr: 0x3FAF90, symSize: 0x0 }
  - { offset: 0x209B3D, size: 0x8, addend: 0x0, symName: __ZTV29llm_graph_input_pos_bucket_kv, symObjAddr: 0x123B8, symBinAddr: 0x3FAFD8, symSize: 0x0 }
  - { offset: 0x20B302, size: 0x8, addend: 0x0, symName: __ZTV23llm_graph_input_out_ids, symObjAddr: 0x12400, symBinAddr: 0x3FB020, symSize: 0x0 }
  - { offset: 0x20B3F1, size: 0x8, addend: 0x0, symName: __ZTV20llm_graph_input_mean, symObjAddr: 0x12448, symBinAddr: 0x3FB068, symSize: 0x0 }
  - { offset: 0x20B493, size: 0x8, addend: 0x0, symName: __ZTV19llm_graph_input_cls, symObjAddr: 0x12490, symBinAddr: 0x3FB0B0, symSize: 0x0 }
  - { offset: 0x20B54C, size: 0x8, addend: 0x0, symName: __ZTV18llm_graph_input_rs, symObjAddr: 0x124D8, symBinAddr: 0x3FB0F8, symSize: 0x0 }
  - { offset: 0x20BDD6, size: 0x8, addend: 0x0, symName: __ZTV26llm_graph_input_cross_embd, symObjAddr: 0x12520, symBinAddr: 0x3FB140, symSize: 0x0 }
  - { offset: 0x20BE7E, size: 0x8, addend: 0x0, symName: __ZTV29llm_graph_input_attn_no_cache, symObjAddr: 0x12568, symBinAddr: 0x3FB188, symSize: 0x0 }
  - { offset: 0x20BF9F, size: 0x8, addend: 0x0, symName: __ZTV23llm_graph_input_attn_kv, symObjAddr: 0x125B0, symBinAddr: 0x3FB1D0, symSize: 0x0 }
  - { offset: 0x20C12D, size: 0x8, addend: 0x0, symName: __ZTV22llm_graph_input_attn_k, symObjAddr: 0x125F8, symBinAddr: 0x3FB218, symSize: 0x0 }
  - { offset: 0x20C27A, size: 0x8, addend: 0x0, symName: __ZTV26llm_graph_input_attn_k_dsa, symObjAddr: 0x12640, symBinAddr: 0x3FB260, symSize: 0x0 }
  - { offset: 0x20C94D, size: 0x8, addend: 0x0, symName: __ZTV28llm_graph_input_attn_kv_iswa, symObjAddr: 0x12688, symBinAddr: 0x3FB2A8, symSize: 0x0 }
  - { offset: 0x20D0A6, size: 0x8, addend: 0x0, symName: __ZTV20llm_graph_input_dsv4, symObjAddr: 0x126D0, symBinAddr: 0x3FB2F0, symSize: 0x0 }
  - { offset: 0x20E4E9, size: 0x8, addend: 0x0, symName: __ZTV26llm_graph_input_attn_cross, symObjAddr: 0x12718, symBinAddr: 0x3FB338, symSize: 0x0 }
  - { offset: 0x20E5C0, size: 0x8, addend: 0x0, symName: __ZTV26llm_graph_input_mem_hybrid, symObjAddr: 0x12760, symBinAddr: 0x3FB380, symSize: 0x0 }
  - { offset: 0x20EC92, size: 0x8, addend: 0x0, symName: __ZTV28llm_graph_input_mem_hybrid_k, symObjAddr: 0x127A8, symBinAddr: 0x3FB3C8, symSize: 0x0 }
  - { offset: 0x20EE08, size: 0x8, addend: 0x0, symName: __ZTV31llm_graph_input_mem_hybrid_iswa, symObjAddr: 0x127F0, symBinAddr: 0x3FB410, symSize: 0x0 }
  - { offset: 0x20F458, size: 0x8, addend: 0x0, symName: __ZTV24llm_graph_input_sampling, symObjAddr: 0x12838, symBinAddr: 0x3FB458, symSize: 0x0 }
  - { offset: 0x20F517, size: 0x8, addend: 0x0, symName: __ZTV16llm_graph_result, symObjAddr: 0x12200, symBinAddr: 0x3FAE20, symSize: 0x0 }
  - { offset: 0x20F52C, size: 0x8, addend: 0x0, symName: __ZTV17llm_graph_context, symObjAddr: 0x12220, symBinAddr: 0x3FAE40, symSize: 0x0 }
  - { offset: 0x210236, size: 0x8, addend: 0x0, symName: __ZTV17llm_graph_input_i, symObjAddr: 0x128A0, symBinAddr: 0x3FB4C0, symSize: 0x0 }
  - { offset: 0x210250, size: 0x8, addend: 0x0, symName: __ZTVNSt3__117bad_function_callE, symObjAddr: 0x128E8, symBinAddr: 0x3FB508, symSize: 0x0 }
  - { offset: 0x21027B, size: 0x8, addend: 0x0, symName: __ZTVNSt3__110__function6__funcIPFP11ggml_tensorP12ggml_contextS3_S3_ES6_EE, symObjAddr: 0x12910, symBinAddr: 0x3FB530, symSize: 0x0 }
  - { offset: 0x210D23, size: 0x8, addend: 0x0, symName: __ZN20llm_graph_input_embd9set_inputEPK12llama_ubatch, symObjAddr: 0x0, symBinAddr: 0x3E708, symSize: 0xD8 }
  - { offset: 0x210DED, size: 0x8, addend: 0x0, symName: __ZN20llm_graph_input_embd9can_reuseERK16llm_graph_params, symObjAddr: 0xD8, symBinAddr: 0x3E7E0, symSize: 0x68 }
  - { offset: 0x210E49, size: 0x8, addend: 0x0, symName: __ZN20llm_graph_input_embd9can_reuseERK16llm_graph_params, symObjAddr: 0xD8, symBinAddr: 0x3E7E0, symSize: 0x68 }
  - { offset: 0x210E90, size: 0x8, addend: 0x0, symName: __ZN22llm_graph_input_embd_h9set_inputEPK12llama_ubatch, symObjAddr: 0x140, symBinAddr: 0x3E848, symSize: 0x160 }
  - { offset: 0x210F8B, size: 0x8, addend: 0x0, symName: __ZN22llm_graph_input_embd_h9can_reuseERK16llm_graph_params, symObjAddr: 0x2A0, symBinAddr: 0x3E9A8, symSize: 0x90 }
  - { offset: 0x210F9D, size: 0x8, addend: 0x0, symName: __ZN22llm_graph_input_embd_h9can_reuseERK16llm_graph_params, symObjAddr: 0x2A0, symBinAddr: 0x3E9A8, symSize: 0x90 }
  - { offset: 0x211296, size: 0x8, addend: 0x0, symName: __ZN19llm_graph_input_pos9set_inputEPK12llama_ubatch, symObjAddr: 0x330, symBinAddr: 0x3EA38, symSize: 0x1F8 }
  - { offset: 0x21164D, size: 0x8, addend: 0x0, symName: __ZN19llm_graph_input_pos9can_reuseERK16llm_graph_params, symObjAddr: 0x528, symBinAddr: 0x3EC30, symSize: 0x24 }
  - { offset: 0x21190D, size: 0x8, addend: 0x0, symName: __ZN25llm_graph_input_attn_temp9set_inputEPK12llama_ubatch, symObjAddr: 0x54C, symBinAddr: 0x3EC54, symSize: 0x26C }
  - { offset: 0x211D36, size: 0x8, addend: 0x0, symName: __ZN26llm_graph_input_pos_bucket9set_inputEPK12llama_ubatch, symObjAddr: 0x7B8, symBinAddr: 0x3EEC0, symSize: 0x38C }
  - { offset: 0x211E72, size: 0x8, addend: 0x0, symName: __Z30llama_relative_position_bucketiiyb, symObjAddr: 0xB44, symBinAddr: 0x3F24C, symSize: 0xAC }
  - { offset: 0x211E97, size: 0x8, addend: 0x0, symName: __Z30llama_relative_position_bucketiiyb, symObjAddr: 0xB44, symBinAddr: 0x3F24C, symSize: 0xAC }
  - { offset: 0x211EFC, size: 0x8, addend: 0x0, symName: __ZN29llm_graph_input_pos_bucket_kv9set_inputEPK12llama_ubatch, symObjAddr: 0xBF0, symBinAddr: 0x3F2F8, symSize: 0x18 }
  - { offset: 0x211F34, size: 0x8, addend: 0x0, symName: __ZN23llm_graph_input_out_ids9set_inputEPK12llama_ubatch, symObjAddr: 0xC08, symBinAddr: 0x3F310, symSize: 0x164 }
  - { offset: 0x212006, size: 0x8, addend: 0x0, symName: __ZN23llm_graph_input_out_ids9can_reuseERK16llm_graph_params, symObjAddr: 0xD6C, symBinAddr: 0x3F474, symSize: 0x1C }
  - { offset: 0x212019, size: 0x8, addend: 0x0, symName: __ZN23llm_graph_input_out_ids9can_reuseERK16llm_graph_params, symObjAddr: 0xD6C, symBinAddr: 0x3F474, symSize: 0x1C }
  - { offset: 0x2122DE, size: 0x8, addend: 0x0, symName: __ZN20llm_graph_input_mean9set_inputEPK12llama_ubatch, symObjAddr: 0xD88, symBinAddr: 0x3F490, symSize: 0x3E0 }
  - { offset: 0x212A8E, size: 0x8, addend: 0x0, symName: __ZN19llm_graph_input_cls9set_inputEPK12llama_ubatch, symObjAddr: 0x1168, symBinAddr: 0x3F870, symSize: 0x368 }
  - { offset: 0x213033, size: 0x8, addend: 0x0, symName: __ZN18llm_graph_input_rs9set_inputEPK12llama_ubatch, symObjAddr: 0x14D0, symBinAddr: 0x3FBD8, symSize: 0xA0 }
  - { offset: 0x2130B5, size: 0x8, addend: 0x0, symName: __ZN18llm_graph_input_rs9can_reuseERK16llm_graph_params, symObjAddr: 0x1570, symBinAddr: 0x3FC78, symSize: 0xB4 }
  - { offset: 0x2130C8, size: 0x8, addend: 0x0, symName: __ZN18llm_graph_input_rs9can_reuseERK16llm_graph_params, symObjAddr: 0x1570, symBinAddr: 0x3FC78, symSize: 0xB4 }
  - { offset: 0x21313D, size: 0x8, addend: 0x0, symName: __ZN26llm_graph_input_cross_embd9set_inputEPK12llama_ubatch, symObjAddr: 0x1624, symBinAddr: 0x3FD2C, symSize: 0x54 }
  - { offset: 0x2131CD, size: 0x8, addend: 0x0, symName: __ZN29llm_graph_input_attn_no_cache9set_inputEPK12llama_ubatch, symObjAddr: 0x1678, symBinAddr: 0x3FD80, symSize: 0x1AC }
  - { offset: 0x213392, size: 0x8, addend: 0x0, symName: '__ZZN29llm_graph_input_attn_no_cache9set_inputEPK12llama_ubatchENK3$_0clItEEDaPT_xi14llama_swa_type', symObjAddr: 0x1824, symBinAddr: 0x3FF2C, symSize: 0x440 }
  - { offset: 0x2133D3, size: 0x8, addend: 0x0, symName: '__ZZN29llm_graph_input_attn_no_cache9set_inputEPK12llama_ubatchENK3$_0clItEEDaPT_xi14llama_swa_type', symObjAddr: 0x1824, symBinAddr: 0x3FF2C, symSize: 0x440 }
  - { offset: 0x2137B2, size: 0x8, addend: 0x0, symName: '__ZZN29llm_graph_input_attn_no_cache9set_inputEPK12llama_ubatchENK3$_0clIfEEDaPT_xi14llama_swa_type', symObjAddr: 0x1C64, symBinAddr: 0x4036C, symSize: 0x360 }
  - { offset: 0x213D54, size: 0x8, addend: 0x0, symName: __ZN23llm_graph_input_attn_kv9set_inputEPK12llama_ubatch, symObjAddr: 0x1FC4, symBinAddr: 0x406CC, symSize: 0x8C }
  - { offset: 0x213DF8, size: 0x8, addend: 0x0, symName: __ZN23llm_graph_input_attn_kv9can_reuseERK16llm_graph_params, symObjAddr: 0x2050, symBinAddr: 0x40758, symSize: 0x7C }
  - { offset: 0x213E9C, size: 0x8, addend: 0x0, symName: __ZN22llm_graph_input_attn_k9set_inputEPK12llama_ubatch, symObjAddr: 0x20CC, symBinAddr: 0x407D4, symSize: 0x44 }
  - { offset: 0x213ED6, size: 0x8, addend: 0x0, symName: __ZN22llm_graph_input_attn_k9can_reuseERK16llm_graph_params, symObjAddr: 0x2110, symBinAddr: 0x40818, symSize: 0x78 }
  - { offset: 0x213F7A, size: 0x8, addend: 0x0, symName: __ZN26llm_graph_input_attn_k_dsa9set_inputEPK12llama_ubatch, symObjAddr: 0x2188, symBinAddr: 0x40890, symSize: 0x90 }
  - { offset: 0x213FB4, size: 0x8, addend: 0x0, symName: __ZN26llm_graph_input_attn_k_dsa9can_reuseERK16llm_graph_params, symObjAddr: 0x2218, symBinAddr: 0x40920, symSize: 0xDC }
  - { offset: 0x2140A2, size: 0x8, addend: 0x0, symName: __ZN28llm_graph_input_attn_kv_iswa9set_inputEPK12llama_ubatch, symObjAddr: 0x22F4, symBinAddr: 0x409FC, symSize: 0x160 }
  - { offset: 0x2140DC, size: 0x8, addend: 0x0, symName: __ZN28llm_graph_input_attn_kv_iswa9can_reuseERK16llm_graph_params, symObjAddr: 0x2454, symBinAddr: 0x40B5C, symSize: 0x12C }
  - { offset: 0x2141CA, size: 0x8, addend: 0x0, symName: __ZN24llm_graph_input_dsv4_raw9set_inputEPK12llama_ubatch, symObjAddr: 0x2580, symBinAddr: 0x40C88, symSize: 0x70 }
  - { offset: 0x214235, size: 0x8, addend: 0x0, symName: __ZN20llm_graph_input_dsv49set_inputEPK12llama_ubatch, symObjAddr: 0x25F0, symBinAddr: 0x40CF8, symSize: 0x168 }
  - { offset: 0x214354, size: 0x8, addend: 0x0, symName: __ZL20dsv4_set_comp_inputsRKN20llm_graph_input_dsv410comp_inputERKN27llama_kv_cache_dsv4_context9comp_planEPKcbjx, symObjAddr: 0x2758, symBinAddr: 0x40E60, symSize: 0x740 }
  - { offset: 0x214EFF, size: 0x8, addend: 0x0, symName: __ZL19dsv4_plan_positionsRKNSt3__16vectorIiNS_9allocatorIiEEEE, symObjAddr: 0xE32C, symBinAddr: 0x4C948, symSize: 0x188 }
  - { offset: 0x21527E, size: 0x8, addend: 0x0, symName: __ZL20dsv4_set_comp_inputsRKN20llm_graph_input_dsv410comp_inputERKN27llama_kv_cache_dsv4_context9comp_planEPKcbjx.cold.1, symObjAddr: 0x10780, symBinAddr: 0x3636D0, symSize: 0x3C }
  - { offset: 0x215313, size: 0x8, addend: 0x0, symName: __ZN20llm_graph_input_dsv49can_reuseERK16llm_graph_params, symObjAddr: 0x2E98, symBinAddr: 0x415A0, symSize: 0x198 }
  - { offset: 0x2154B8, size: 0x8, addend: 0x0, symName: __ZL25dsv4_can_reuse_comp_inputRKN20llm_graph_input_dsv410comp_inputERKN27llama_kv_cache_dsv4_context9comp_planEjx, symObjAddr: 0x3030, symBinAddr: 0x41738, symSize: 0x19C }
  - { offset: 0x2154CB, size: 0x8, addend: 0x0, symName: __ZL25dsv4_can_reuse_comp_inputRKN20llm_graph_input_dsv410comp_inputERKN27llama_kv_cache_dsv4_context9comp_planEjx, symObjAddr: 0x3030, symBinAddr: 0x41738, symSize: 0x19C }
  - { offset: 0x2156B1, size: 0x8, addend: 0x0, symName: __ZN26llm_graph_input_attn_cross9set_inputEPK12llama_ubatch, symObjAddr: 0x31CC, symBinAddr: 0x418D4, symSize: 0x304 }
  - { offset: 0x215732, size: 0x8, addend: 0x0, symName: __ZN26llm_graph_input_attn_cross9set_inputEPK12llama_ubatch, symObjAddr: 0x31CC, symBinAddr: 0x418D4, symSize: 0x304 }
  - { offset: 0x215B1E, size: 0x8, addend: 0x0, symName: __ZN26llm_graph_input_mem_hybrid9set_inputEPK12llama_ubatch, symObjAddr: 0x34D0, symBinAddr: 0x41BD8, symSize: 0x140 }
  - { offset: 0x215DC3, size: 0x8, addend: 0x0, symName: __ZN26llm_graph_input_mem_hybrid9set_inputEPK12llama_ubatch, symObjAddr: 0x34D0, symBinAddr: 0x41BD8, symSize: 0x140 }
  - { offset: 0x215F37, size: 0x8, addend: 0x0, symName: __ZN26llm_graph_input_mem_hybrid9can_reuseERK16llm_graph_params, symObjAddr: 0x3610, symBinAddr: 0x41D18, symSize: 0x160 }
  - { offset: 0x215F4A, size: 0x8, addend: 0x0, symName: __ZN26llm_graph_input_mem_hybrid9can_reuseERK16llm_graph_params, symObjAddr: 0x3610, symBinAddr: 0x41D18, symSize: 0x160 }
  - { offset: 0x21609E, size: 0x8, addend: 0x0, symName: __ZN28llm_graph_input_mem_hybrid_k9set_inputEPK12llama_ubatch, symObjAddr: 0x3770, symBinAddr: 0x41E78, symSize: 0xE8 }
  - { offset: 0x216181, size: 0x8, addend: 0x0, symName: __ZN28llm_graph_input_mem_hybrid_k9can_reuseERK16llm_graph_params, symObjAddr: 0x3858, symBinAddr: 0x41F60, symSize: 0x15C }
  - { offset: 0x216194, size: 0x8, addend: 0x0, symName: __ZN28llm_graph_input_mem_hybrid_k9can_reuseERK16llm_graph_params, symObjAddr: 0x3858, symBinAddr: 0x41F60, symSize: 0x15C }
  - { offset: 0x2162E8, size: 0x8, addend: 0x0, symName: __ZN31llm_graph_input_mem_hybrid_iswa9set_inputEPK12llama_ubatch, symObjAddr: 0x39B4, symBinAddr: 0x420BC, symSize: 0x228 }
  - { offset: 0x216585, size: 0x8, addend: 0x0, symName: __ZN31llm_graph_input_mem_hybrid_iswa9can_reuseERK16llm_graph_params, symObjAddr: 0x3BDC, symBinAddr: 0x422E4, symSize: 0x1AC }
  - { offset: 0x216598, size: 0x8, addend: 0x0, symName: __ZN31llm_graph_input_mem_hybrid_iswa9can_reuseERK16llm_graph_params, symObjAddr: 0x3BDC, symBinAddr: 0x422E4, symSize: 0x1AC }
  - { offset: 0x21722A, size: 0x8, addend: 0x0, symName: __ZN24llm_graph_input_sampling9set_inputEPK12llama_ubatch, symObjAddr: 0x3D88, symBinAddr: 0x42490, symSize: 0x200 }
  - { offset: 0x217B45, size: 0x8, addend: 0x0, symName: __ZZNSt3__112__hash_tableIiNS_4hashIiEENS_8equal_toIiEENS_9allocatorIiEEE16__emplace_uniqueB9nqe220106IJRKiEEENS_4pairINS_15__hash_iteratorIPNS_11__hash_nodeIiPvEEEEbEEDpOT_ENKUlSA_SA_E_clESA_SA_, symObjAddr: 0xF324, symBinAddr: 0x4D21C, symSize: 0x2F8 }
  - { offset: 0x218142, size: 0x8, addend: 0x0, symName: __ZNSt3__113unordered_setIiNS_4hashIiEENS_8equal_toIiEENS_9allocatorIiEEED1B9nqe220106Ev, symObjAddr: 0x3F88, symBinAddr: 0x42690, symSize: 0x48 }
  - { offset: 0x218493, size: 0x8, addend: 0x0, symName: __ZN24llm_graph_input_sampling9can_reuseERK16llm_graph_params, symObjAddr: 0x3FD0, symBinAddr: 0x426D8, symSize: 0x14C }
  - { offset: 0x2184CF, size: 0x8, addend: 0x0, symName: __ZN24llm_graph_input_sampling9can_reuseERK16llm_graph_params, symObjAddr: 0x3FD0, symBinAddr: 0x426D8, symSize: 0x14C }
  - { offset: 0x2184ED, size: 0x8, addend: 0x0, symName: __ZN24llm_graph_input_sampling9can_reuseERK16llm_graph_params, symObjAddr: 0x3FD0, symBinAddr: 0x426D8, symSize: 0x14C }
  - { offset: 0x218F79, size: 0x8, addend: 0x0, symName: __ZN16llm_graph_resultC2Ex, symObjAddr: 0x411C, symBinAddr: 0x42824, symSize: 0x2C8 }
  - { offset: 0x219640, size: 0x8, addend: 0x0, symName: __ZN16llm_graph_result5resetEv, symObjAddr: 0x43E4, symBinAddr: 0x42AEC, symSize: 0x5AC }
  - { offset: 0x21AC9A, size: 0x8, addend: 0x0, symName: __ZNSt3__16vectorINS_10unique_ptrI17llm_graph_input_iNS_14default_deleteIS2_EEEENS_9allocatorIS5_EEED1B9nqe220106Ev, symObjAddr: 0x4A7C, symBinAddr: 0x43098, symSize: 0x74 }
  - { offset: 0x21AE9F, size: 0x8, addend: 0x0, symName: __ZNSt3__13mapIiP11ggml_tensorNS_4lessIiEENS_9allocatorINS_4pairIKiS2_EEEEED1B9nqe220106Ev, symObjAddr: 0x4AF0, symBinAddr: 0x4310C, symSize: 0x40 }
  - { offset: 0x21BDB5, size: 0x8, addend: 0x0, symName: __ZNSt3__16__treeINS_12__value_typeIiP11ggml_tensorEENS_19__map_value_compareIiNS_4pairIKiS3_EENS_4lessIiEEEENS_9allocatorIS8_EEE14__tree_deleterclB9nqe220106EPNS_11__tree_nodeIS4_PvEE, symObjAddr: 0xF79C, symBinAddr: 0x4D694, symSize: 0x4C }
  - { offset: 0x21BE9A, size: 0x8, addend: 0x0, symName: __ZN16llm_graph_paramsaSEOS_, symObjAddr: 0x4B3C, symBinAddr: 0x43158, symSize: 0x224 }
  - { offset: 0x21C3D4, size: 0x8, addend: 0x0, symName: __ZZNSt3__16vectorINS_10unique_ptrI17llm_graph_input_iNS_14default_deleteIS2_EEEENS_9allocatorIS5_EEE12emplace_backIJS5_EEERS5_DpOT_ENKUlvE0_clEv, symObjAddr: 0xF7FC, symBinAddr: 0x4D6E0, symSize: 0xE0 }
  - { offset: 0x21C4ED, size: 0x8, addend: 0x0, symName: __ZN16llm_graph_resultC1Ex, symObjAddr: 0x4B30, symBinAddr: 0x4314C, symSize: 0x4 }
  - { offset: 0x21C52A, size: 0x8, addend: 0x0, symName: __ZN16llm_graph_resultC1Ex, symObjAddr: 0x4B30, symBinAddr: 0x4314C, symSize: 0x4 }
  - { offset: 0x21C544, size: 0x8, addend: 0x0, symName: __ZNK16llm_graph_result13get_max_nodesEv, symObjAddr: 0x4B34, symBinAddr: 0x43150, symSize: 0x8 }
  - { offset: 0x21C7E6, size: 0x8, addend: 0x0, symName: __ZN16llm_graph_result10set_inputsEPK12llama_ubatch, symObjAddr: 0x4D60, symBinAddr: 0x4337C, symSize: 0x4C }
  - { offset: 0x21CA03, size: 0x8, addend: 0x0, symName: __ZN16llm_graph_result11set_outputsERK16llm_graph_params, symObjAddr: 0x4DAC, symBinAddr: 0x433C8, symSize: 0x22C }
  - { offset: 0x21D187, size: 0x8, addend: 0x0, symName: __ZN16llm_graph_result9can_reuseERK16llm_graph_params, symObjAddr: 0x4FD8, symBinAddr: 0x435F4, symSize: 0x150 }
  - { offset: 0x21D1C4, size: 0x8, addend: 0x0, symName: __ZN16llm_graph_result9can_reuseERK16llm_graph_params, symObjAddr: 0x4FD8, symBinAddr: 0x435F4, symSize: 0x150 }
  - { offset: 0x21D35C, size: 0x8, addend: 0x0, symName: __ZNK16llm_graph_params11allow_reuseERKS_, symObjAddr: 0x5128, symBinAddr: 0x43744, symSize: 0x3EC }
  - { offset: 0x21DB70, size: 0x8, addend: 0x0, symName: __ZN16llm_graph_result9add_inputENSt3__110unique_ptrI17llm_graph_input_iNS0_14default_deleteIS2_EEEE, symObjAddr: 0x5514, symBinAddr: 0x43B30, symSize: 0x78 }
  - { offset: 0x21DD21, size: 0x8, addend: 0x0, symName: __ZZNSt3__16vectorINS_10unique_ptrI17llm_graph_input_iNS_14default_deleteIS2_EEEENS_9allocatorIS5_EEE12emplace_backIJS5_EEERS5_DpOT_ENKUlvE0_clEv, symObjAddr: 0xF7FC, symBinAddr: 0x4D6E0, symSize: 0xE0 }
  - { offset: 0x21E066, size: 0x8, addend: 0x0, symName: __ZNSt3__16vectorINS_10unique_ptrI17llm_graph_input_iNS_14default_deleteIS2_EEEENS_9allocatorIS5_EEE20__throw_length_errorB9nqe220106Ev, symObjAddr: 0xF8DC, symBinAddr: 0x4D7C0, symSize: 0x14 }
  - { offset: 0x21E071, size: 0x8, addend: 0x0, symName: __ZN16llm_graph_result10set_paramsERK16llm_graph_params, symObjAddr: 0x558C, symBinAddr: 0x43BA8, symSize: 0x8 }
  - { offset: 0x21E0B0, size: 0x8, addend: 0x0, symName: __ZN16llm_graph_paramsaSERKS_, symObjAddr: 0x5594, symBinAddr: 0x43BB0, symSize: 0x2FC }
  - { offset: 0x21EC17, size: 0x8, addend: 0x0, symName: __ZNSt3__16__treeINS_12__value_typeIiP13llama_samplerEENS_19__map_value_compareIiNS_4pairIKiS3_EENS_4lessIiEEEENS_9allocatorIS8_EEE18__assign_from_treeB9nqe220106IZNSE_18__copy_assign_treeB9nqe220106EPNS_11__tree_nodeIS4_PvEESJ_EUlRS8_RKS8_E_ZNSE_18__copy_assign_treeB9nqe220106ESJ_SJ_EUlSJ_E_EESJ_SJ_SJ_T_T0_, symObjAddr: 0xEAF0, symBinAddr: 0x4CCD8, symSize: 0x118 }
  - { offset: 0x21F125, size: 0x8, addend: 0x0, symName: __ZNSt3__110__function12__value_funcIFvRK12llama_ubatchP11ggml_tensorPKciEE4swapB9nqe220106ERSA_, symObjAddr: 0xED1C, symBinAddr: 0x4CDF0, symSize: 0x198 }
  - { offset: 0x21F264, size: 0x8, addend: 0x0, symName: __ZNSt3__16__treeINS_12__value_typeIiP13llama_samplerEENS_19__map_value_compareIiNS_4pairIKiS3_EENS_4lessIiEEEENS_9allocatorIS8_EEE18__assign_from_treeB9nqe220106IZNSE_18__copy_assign_treeB9nqe220106EPNS_11__tree_nodeIS4_PvEESJ_EUlRS8_RKS8_E_ZNSE_18__copy_assign_treeB9nqe220106ESJ_SJ_EUlSJ_E_EESJ_SJ_SJ_T_T0_, symObjAddr: 0xEAF0, symBinAddr: 0x4CCD8, symSize: 0x118 }
  - { offset: 0x21F361, size: 0x8, addend: 0x0, symName: __ZN17llm_graph_contextC2ERK16llm_graph_params, symObjAddr: 0x5890, symBinAddr: 0x43EAC, symSize: 0x21C }
  - { offset: 0x21F570, size: 0x8, addend: 0x0, symName: __ZNSt3__13mapIiP13llama_samplerNS_4lessIiEENS_9allocatorINS_4pairIKiS2_EEEEED1B9nqe220106Ev, symObjAddr: 0x5AAC, symBinAddr: 0x440C8, symSize: 0x40 }
  - { offset: 0x21F674, size: 0x8, addend: 0x0, symName: __ZN17llm_graph_contextC1ERK16llm_graph_params, symObjAddr: 0x5AEC, symBinAddr: 0x44108, symSize: 0x4 }
  - { offset: 0x21F6B1, size: 0x8, addend: 0x0, symName: __ZN17llm_graph_contextC1ERK16llm_graph_params, symObjAddr: 0x5AEC, symBinAddr: 0x44108, symSize: 0x4 }
  - { offset: 0x21F78F, size: 0x8, addend: 0x0, symName: __ZNK17llm_graph_context2cbEP11ggml_tensorPKci, symObjAddr: 0x5AF0, symBinAddr: 0x4410C, symSize: 0x54 }
  - { offset: 0x21F896, size: 0x8, addend: 0x0, symName: __ZNK17llm_graph_context10build_cvecEP11ggml_tensori, symObjAddr: 0x5B44, symBinAddr: 0x44160, symSize: 0x18 }
  - { offset: 0x21F927, size: 0x8, addend: 0x0, symName: __ZNK17llm_graph_context13build_lora_mmEP11ggml_tensorS1_S1_, symObjAddr: 0x5B5C, symBinAddr: 0x44178, symSize: 0x108 }
  - { offset: 0x21FB55, size: 0x8, addend: 0x0, symName: __ZNK17llm_graph_context16build_lora_mm_idEP11ggml_tensorS1_S1_S1_, symObjAddr: 0x5C64, symBinAddr: 0x44280, symSize: 0x168 }
  - { offset: 0x21FE73, size: 0x8, addend: 0x0, symName: __ZNK17llm_graph_context10build_normEP11ggml_tensorS1_S1_13llm_norm_typei, symObjAddr: 0x5DCC, symBinAddr: 0x443E8, symSize: 0x180 }
  - { offset: 0x2201B3, size: 0x8, addend: 0x0, symName: __ZNK17llm_graph_context9build_qkvERK11llama_layerP11ggml_tensorxxxi, symObjAddr: 0x5F4C, symBinAddr: 0x44568, symSize: 0x664 }
  - { offset: 0x22136F, size: 0x8, addend: 0x0, symName: __ZNK17llm_graph_context9build_ffnEP11ggml_tensorS1_S1_S1_S1_S1_S1_S1_S1_S1_S1_15llm_ffn_op_type17llm_ffn_gate_typei, symObjAddr: 0x65B0, symBinAddr: 0x44BCC, symSize: 0xA5C }
  - { offset: 0x22297D, size: 0x8, addend: 0x0, symName: __ZNK17llm_graph_context13build_moe_ffnEP11ggml_tensorS1_S1_S1_S1_S1_xx15llm_ffn_op_typebf29llama_expert_gating_func_typeiS1_S1_S1_S1_S1_S1_, symObjAddr: 0x700C, symBinAddr: 0x45628, symSize: 0x78 }
  - { offset: 0x222B61, size: 0x8, addend: 0x0, symName: __ZNK17llm_graph_context13build_moe_ffnEP11ggml_tensorS1_S1_S1_S1_S1_xx15llm_ffn_op_typebf29llama_expert_gating_func_typeiS1_S1_S1_S1_S1_S1_, symObjAddr: 0x700C, symBinAddr: 0x45628, symSize: 0x78 }
  - { offset: 0x222CFD, size: 0x8, addend: 0x0, symName: __ZNK17llm_graph_context13build_moe_ffnEP11ggml_tensorS1_S1_S1_S1_S1_S1_S1_S1_S1_xx15llm_ffn_op_typebf29llama_expert_gating_func_typeiS1_S1_S1_S1_S1_S1_S1_, symObjAddr: 0x7084, symBinAddr: 0x456A0, symSize: 0x12F4 }
  - { offset: 0x225E68, size: 0x8, addend: 0x0, symName: __ZNK17llm_graph_context14build_inp_embdEP11ggml_tensor, symObjAddr: 0x8378, symBinAddr: 0x46994, symSize: 0x41C }
  - { offset: 0x2261D7, size: 0x8, addend: 0x0, symName: __ZNK17llm_graph_context14build_inp_embdEP11ggml_tensor, symObjAddr: 0x8378, symBinAddr: 0x46994, symSize: 0x41C }
  - { offset: 0x226D90, size: 0x8, addend: 0x0, symName: __ZNK17llm_graph_context13build_inp_posEv, symObjAddr: 0x8794, symBinAddr: 0x46DB0, symSize: 0x144 }
  - { offset: 0x227392, size: 0x8, addend: 0x0, symName: __ZNK17llm_graph_context20build_inp_attn_scaleEv, symObjAddr: 0x88D8, symBinAddr: 0x46EF4, symSize: 0x158 }
  - { offset: 0x2279CB, size: 0x8, addend: 0x0, symName: __ZNK17llm_graph_context17build_inp_out_idsEv, symObjAddr: 0x8A30, symBinAddr: 0x4704C, symSize: 0x128 }
  - { offset: 0x227E23, size: 0x8, addend: 0x0, symName: __ZN23llm_graph_input_out_idsC2ERK13llama_hparamsRK13llama_cparamsj, symObjAddr: 0xF93C, symBinAddr: 0x4D820, symSize: 0x120 }
  - { offset: 0x22813D, size: 0x8, addend: 0x0, symName: __ZN20llm_graph_input_meanC2ERK13llama_cparams, symObjAddr: 0xFA5C, symBinAddr: 0x4D940, symSize: 0xF0 }
  - { offset: 0x228274, size: 0x8, addend: 0x0, symName: __ZNK17llm_graph_context14build_inp_meanEv, symObjAddr: 0x8B58, symBinAddr: 0x47174, symSize: 0x128 }
  - { offset: 0x2286A6, size: 0x8, addend: 0x0, symName: __ZN20llm_graph_input_meanC2ERK13llama_cparams, symObjAddr: 0xFA5C, symBinAddr: 0x4D940, symSize: 0xF0 }
  - { offset: 0x228991, size: 0x8, addend: 0x0, symName: __ZN19llm_graph_input_clsC2ERK13llama_cparams8llm_arch, symObjAddr: 0xFB4C, symBinAddr: 0x4DA30, symSize: 0xF8 }
  - { offset: 0x228AD9, size: 0x8, addend: 0x0, symName: __ZNK17llm_graph_context13build_inp_clsEv, symObjAddr: 0x8C80, symBinAddr: 0x4729C, symSize: 0x128 }
  - { offset: 0x228F1B, size: 0x8, addend: 0x0, symName: __ZN19llm_graph_input_clsC2ERK13llama_cparams8llm_arch, symObjAddr: 0xFB4C, symBinAddr: 0x4DA30, symSize: 0xF8 }
  - { offset: 0x229215, size: 0x8, addend: 0x0, symName: __ZN29llm_graph_input_attn_no_cacheC2ERK13llama_hparamsRK13llama_cparams, symObjAddr: 0xFC44, symBinAddr: 0x4DB28, symSize: 0x118 }
  - { offset: 0x22937E, size: 0x8, addend: 0x0, symName: __ZNK17llm_graph_context20build_inp_cross_embdEv, symObjAddr: 0x8DA8, symBinAddr: 0x473C4, symSize: 0x168 }
  - { offset: 0x22999E, size: 0x8, addend: 0x0, symName: __ZNK17llm_graph_context24build_inp_pos_bucket_encEv, symObjAddr: 0x8F10, symBinAddr: 0x4752C, symSize: 0x138 }
  - { offset: 0x229F83, size: 0x8, addend: 0x0, symName: __ZNK17llm_graph_context24build_inp_pos_bucket_decEv, symObjAddr: 0x9048, symBinAddr: 0x47664, symSize: 0x15C }
  - { offset: 0x22A42E, size: 0x8, addend: 0x0, symName: __ZNK17llm_graph_context14build_pos_biasEP11ggml_tensorS1_, symObjAddr: 0x91A4, symBinAddr: 0x477C0, symSize: 0x118 }
  - { offset: 0x22A738, size: 0x8, addend: 0x0, symName: __ZNK17llm_graph_context14build_attn_mhaEP11ggml_tensorS1_S1_S1_S1_S1_S1_fi, symObjAddr: 0x92BC, symBinAddr: 0x478D8, symSize: 0x6E4 }
  - { offset: 0x22BA7B, size: 0x8, addend: 0x0, symName: __ZNK17llm_graph_context23build_attn_inp_no_cacheEv, symObjAddr: 0x99A0, symBinAddr: 0x47FBC, symSize: 0x188 }
  - { offset: 0x22BF11, size: 0x8, addend: 0x0, symName: __ZN29llm_graph_input_attn_no_cacheC2ERK13llama_hparamsRK13llama_cparams, symObjAddr: 0xFC44, symBinAddr: 0x4DB28, symSize: 0x118 }
  - { offset: 0x22C21F, size: 0x8, addend: 0x0, symName: __ZN26llm_graph_input_attn_k_dsaC2ERK13llama_hparamsRK13llama_cparamsPK26llama_kv_cache_dsa_context, symObjAddr: 0xFD5C, symBinAddr: 0x4DC40, symSize: 0x12C }
  - { offset: 0x22C256, size: 0x8, addend: 0x0, symName: __ZNK17llm_graph_context10build_attnEP29llm_graph_input_attn_no_cacheP11ggml_tensorS3_S3_S3_S3_S3_S3_S3_S3_fi, symObjAddr: 0x9B28, symBinAddr: 0x48144, symSize: 0x154 }
  - { offset: 0x22C5D3, size: 0x8, addend: 0x0, symName: __ZNK17llm_graph_context17build_attn_inp_kvEv, symObjAddr: 0x9C7C, symBinAddr: 0x48298, symSize: 0xE0 }
  - { offset: 0x22C953, size: 0x8, addend: 0x0, symName: __ZL22build_attn_inp_kv_implP12ggml_contextRK12llama_ubatchRK13llama_hparamsRK13llama_cparamsPK22llama_kv_cache_context, symObjAddr: 0x9D5C, symBinAddr: 0x48378, symSize: 0x16C }
  - { offset: 0x22CD7B, size: 0x8, addend: 0x0, symName: __ZN23llm_graph_input_attn_kvC2ERK13llama_hparamsRK13llama_cparamsPK22llama_kv_cache_context, symObjAddr: 0xEEB4, symBinAddr: 0x4CF88, symSize: 0x124 }
  - { offset: 0x22D089, size: 0x8, addend: 0x0, symName: __ZN17llm_graph_input_iD1Ev, symObjAddr: 0xEFD8, symBinAddr: 0x3636C8, symSize: 0x4 }
  - { offset: 0x22D0C5, size: 0x8, addend: 0x0, symName: __ZNK17llm_graph_context10build_attnEP23llm_graph_input_attn_kvP11ggml_tensorS3_S3_S3_S3_S3_S3_S3_S3_fi, symObjAddr: 0x9EC8, symBinAddr: 0x484E4, symSize: 0x294 }
  - { offset: 0x22D4BC, size: 0x8, addend: 0x0, symName: __ZL16ggml_mul_mat_auxP12ggml_contextP11ggml_tensorS2_, symObjAddr: 0xA15C, symBinAddr: 0x48778, symSize: 0x98 }
  - { offset: 0x22D4CF, size: 0x8, addend: 0x0, symName: __ZL16ggml_mul_mat_auxP12ggml_contextP11ggml_tensorS2_, symObjAddr: 0xA15C, symBinAddr: 0x48778, symSize: 0x98 }
  - { offset: 0x22D668, size: 0x8, addend: 0x0, symName: __ZNK17llm_graph_context16build_attn_inp_kEv, symObjAddr: 0xA1F4, symBinAddr: 0x48810, symSize: 0xE0 }
  - { offset: 0x22D9E8, size: 0x8, addend: 0x0, symName: __ZL21build_attn_inp_k_implP12ggml_contextRK12llama_ubatchRK13llama_hparamsRK13llama_cparamsPK22llama_kv_cache_context, symObjAddr: 0xA2D4, symBinAddr: 0x488F0, symSize: 0x138 }
  - { offset: 0x22DD96, size: 0x8, addend: 0x0, symName: __ZN22llm_graph_input_attn_kC2ERK13llama_hparamsRK13llama_cparamsPK22llama_kv_cache_context, symObjAddr: 0xEFE0, symBinAddr: 0x4D0AC, symSize: 0x124 }
  - { offset: 0x22E0B4, size: 0x8, addend: 0x0, symName: __ZNSt3__16__treeINS_12__value_typeIiiEENS_19__map_value_compareIiNS_4pairIKiiEENS_4lessIiEEEENS_9allocatorIS6_EEE14__tree_deleterclB9nqe220106EPNS_11__tree_nodeIS2_PvEE, symObjAddr: 0xF104, symBinAddr: 0x4D1D0, symSize: 0x4C }
  - { offset: 0x22E0F0, size: 0x8, addend: 0x0, symName: __ZNK17llm_graph_context10build_attnEP22llm_graph_input_attn_kP11ggml_tensorS3_S3_S3_S3_S3_S3_S3_S3_fi, symObjAddr: 0xA40C, symBinAddr: 0x48A28, symSize: 0x1DC }
  - { offset: 0x22E4B2, size: 0x8, addend: 0x0, symName: __ZNK17llm_graph_context10build_attnEP26llm_graph_input_attn_k_dsaP11ggml_tensorS3_S3_S3_S3_S3_S3_S3_S3_S3_fi, symObjAddr: 0xA5E8, symBinAddr: 0x48C04, symSize: 0x288 }
  - { offset: 0x22E905, size: 0x8, addend: 0x0, symName: __ZNK17llm_graph_context10build_attnEP28llm_graph_input_attn_kv_iswaP11ggml_tensorS3_S3_S3_S3_S3_S3_S3_S3_fi, symObjAddr: 0xA870, symBinAddr: 0x48E8C, symSize: 0x2CC }
  - { offset: 0x22EE2E, size: 0x8, addend: 0x0, symName: __ZNK17llm_graph_context20build_attn_inp_crossEv, symObjAddr: 0xAB3C, symBinAddr: 0x49158, symSize: 0x168 }
  - { offset: 0x22F31F, size: 0x8, addend: 0x0, symName: __ZNK17llm_graph_context10build_attnEP26llm_graph_input_attn_crossP11ggml_tensorS3_S3_S3_S3_S3_S3_S3_S3_fi, symObjAddr: 0xACA4, symBinAddr: 0x492C0, symSize: 0x138 }
  - { offset: 0x22F7EB, size: 0x8, addend: 0x0, symName: __ZNK17llm_graph_context20build_attn_inp_k_dsaEv, symObjAddr: 0xADDC, symBinAddr: 0x493F8, symSize: 0x2B8 }
  - { offset: 0x23015D, size: 0x8, addend: 0x0, symName: __ZN26llm_graph_input_attn_k_dsaC2ERK13llama_hparamsRK13llama_cparamsPK26llama_kv_cache_dsa_context, symObjAddr: 0xFD5C, symBinAddr: 0x4DC40, symSize: 0x12C }
  - { offset: 0x23047B, size: 0x8, addend: 0x0, symName: __ZN28llm_graph_input_attn_kv_iswaC2ERK13llama_hparamsRK13llama_cparamsPK27llama_kv_cache_iswa_context, symObjAddr: 0xFE88, symBinAddr: 0x4DD6C, symSize: 0x128 }
  - { offset: 0x2305D1, size: 0x8, addend: 0x0, symName: __ZNK17llm_graph_context22build_attn_inp_kv_iswaEv, symObjAddr: 0xB094, symBinAddr: 0x496B0, symSize: 0x2C0 }
  - { offset: 0x230B6D, size: 0x8, addend: 0x0, symName: __ZN28llm_graph_input_attn_kv_iswaC2ERK13llama_hparamsRK13llama_cparamsPK27llama_kv_cache_iswa_context, symObjAddr: 0xFE88, symBinAddr: 0x4DD6C, symSize: 0x128 }
  - { offset: 0x230E8B, size: 0x8, addend: 0x0, symName: __ZN20llm_graph_input_dsv4C2ERK13llama_cparamsNSt3__110unique_ptrI24llm_graph_input_dsv4_rawNS3_14default_deleteIS5_EEEEPK27llama_kv_cache_dsv4_context, symObjAddr: 0xFFB0, symBinAddr: 0x4DE94, symSize: 0x160 }
  - { offset: 0x231279, size: 0x8, addend: 0x0, symName: __ZNK17llm_graph_context14build_inp_dsv4Ev, symObjAddr: 0xB354, symBinAddr: 0x49970, symSize: 0x3E0 }
  - { offset: 0x231DB9, size: 0x8, addend: 0x0, symName: __ZN20llm_graph_input_dsv4C2ERK13llama_cparamsNSt3__110unique_ptrI24llm_graph_input_dsv4_rawNS3_14default_deleteIS5_EEEEPK27llama_kv_cache_dsv4_context, symObjAddr: 0xFFB0, symBinAddr: 0x4DE94, symSize: 0x160 }
  - { offset: 0x232196, size: 0x8, addend: 0x0, symName: __ZL22dsv4_build_comp_inputsP12ggml_contextRN20llm_graph_input_dsv410comp_inputERKN27llama_kv_cache_dsv4_context9comp_planEPKcx, symObjAddr: 0xB734, symBinAddr: 0x49D50, symSize: 0x918 }
  - { offset: 0x234B14, size: 0x8, addend: 0x0, symName: __ZNSt3__110unique_ptrI24llm_graph_input_dsv4_rawNS_14default_deleteIS1_EEED1B9nqe220106Ev, symObjAddr: 0xC04C, symBinAddr: 0x4A668, symSize: 0x40 }
  - { offset: 0x234F07, size: 0x8, addend: 0x0, symName: __ZNK17llm_graph_context8build_rsEP11ggml_tensorS1_S1_iijjjiRKNSt3__18functionIFS1_P12ggml_contextS1_S1_EEE, symObjAddr: 0xC08C, symBinAddr: 0x4A6A8, symSize: 0x15C }
  - { offset: 0x23515E, size: 0x8, addend: 0x0, symName: __ZNK17llm_graph_context12build_rs_inpEv, symObjAddr: 0xC1E8, symBinAddr: 0x4A804, symSize: 0xDC }
  - { offset: 0x23525E, size: 0x8, addend: 0x0, symName: __ZNK17llm_graph_context12build_rs_inpEv, symObjAddr: 0xC1E8, symBinAddr: 0x4A804, symSize: 0xDC }
  - { offset: 0x2355DE, size: 0x8, addend: 0x0, symName: __ZL17build_rs_inp_implP12ggml_contextRK12llama_ubatchPK30llama_memory_recurrent_context, symObjAddr: 0xC2C4, symBinAddr: 0x4A8E0, symSize: 0x108 }
  - { offset: 0x23597E, size: 0x8, addend: 0x0, symName: __ZNK17llm_graph_context8build_rsEP18llm_graph_input_rsP11ggml_tensoriiRKNSt3__18functionIFS3_P12ggml_contextS3_S3_EEE, symObjAddr: 0xC3CC, symBinAddr: 0x4A9E8, symSize: 0xB0 }
  - { offset: 0x235C12, size: 0x8, addend: 0x0, symName: __ZNK17llm_graph_context27build_rwkv_token_shift_loadEP18llm_graph_input_rsRK12llama_ubatchi, symObjAddr: 0xC47C, symBinAddr: 0x4AA98, symSize: 0x1B8 }
  - { offset: 0x235F3F, size: 0x8, addend: 0x0, symName: __ZNK17llm_graph_context28build_rwkv_token_shift_storeEP11ggml_tensorRK12llama_ubatchi, symObjAddr: 0xC634, symBinAddr: 0x4AC50, symSize: 0xE0 }
  - { offset: 0x236192, size: 0x8, addend: 0x0, symName: __ZNK17llm_graph_context20build_inp_mem_hybridEv, symObjAddr: 0xC714, symBinAddr: 0x4AD30, symSize: 0x1E0 }
  - { offset: 0x2369BA, size: 0x8, addend: 0x0, symName: __ZN26llm_graph_input_mem_hybridC2ERK13llama_cparamsNSt3__110unique_ptrI23llm_graph_input_attn_kvNS3_14default_deleteIS5_EEEENS4_I18llm_graph_input_rsNS6_IS9_EEEEPK27llama_memory_hybrid_context, symObjAddr: 0x10210, symBinAddr: 0x4E0F4, symSize: 0x140 }
  - { offset: 0x236E7F, size: 0x8, addend: 0x0, symName: __ZNK17llm_graph_context20build_inp_mem_hybridEv.cold.1, symObjAddr: 0x107BC, symBinAddr: 0x36370C, symSize: 0x24 }
  - { offset: 0x237005, size: 0x8, addend: 0x0, symName: __ZNK17llm_graph_context22build_inp_mem_hybrid_kEv, symObjAddr: 0xC8F4, symBinAddr: 0x4AF10, symSize: 0x1E0 }
  - { offset: 0x23782D, size: 0x8, addend: 0x0, symName: __ZN28llm_graph_input_mem_hybrid_kC2ERK13llama_cparamsNSt3__110unique_ptrI22llm_graph_input_attn_kNS3_14default_deleteIS5_EEEENS4_I18llm_graph_input_rsNS6_IS9_EEEEPK27llama_memory_hybrid_context, symObjAddr: 0x10350, symBinAddr: 0x4E234, symSize: 0x140 }
  - { offset: 0x237CF2, size: 0x8, addend: 0x0, symName: __ZNK17llm_graph_context22build_inp_mem_hybrid_kEv.cold.1, symObjAddr: 0x107E0, symBinAddr: 0x363730, symSize: 0x24 }
  - { offset: 0x237E7E, size: 0x8, addend: 0x0, symName: __ZNK17llm_graph_context25build_inp_mem_hybrid_iswaEv, symObjAddr: 0xCAD4, symBinAddr: 0x4B0F0, symSize: 0x34C }
  - { offset: 0x2387F5, size: 0x8, addend: 0x0, symName: __ZN31llm_graph_input_mem_hybrid_iswaC2ERK13llama_cparamsNSt3__110unique_ptrI28llm_graph_input_attn_kv_iswaNS3_14default_deleteIS5_EEEENS4_I18llm_graph_input_rsNS6_IS9_EEEEPK32llama_memory_hybrid_iswa_context, symObjAddr: 0x10490, symBinAddr: 0x4E374, symSize: 0x140 }
  - { offset: 0x238CBA, size: 0x8, addend: 0x0, symName: __ZNK17llm_graph_context25build_inp_mem_hybrid_iswaEv.cold.1, symObjAddr: 0x10804, symBinAddr: 0x363754, symSize: 0x24 }
  - { offset: 0x238D3A, size: 0x8, addend: 0x0, symName: __ZNK17llm_graph_context15build_dense_outEP11ggml_tensorS1_S1_, symObjAddr: 0xCE20, symBinAddr: 0x4B43C, symSize: 0x130 }
  - { offset: 0x238EED, size: 0x8, addend: 0x0, symName: __ZNK17llm_graph_context13build_poolingEP11ggml_tensorS1_S1_S1_S1_, symObjAddr: 0xCF50, symBinAddr: 0x4B56C, symSize: 0x2F0 }
  - { offset: 0x238F55, size: 0x8, addend: 0x0, symName: __ZNK17llm_graph_context13build_poolingEP11ggml_tensorS1_S1_S1_S1_, symObjAddr: 0xCF50, symBinAddr: 0x4B56C, symSize: 0x2F0 }
  - { offset: 0x239474, size: 0x8, addend: 0x0, symName: __ZNK17llm_graph_context14build_samplingEv, symObjAddr: 0xD240, symBinAddr: 0x4B85C, symSize: 0x6E0 }
  - { offset: 0x23A39B, size: 0x8, addend: 0x0, symName: __ZNK17llm_graph_context14build_samplingEv, symObjAddr: 0xD240, symBinAddr: 0x4B85C, symSize: 0x6E0 }
  - { offset: 0x23BE60, size: 0x8, addend: 0x0, symName: __ZNSt3__16__treeINS_12__value_typeIiiEENS_19__map_value_compareIiNS_4pairIKiiEENS_4lessIiEEEENS_9allocatorIS6_EEE14__tree_deleterclB9nqe220106EPNS_11__tree_nodeIS2_PvEE, symObjAddr: 0xF104, symBinAddr: 0x4D1D0, symSize: 0x4C }
  - { offset: 0x23BF39, size: 0x8, addend: 0x0, symName: __ZNSt3__13mapIiiNS_4lessIiEENS_9allocatorINS_4pairIKiiEEEEED1B9nqe220106Ev, symObjAddr: 0xDA64, symBinAddr: 0x4C080, symSize: 0x40 }
  - { offset: 0x23C185, size: 0x8, addend: 0x0, symName: __ZN20llm_graph_input_embdD1Ev, symObjAddr: 0xDAA4, symBinAddr: 0x4C0C0, symSize: 0x4 }
  - { offset: 0x23C1B2, size: 0x8, addend: 0x0, symName: __ZN20llm_graph_input_embdD0Ev, symObjAddr: 0xDAA8, symBinAddr: 0x4C0C4, symSize: 0x4 }
  - { offset: 0x23C1DB, size: 0x8, addend: 0x0, symName: __ZN22llm_graph_input_embd_hD1Ev, symObjAddr: 0xDAAC, symBinAddr: 0x4C0C8, symSize: 0x4 }
  - { offset: 0x23C208, size: 0x8, addend: 0x0, symName: __ZN22llm_graph_input_embd_hD0Ev, symObjAddr: 0xDAB0, symBinAddr: 0x4C0CC, symSize: 0x4 }
  - { offset: 0x23C231, size: 0x8, addend: 0x0, symName: __ZN19llm_graph_input_posD1Ev, symObjAddr: 0xDAB4, symBinAddr: 0x4C0D0, symSize: 0x4 }
  - { offset: 0x23C25E, size: 0x8, addend: 0x0, symName: __ZN19llm_graph_input_posD0Ev, symObjAddr: 0xDAB8, symBinAddr: 0x4C0D4, symSize: 0x4 }
  - { offset: 0x23C287, size: 0x8, addend: 0x0, symName: __ZN25llm_graph_input_attn_tempD1Ev, symObjAddr: 0xDABC, symBinAddr: 0x4C0D8, symSize: 0x4 }
  - { offset: 0x23C2B4, size: 0x8, addend: 0x0, symName: __ZN25llm_graph_input_attn_tempD0Ev, symObjAddr: 0xDAC0, symBinAddr: 0x4C0DC, symSize: 0x4 }
  - { offset: 0x23C2DD, size: 0x8, addend: 0x0, symName: __ZN17llm_graph_input_i9can_reuseERK16llm_graph_params, symObjAddr: 0xDAC4, symBinAddr: 0x4C0E0, symSize: 0x8 }
  - { offset: 0x23C312, size: 0x8, addend: 0x0, symName: __ZN26llm_graph_input_pos_bucketD1Ev, symObjAddr: 0xDACC, symBinAddr: 0x4C0E8, symSize: 0x4 }
  - { offset: 0x23C33F, size: 0x8, addend: 0x0, symName: __ZN26llm_graph_input_pos_bucketD0Ev, symObjAddr: 0xDAD0, symBinAddr: 0x4C0EC, symSize: 0x4 }
  - { offset: 0x23C368, size: 0x8, addend: 0x0, symName: __ZN29llm_graph_input_pos_bucket_kvD1Ev, symObjAddr: 0xDAD4, symBinAddr: 0x4C0F0, symSize: 0x4 }
  - { offset: 0x23C395, size: 0x8, addend: 0x0, symName: __ZN29llm_graph_input_pos_bucket_kvD0Ev, symObjAddr: 0xDAD8, symBinAddr: 0x4C0F4, symSize: 0x4 }
  - { offset: 0x23C3DC, size: 0x8, addend: 0x0, symName: __ZN23llm_graph_input_out_idsD1Ev, symObjAddr: 0xDADC, symBinAddr: 0x4C0F8, symSize: 0x3C }
  - { offset: 0x23C400, size: 0x8, addend: 0x0, symName: __ZN23llm_graph_input_out_idsD1Ev, symObjAddr: 0xDADC, symBinAddr: 0x4C0F8, symSize: 0x3C }
  - { offset: 0x23C53B, size: 0x8, addend: 0x0, symName: __ZN23llm_graph_input_out_idsD0Ev, symObjAddr: 0xDB18, symBinAddr: 0x4C134, symSize: 0x3C }
  - { offset: 0x23C568, size: 0x8, addend: 0x0, symName: __ZN23llm_graph_input_out_idsD0Ev, symObjAddr: 0xDB18, symBinAddr: 0x4C134, symSize: 0x3C }
  - { offset: 0x23C585, size: 0x8, addend: 0x0, symName: __ZN23llm_graph_input_out_idsD0Ev, symObjAddr: 0xDB18, symBinAddr: 0x4C134, symSize: 0x3C }
  - { offset: 0x23C6C1, size: 0x8, addend: 0x0, symName: __ZN20llm_graph_input_meanD1Ev, symObjAddr: 0xDB54, symBinAddr: 0x4C170, symSize: 0x3C }
  - { offset: 0x23C6E5, size: 0x8, addend: 0x0, symName: __ZN20llm_graph_input_meanD1Ev, symObjAddr: 0xDB54, symBinAddr: 0x4C170, symSize: 0x3C }
  - { offset: 0x23C820, size: 0x8, addend: 0x0, symName: __ZN20llm_graph_input_meanD0Ev, symObjAddr: 0xDB90, symBinAddr: 0x4C1AC, symSize: 0x3C }
  - { offset: 0x23C84D, size: 0x8, addend: 0x0, symName: __ZN20llm_graph_input_meanD0Ev, symObjAddr: 0xDB90, symBinAddr: 0x4C1AC, symSize: 0x3C }
  - { offset: 0x23C86A, size: 0x8, addend: 0x0, symName: __ZN20llm_graph_input_meanD0Ev, symObjAddr: 0xDB90, symBinAddr: 0x4C1AC, symSize: 0x3C }
  - { offset: 0x23C9A6, size: 0x8, addend: 0x0, symName: __ZN19llm_graph_input_clsD1Ev, symObjAddr: 0xDBCC, symBinAddr: 0x4C1E8, symSize: 0x3C }
  - { offset: 0x23C9CA, size: 0x8, addend: 0x0, symName: __ZN19llm_graph_input_clsD1Ev, symObjAddr: 0xDBCC, symBinAddr: 0x4C1E8, symSize: 0x3C }
  - { offset: 0x23CB05, size: 0x8, addend: 0x0, symName: __ZN19llm_graph_input_clsD0Ev, symObjAddr: 0xDC08, symBinAddr: 0x4C224, symSize: 0x3C }
  - { offset: 0x23CB32, size: 0x8, addend: 0x0, symName: __ZN19llm_graph_input_clsD0Ev, symObjAddr: 0xDC08, symBinAddr: 0x4C224, symSize: 0x3C }
  - { offset: 0x23CB4F, size: 0x8, addend: 0x0, symName: __ZN19llm_graph_input_clsD0Ev, symObjAddr: 0xDC08, symBinAddr: 0x4C224, symSize: 0x3C }
  - { offset: 0x23CC6D, size: 0x8, addend: 0x0, symName: __ZN18llm_graph_input_rsD1Ev, symObjAddr: 0xDC44, symBinAddr: 0x4C260, symSize: 0x4 }
  - { offset: 0x23CC9A, size: 0x8, addend: 0x0, symName: __ZN18llm_graph_input_rsD0Ev, symObjAddr: 0xDC48, symBinAddr: 0x4C264, symSize: 0x4 }
  - { offset: 0x23CCC3, size: 0x8, addend: 0x0, symName: __ZN26llm_graph_input_cross_embdD1Ev, symObjAddr: 0xDC4C, symBinAddr: 0x4C268, symSize: 0x4 }
  - { offset: 0x23CCF0, size: 0x8, addend: 0x0, symName: __ZN26llm_graph_input_cross_embdD0Ev, symObjAddr: 0xDC50, symBinAddr: 0x4C26C, symSize: 0x4 }
  - { offset: 0x23CD37, size: 0x8, addend: 0x0, symName: __ZN29llm_graph_input_attn_no_cacheD1Ev, symObjAddr: 0xDC54, symBinAddr: 0x4C270, symSize: 0x3C }
  - { offset: 0x23CD5B, size: 0x8, addend: 0x0, symName: __ZN29llm_graph_input_attn_no_cacheD1Ev, symObjAddr: 0xDC54, symBinAddr: 0x4C270, symSize: 0x3C }
  - { offset: 0x23CE98, size: 0x8, addend: 0x0, symName: __ZN29llm_graph_input_attn_no_cacheD0Ev, symObjAddr: 0xDC90, symBinAddr: 0x4C2AC, symSize: 0x3C }
  - { offset: 0x23CEC5, size: 0x8, addend: 0x0, symName: __ZN29llm_graph_input_attn_no_cacheD0Ev, symObjAddr: 0xDC90, symBinAddr: 0x4C2AC, symSize: 0x3C }
  - { offset: 0x23CEE3, size: 0x8, addend: 0x0, symName: __ZN29llm_graph_input_attn_no_cacheD0Ev, symObjAddr: 0xDC90, symBinAddr: 0x4C2AC, symSize: 0x3C }
  - { offset: 0x23D021, size: 0x8, addend: 0x0, symName: __ZN23llm_graph_input_attn_kvD1Ev, symObjAddr: 0xDCCC, symBinAddr: 0x4C2E8, symSize: 0x3C }
  - { offset: 0x23D045, size: 0x8, addend: 0x0, symName: __ZN23llm_graph_input_attn_kvD1Ev, symObjAddr: 0xDCCC, symBinAddr: 0x4C2E8, symSize: 0x3C }
  - { offset: 0x23D182, size: 0x8, addend: 0x0, symName: __ZN23llm_graph_input_attn_kvD0Ev, symObjAddr: 0xDD08, symBinAddr: 0x4C324, symSize: 0x3C }
  - { offset: 0x23D1AF, size: 0x8, addend: 0x0, symName: __ZN23llm_graph_input_attn_kvD0Ev, symObjAddr: 0xDD08, symBinAddr: 0x4C324, symSize: 0x3C }
  - { offset: 0x23D1CD, size: 0x8, addend: 0x0, symName: __ZN23llm_graph_input_attn_kvD0Ev, symObjAddr: 0xDD08, symBinAddr: 0x4C324, symSize: 0x3C }
  - { offset: 0x23D30B, size: 0x8, addend: 0x0, symName: __ZN22llm_graph_input_attn_kD1Ev, symObjAddr: 0xDD44, symBinAddr: 0x4C360, symSize: 0x3C }
  - { offset: 0x23D32F, size: 0x8, addend: 0x0, symName: __ZN22llm_graph_input_attn_kD1Ev, symObjAddr: 0xDD44, symBinAddr: 0x4C360, symSize: 0x3C }
  - { offset: 0x23D46C, size: 0x8, addend: 0x0, symName: __ZN22llm_graph_input_attn_kD0Ev, symObjAddr: 0xDD80, symBinAddr: 0x4C39C, symSize: 0x3C }
  - { offset: 0x23D499, size: 0x8, addend: 0x0, symName: __ZN22llm_graph_input_attn_kD0Ev, symObjAddr: 0xDD80, symBinAddr: 0x4C39C, symSize: 0x3C }
  - { offset: 0x23D4B7, size: 0x8, addend: 0x0, symName: __ZN22llm_graph_input_attn_kD0Ev, symObjAddr: 0xDD80, symBinAddr: 0x4C39C, symSize: 0x3C }
  - { offset: 0x23D5F5, size: 0x8, addend: 0x0, symName: __ZN26llm_graph_input_attn_k_dsaD1Ev, symObjAddr: 0xDDBC, symBinAddr: 0x4C3D8, symSize: 0x3C }
  - { offset: 0x23D619, size: 0x8, addend: 0x0, symName: __ZN26llm_graph_input_attn_k_dsaD1Ev, symObjAddr: 0xDDBC, symBinAddr: 0x4C3D8, symSize: 0x3C }
  - { offset: 0x23D756, size: 0x8, addend: 0x0, symName: __ZN26llm_graph_input_attn_k_dsaD0Ev, symObjAddr: 0xDDF8, symBinAddr: 0x4C414, symSize: 0x3C }
  - { offset: 0x23D783, size: 0x8, addend: 0x0, symName: __ZN26llm_graph_input_attn_k_dsaD0Ev, symObjAddr: 0xDDF8, symBinAddr: 0x4C414, symSize: 0x3C }
  - { offset: 0x23D7A1, size: 0x8, addend: 0x0, symName: __ZN26llm_graph_input_attn_k_dsaD0Ev, symObjAddr: 0xDDF8, symBinAddr: 0x4C414, symSize: 0x3C }
  - { offset: 0x23D8DF, size: 0x8, addend: 0x0, symName: __ZN28llm_graph_input_attn_kv_iswaD1Ev, symObjAddr: 0xDE34, symBinAddr: 0x4C450, symSize: 0x3C }
  - { offset: 0x23D903, size: 0x8, addend: 0x0, symName: __ZN28llm_graph_input_attn_kv_iswaD1Ev, symObjAddr: 0xDE34, symBinAddr: 0x4C450, symSize: 0x3C }
  - { offset: 0x23DA40, size: 0x8, addend: 0x0, symName: __ZN28llm_graph_input_attn_kv_iswaD0Ev, symObjAddr: 0xDE70, symBinAddr: 0x4C48C, symSize: 0x3C }
  - { offset: 0x23DA6D, size: 0x8, addend: 0x0, symName: __ZN28llm_graph_input_attn_kv_iswaD0Ev, symObjAddr: 0xDE70, symBinAddr: 0x4C48C, symSize: 0x3C }
  - { offset: 0x23DA8B, size: 0x8, addend: 0x0, symName: __ZN28llm_graph_input_attn_kv_iswaD0Ev, symObjAddr: 0xDE70, symBinAddr: 0x4C48C, symSize: 0x3C }
  - { offset: 0x23DBC9, size: 0x8, addend: 0x0, symName: __ZN20llm_graph_input_dsv4D1Ev, symObjAddr: 0xDEAC, symBinAddr: 0x4C4C8, symSize: 0x58 }
  - { offset: 0x23DEFC, size: 0x8, addend: 0x0, symName: __ZN20llm_graph_input_dsv4D0Ev, symObjAddr: 0xDF04, symBinAddr: 0x4C520, symSize: 0x58 }
  - { offset: 0x23E237, size: 0x8, addend: 0x0, symName: __ZN26llm_graph_input_attn_crossD1Ev, symObjAddr: 0xDF5C, symBinAddr: 0x4C578, symSize: 0x4 }
  - { offset: 0x23E264, size: 0x8, addend: 0x0, symName: __ZN26llm_graph_input_attn_crossD0Ev, symObjAddr: 0xDF60, symBinAddr: 0x4C57C, symSize: 0x4 }
  - { offset: 0x23E2AB, size: 0x8, addend: 0x0, symName: __ZN26llm_graph_input_mem_hybridD1Ev, symObjAddr: 0xDF64, symBinAddr: 0x4C580, symSize: 0x68 }
  - { offset: 0x23E54A, size: 0x8, addend: 0x0, symName: __ZN26llm_graph_input_mem_hybridD0Ev, symObjAddr: 0xDFCC, symBinAddr: 0x4C5E8, symSize: 0x68 }
  - { offset: 0x23E80F, size: 0x8, addend: 0x0, symName: __ZN28llm_graph_input_mem_hybrid_kD1Ev, symObjAddr: 0xE034, symBinAddr: 0x4C650, symSize: 0x68 }
  - { offset: 0x23EAAE, size: 0x8, addend: 0x0, symName: __ZN28llm_graph_input_mem_hybrid_kD0Ev, symObjAddr: 0xE09C, symBinAddr: 0x4C6B8, symSize: 0x68 }
  - { offset: 0x23ED73, size: 0x8, addend: 0x0, symName: __ZN31llm_graph_input_mem_hybrid_iswaD1Ev, symObjAddr: 0xE104, symBinAddr: 0x4C720, symSize: 0x68 }
  - { offset: 0x23F012, size: 0x8, addend: 0x0, symName: __ZN31llm_graph_input_mem_hybrid_iswaD0Ev, symObjAddr: 0xE16C, symBinAddr: 0x4C788, symSize: 0x68 }
  - { offset: 0x23F2D7, size: 0x8, addend: 0x0, symName: __ZN24llm_graph_input_samplingD1Ev, symObjAddr: 0xE1D4, symBinAddr: 0x4C7F0, symSize: 0x4C }
  - { offset: 0x23F429, size: 0x8, addend: 0x0, symName: __ZN24llm_graph_input_samplingD0Ev, symObjAddr: 0xE220, symBinAddr: 0x4C83C, symSize: 0x50 }
  - { offset: 0x23F57D, size: 0x8, addend: 0x0, symName: __ZN16llm_graph_resultD1Ev, symObjAddr: 0xE270, symBinAddr: 0x4C88C, symSize: 0x4 }
  - { offset: 0x23F5A0, size: 0x8, addend: 0x0, symName: __ZN16llm_graph_resultD1Ev, symObjAddr: 0xE270, symBinAddr: 0x4C88C, symSize: 0x4 }
  - { offset: 0x23F5B3, size: 0x8, addend: 0x0, symName: __ZN16llm_graph_resultD2Ev, symObjAddr: 0x105D0, symBinAddr: 0x4E4B4, symSize: 0x1B0 }
  - { offset: 0x24026E, size: 0x8, addend: 0x0, symName: __ZN16llm_graph_resultD0Ev, symObjAddr: 0xE274, symBinAddr: 0x4C890, symSize: 0x14 }
  - { offset: 0x2402EC, size: 0x8, addend: 0x0, symName: __ZN17llm_graph_contextD1Ev, symObjAddr: 0xE288, symBinAddr: 0x4C8A4, symSize: 0x50 }
  - { offset: 0x24045F, size: 0x8, addend: 0x0, symName: __ZN17llm_graph_contextD0Ev, symObjAddr: 0xE2D8, symBinAddr: 0x4C8F4, symSize: 0x54 }
  - { offset: 0x2406FE, size: 0x8, addend: 0x0, symName: __ZNSt3__119basic_ostringstreamIcNS_11char_traitsIcEENS_9allocatorIcEEEC1B9nqe220106Ev, symObjAddr: 0xE4E0, symBinAddr: 0x4CAFC, symSize: 0x154 }
  - { offset: 0x2409EB, size: 0x8, addend: 0x0, symName: __ZNSt3__119basic_ostringstreamIcNS_11char_traitsIcEENS_9allocatorIcEEED1Ev, symObjAddr: 0xE634, symBinAddr: 0x4CC50, symSize: 0x88 }
  - { offset: 0x240BA9, size: 0x8, addend: 0x0, symName: '__ZZL19dsv4_compress_debugvENK3$_0clEv', symObjAddr: 0xE4B4, symBinAddr: 0x4CAD0, symSize: 0x2C }
  - { offset: 0x241703, size: 0x8, addend: 0x0, symName: __ZN17llm_graph_input_iD1Ev, symObjAddr: 0xEFD8, symBinAddr: 0x3636C8, symSize: 0x4 }
  - { offset: 0x241730, size: 0x8, addend: 0x0, symName: __ZN17llm_graph_input_iD0Ev, symObjAddr: 0xEFDC, symBinAddr: 0x3636CC, symSize: 0x4 }
  - { offset: 0x241B6F, size: 0x8, addend: 0x0, symName: __ZNSt3__112__hash_tableIiNS_4hashIiEENS_8equal_toIiEENS_9allocatorIiEEE11__do_rehashILb1EEEvm, symObjAddr: 0xF61C, symBinAddr: 0x4D514, symSize: 0x180 }
  - { offset: 0x241DCB, size: 0x8, addend: 0x0, symName: __ZNSt3__16__treeINS_12__value_typeIiP11ggml_tensorEENS_19__map_value_compareIiNS_4pairIKiS3_EENS_4lessIiEEEENS_9allocatorIS8_EEE14__tree_deleterclB9nqe220106EPNS_11__tree_nodeIS4_PvEE, symObjAddr: 0xF79C, symBinAddr: 0x4D694, symSize: 0x4C }
  - { offset: 0x242075, size: 0x8, addend: 0x0, symName: __ZNSt3__16vectorINS_10unique_ptrI17llm_graph_input_iNS_14default_deleteIS2_EEEENS_9allocatorIS5_EEE20__throw_length_errorB9nqe220106Ev, symObjAddr: 0xF8DC, symBinAddr: 0x4D7C0, symSize: 0x14 }
  - { offset: 0x24208D, size: 0x8, addend: 0x0, symName: __ZNSt3__125__throw_bad_function_callB9nqe220106Ev, symObjAddr: 0xF8F0, symBinAddr: 0x4D7D4, symSize: 0x34 }
  - { offset: 0x2420EF, size: 0x8, addend: 0x0, symName: __ZNSt3__117bad_function_callD1Ev, symObjAddr: 0xF924, symBinAddr: 0x4D808, symSize: 0x4 }
  - { offset: 0x242111, size: 0x8, addend: 0x0, symName: __ZNSt3__117bad_function_callD1Ev, symObjAddr: 0xF924, symBinAddr: 0x4D808, symSize: 0x4 }
  - { offset: 0x242149, size: 0x8, addend: 0x0, symName: __ZNSt3__117bad_function_callD0Ev, symObjAddr: 0xF928, symBinAddr: 0x4D80C, symSize: 0x14 }
  - { offset: 0x2421EE, size: 0x8, addend: 0x0, symName: __ZNSt3__110__function6__funcIPFP11ggml_tensorP12ggml_contextS3_S3_ES6_ED1Ev, symObjAddr: 0x10110, symBinAddr: 0x4DFF4, symSize: 0x4 }
  - { offset: 0x24221D, size: 0x8, addend: 0x0, symName: __ZNSt3__110__function6__funcIPFP11ggml_tensorP12ggml_contextS3_S3_ES6_ED0Ev, symObjAddr: 0x10114, symBinAddr: 0x4DFF8, symSize: 0x4 }
  - { offset: 0x242292, size: 0x8, addend: 0x0, symName: __ZNKSt3__110__function6__funcIPFP11ggml_tensorP12ggml_contextS3_S3_ES6_E7__cloneEv, symObjAddr: 0x10118, symBinAddr: 0x4DFFC, symSize: 0x38 }
  - { offset: 0x242303, size: 0x8, addend: 0x0, symName: __ZNKSt3__110__function6__funcIPFP11ggml_tensorP12ggml_contextS3_S3_ES6_E7__cloneEPNS0_6__baseIS6_EE, symObjAddr: 0x10150, symBinAddr: 0x4E034, symSize: 0x18 }
  - { offset: 0x242338, size: 0x8, addend: 0x0, symName: __ZNKSt3__110__function6__funcIPFP11ggml_tensorP12ggml_contextS3_S3_ES6_E7__cloneEPNS0_6__baseIS6_EE, symObjAddr: 0x10150, symBinAddr: 0x4E034, symSize: 0x18 }
  - { offset: 0x24235C, size: 0x8, addend: 0x0, symName: __ZNKSt3__110__function6__funcIPFP11ggml_tensorP12ggml_contextS3_S3_ES6_E7__cloneEPNS0_6__baseIS6_EE, symObjAddr: 0x10150, symBinAddr: 0x4E034, symSize: 0x18 }
  - { offset: 0x242380, size: 0x8, addend: 0x0, symName: __ZNSt3__110__function6__funcIPFP11ggml_tensorP12ggml_contextS3_S3_ES6_E7destroyEv, symObjAddr: 0x10168, symBinAddr: 0x4E04C, symSize: 0x4 }
  - { offset: 0x2423A5, size: 0x8, addend: 0x0, symName: __ZNSt3__110__function6__funcIPFP11ggml_tensorP12ggml_contextS3_S3_ES6_E18destroy_deallocateEv, symObjAddr: 0x1016C, symBinAddr: 0x4E050, symSize: 0x14 }
  - { offset: 0x24242E, size: 0x8, addend: 0x0, symName: __ZNSt3__110__function6__funcIPFP11ggml_tensorP12ggml_contextS3_S3_ES6_EclEOS5_OS3_SA_, symObjAddr: 0x10180, symBinAddr: 0x4E064, symSize: 0x14 }
  - { offset: 0x242483, size: 0x8, addend: 0x0, symName: __ZNSt3__110__function6__funcIPFP11ggml_tensorP12ggml_contextS3_S3_ES6_EclEOS5_OS3_SA_, symObjAddr: 0x10180, symBinAddr: 0x4E064, symSize: 0x14 }
  - { offset: 0x2424B9, size: 0x8, addend: 0x0, symName: __ZNSt3__110__function6__funcIPFP11ggml_tensorP12ggml_contextS3_S3_ES6_EclEOS5_OS3_SA_, symObjAddr: 0x10180, symBinAddr: 0x4E064, symSize: 0x14 }
  - { offset: 0x2424F0, size: 0x8, addend: 0x0, symName: __ZNSt3__110__function6__funcIPFP11ggml_tensorP12ggml_contextS3_S3_ES6_EclEOS5_OS3_SA_, symObjAddr: 0x10180, symBinAddr: 0x4E064, symSize: 0x14 }
  - { offset: 0x24258C, size: 0x8, addend: 0x0, symName: __ZNKSt3__110__function6__funcIPFP11ggml_tensorP12ggml_contextS3_S3_ES6_E6targetERKSt9type_info, symObjAddr: 0x10194, symBinAddr: 0x4E078, symSize: 0x70 }
  - { offset: 0x242651, size: 0x8, addend: 0x0, symName: __ZNKSt3__110__function6__funcIPFP11ggml_tensorP12ggml_contextS3_S3_ES6_E11target_typeEv, symObjAddr: 0x10204, symBinAddr: 0x4E0E8, symSize: 0xC }
  - { offset: 0x242678, size: 0x8, addend: 0x0, symName: __ZN26llm_graph_input_mem_hybridC2ERK13llama_cparamsNSt3__110unique_ptrI23llm_graph_input_attn_kvNS3_14default_deleteIS5_EEEENS4_I18llm_graph_input_rsNS6_IS9_EEEEPK27llama_memory_hybrid_context.cold.1, symObjAddr: 0x10828, symBinAddr: 0x363778, symSize: 0x18 }
  - { offset: 0x2426F8, size: 0x8, addend: 0x0, symName: __ZN28llm_graph_input_mem_hybrid_kC2ERK13llama_cparamsNSt3__110unique_ptrI22llm_graph_input_attn_kNS3_14default_deleteIS5_EEEENS4_I18llm_graph_input_rsNS6_IS9_EEEEPK27llama_memory_hybrid_context.cold.1, symObjAddr: 0x10840, symBinAddr: 0x363790, symSize: 0x18 }
  - { offset: 0x24279A, size: 0x8, addend: 0x0, symName: __ZN31llm_graph_input_mem_hybrid_iswaC2ERK13llama_cparamsNSt3__110unique_ptrI28llm_graph_input_attn_kv_iswaNS3_14default_deleteIS5_EEEENS4_I18llm_graph_input_rsNS6_IS9_EEEEPK32llama_memory_hybrid_iswa_context.cold.1, symObjAddr: 0x10858, symBinAddr: 0x3637A8, symSize: 0x18 }
  - { offset: 0x242874, size: 0x8, addend: 0x0, symName: _OUTLINED_FUNCTION_0, symObjAddr: 0x10870, symBinAddr: 0x4E664, symSize: 0xC }
  - { offset: 0x24288C, size: 0x8, addend: 0x0, symName: _OUTLINED_FUNCTION_1, symObjAddr: 0x1087C, symBinAddr: 0x4E670, symSize: 0xC }
  - { offset: 0x2428A4, size: 0x8, addend: 0x0, symName: _OUTLINED_FUNCTION_2, symObjAddr: 0x10888, symBinAddr: 0x4E67C, symSize: 0x14 }
  - { offset: 0x2428BC, size: 0x8, addend: 0x0, symName: _OUTLINED_FUNCTION_3, symObjAddr: 0x1089C, symBinAddr: 0x4E690, symSize: 0x8 }
  - { offset: 0x2428D4, size: 0x8, addend: 0x0, symName: _OUTLINED_FUNCTION_4, symObjAddr: 0x108A4, symBinAddr: 0x4E698, symSize: 0x8 }
  - { offset: 0x2447F9, size: 0x8, addend: 0x0, symName: __ZN13llama_hparams15set_swa_patternEjb, symObjAddr: 0x0, symBinAddr: 0x4E6A0, symSize: 0x24C }
  - { offset: 0x246B0D, size: 0x8, addend: 0x0, symName: __ZN13llama_hparams15set_swa_patternEjb, symObjAddr: 0x0, symBinAddr: 0x4E6A0, symSize: 0x24C }
  - { offset: 0x246BAD, size: 0x8, addend: 0x0, symName: __ZNK13llama_hparams7n_layerEv, symObjAddr: 0x24C, symBinAddr: 0x4E8EC, symSize: 0xC }
  - { offset: 0x246BCF, size: 0x8, addend: 0x0, symName: __ZN13llama_hparams16set_recr_patternEjb, symObjAddr: 0x258, symBinAddr: 0x4E8F8, symSize: 0x24C }
  - { offset: 0x246C6F, size: 0x8, addend: 0x0, symName: __ZNK13llama_hparams10is_swa_anyEv, symObjAddr: 0x4A4, symBinAddr: 0x4EB44, symSize: 0x3C }
  - { offset: 0x246CB7, size: 0x8, addend: 0x0, symName: __ZNK13llama_hparams6n_headEj, symObjAddr: 0x4E0, symBinAddr: 0x4EB80, symSize: 0x38 }
  - { offset: 0x246CE4, size: 0x8, addend: 0x0, symName: __ZNK13llama_hparams9n_head_kvEj, symObjAddr: 0x518, symBinAddr: 0x4EBB8, symSize: 0x38 }
  - { offset: 0x246D15, size: 0x8, addend: 0x0, symName: __ZNK13llama_hparams9n_head_kvEj, symObjAddr: 0x518, symBinAddr: 0x4EBB8, symSize: 0x38 }
  - { offset: 0x246D42, size: 0x8, addend: 0x0, symName: __ZNK13llama_hparams4n_ffEj, symObjAddr: 0x550, symBinAddr: 0x4EBF0, symSize: 0x38 }
  - { offset: 0x246D54, size: 0x8, addend: 0x0, symName: __ZNK13llama_hparams4n_ffEj, symObjAddr: 0x550, symBinAddr: 0x4EBF0, symSize: 0x38 }
  - { offset: 0x246D8E, size: 0x8, addend: 0x0, symName: __ZNK13llama_hparams5n_gqaEj, symObjAddr: 0x588, symBinAddr: 0x4EC28, symSize: 0x54 }
  - { offset: 0x246DE6, size: 0x8, addend: 0x0, symName: __ZNK13llama_hparams5n_gqaEj, symObjAddr: 0x588, symBinAddr: 0x4EC28, symSize: 0x54 }
  - { offset: 0x246E83, size: 0x8, addend: 0x0, symName: __ZNK13llama_hparams5n_rotEj, symObjAddr: 0x5DC, symBinAddr: 0x4EC7C, symSize: 0x4C }
  - { offset: 0x246EB8, size: 0x8, addend: 0x0, symName: __ZNK13llama_hparams5n_rotEj, symObjAddr: 0x5DC, symBinAddr: 0x4EC7C, symSize: 0x4C }
  - { offset: 0x246F15, size: 0x8, addend: 0x0, symName: __ZNK13llama_hparams6is_swaEj, symObjAddr: 0x628, symBinAddr: 0x4ECC8, symSize: 0x54 }
  - { offset: 0x246F27, size: 0x8, addend: 0x0, symName: __ZNK13llama_hparams6is_swaEj, symObjAddr: 0x628, symBinAddr: 0x4ECC8, symSize: 0x54 }
  - { offset: 0x246F54, size: 0x8, addend: 0x0, symName: __ZNK13llama_hparams10n_embd_inpEv, symObjAddr: 0x67C, symBinAddr: 0x4ED1C, symSize: 0x28 }
  - { offset: 0x246F67, size: 0x8, addend: 0x0, symName: __ZNK13llama_hparams10n_embd_inpEv, symObjAddr: 0x67C, symBinAddr: 0x4ED1C, symSize: 0x28 }
  - { offset: 0x246FB5, size: 0x8, addend: 0x0, symName: __ZNK13llama_hparams14n_embd_inp_encEv, symObjAddr: 0x6A4, symBinAddr: 0x4ED44, symSize: 0x30 }
  - { offset: 0x247003, size: 0x8, addend: 0x0, symName: __ZNK13llama_hparams10n_embd_outEv, symObjAddr: 0x6D4, symBinAddr: 0x4ED74, symSize: 0x18 }
  - { offset: 0x24702C, size: 0x8, addend: 0x0, symName: __ZNK13llama_hparams13n_embd_head_kEj, symObjAddr: 0x6EC, symBinAddr: 0x4ED8C, symSize: 0x4C }
  - { offset: 0x24707C, size: 0x8, addend: 0x0, symName: __ZNK13llama_hparams13n_embd_head_vEj, symObjAddr: 0x738, symBinAddr: 0x4EDD8, symSize: 0x4C }
  - { offset: 0x24708E, size: 0x8, addend: 0x0, symName: __ZNK13llama_hparams13n_embd_head_vEj, symObjAddr: 0x738, symBinAddr: 0x4EDD8, symSize: 0x4C }
  - { offset: 0x2470DE, size: 0x8, addend: 0x0, symName: __ZNK13llama_hparams12n_embd_k_gqaEj, symObjAddr: 0x784, symBinAddr: 0x4EE24, symSize: 0x54 }
  - { offset: 0x247114, size: 0x8, addend: 0x0, symName: __ZNK13llama_hparams12n_embd_k_gqaEj, symObjAddr: 0x784, symBinAddr: 0x4EE24, symSize: 0x54 }
  - { offset: 0x2471B0, size: 0x8, addend: 0x0, symName: __ZNK13llama_hparams12n_embd_v_gqaEj, symObjAddr: 0x7D8, symBinAddr: 0x4EE78, symSize: 0x54 }
  - { offset: 0x2471E5, size: 0x8, addend: 0x0, symName: __ZNK13llama_hparams12n_embd_v_gqaEj, symObjAddr: 0x7D8, symBinAddr: 0x4EE78, symSize: 0x54 }
  - { offset: 0x247281, size: 0x8, addend: 0x0, symName: __ZNK13llama_hparams24is_n_embd_k_gqa_variableEv, symObjAddr: 0x82C, symBinAddr: 0x4EECC, symSize: 0x8C }
  - { offset: 0x2472C6, size: 0x8, addend: 0x0, symName: __ZNK13llama_hparams24is_n_embd_k_gqa_variableEv, symObjAddr: 0x82C, symBinAddr: 0x4EECC, symSize: 0x8C }
  - { offset: 0x247428, size: 0x8, addend: 0x0, symName: __ZNK13llama_hparams24is_n_embd_v_gqa_variableEv, symObjAddr: 0x8B8, symBinAddr: 0x4EF58, symSize: 0x8C }
  - { offset: 0x247468, size: 0x8, addend: 0x0, symName: __ZNK13llama_hparams24is_n_embd_v_gqa_variableEv, symObjAddr: 0x8B8, symBinAddr: 0x4EF58, symSize: 0x8C }
  - { offset: 0x2475CA, size: 0x8, addend: 0x0, symName: __ZNK13llama_hparams16n_embd_k_gqa_maxEv, symObjAddr: 0x944, symBinAddr: 0x4EFE4, symSize: 0x114 }
  - { offset: 0x2475DC, size: 0x8, addend: 0x0, symName: __ZNK13llama_hparams16n_embd_k_gqa_maxEv, symObjAddr: 0x944, symBinAddr: 0x4EFE4, symSize: 0x114 }
  - { offset: 0x247717, size: 0x8, addend: 0x0, symName: __ZNK13llama_hparams16n_embd_v_gqa_maxEv, symObjAddr: 0xA58, symBinAddr: 0x4F0F8, symSize: 0x114 }
  - { offset: 0x247729, size: 0x8, addend: 0x0, symName: __ZNK13llama_hparams16n_embd_v_gqa_maxEv, symObjAddr: 0xA58, symBinAddr: 0x4F0F8, symSize: 0x114 }
  - { offset: 0x247864, size: 0x8, addend: 0x0, symName: __ZNK13llama_hparams8n_embd_rEv, symObjAddr: 0xB6C, symBinAddr: 0x4F20C, symSize: 0xB0 }
  - { offset: 0x247876, size: 0x8, addend: 0x0, symName: __ZNK13llama_hparams8n_embd_rEv, symObjAddr: 0xB6C, symBinAddr: 0x4F20C, symSize: 0xB0 }
  - { offset: 0x2478D7, size: 0x8, addend: 0x0, symName: __ZNK13llama_hparams8n_embd_sEv, symObjAddr: 0xC1C, symBinAddr: 0x4F2BC, symSize: 0x64 }
  - { offset: 0x2478E9, size: 0x8, addend: 0x0, symName: __ZNK13llama_hparams8n_embd_sEv, symObjAddr: 0xC1C, symBinAddr: 0x4F2BC, symSize: 0x64 }
  - { offset: 0x247934, size: 0x8, addend: 0x0, symName: __ZNK13llama_hparams7is_recrEj, symObjAddr: 0xC80, symBinAddr: 0x4F320, symSize: 0x54 }
  - { offset: 0x247946, size: 0x8, addend: 0x0, symName: __ZNK13llama_hparams7is_recrEj, symObjAddr: 0xC80, symBinAddr: 0x4F320, symSize: 0x54 }
  - { offset: 0x247980, size: 0x8, addend: 0x0, symName: __ZNK13llama_hparams14n_pos_per_embdEv, symObjAddr: 0xCD4, symBinAddr: 0x4F374, symSize: 0x1C }
  - { offset: 0x247993, size: 0x8, addend: 0x0, symName: __ZNK13llama_hparams14n_pos_per_embdEv, symObjAddr: 0xCD4, symBinAddr: 0x4F374, symSize: 0x1C }
  - { offset: 0x2479BC, size: 0x8, addend: 0x0, symName: __ZNK13llama_hparams6is_mlaEv, symObjAddr: 0xCF0, symBinAddr: 0x4F390, symSize: 0x20 }
  - { offset: 0x2479F6, size: 0x8, addend: 0x0, symName: __ZNK13llama_hparams17n_embd_head_k_mlaEv, symObjAddr: 0xD10, symBinAddr: 0x4F3B0, symSize: 0x60 }
  - { offset: 0x247A21, size: 0x8, addend: 0x0, symName: __ZNK13llama_hparams17n_embd_head_k_mlaEv, symObjAddr: 0xD10, symBinAddr: 0x4F3B0, symSize: 0x60 }
  - { offset: 0x247A7E, size: 0x8, addend: 0x0, symName: __ZNK13llama_hparams17n_embd_head_v_mlaEv, symObjAddr: 0xD70, symBinAddr: 0x4F410, symSize: 0x60 }
  - { offset: 0x247A90, size: 0x8, addend: 0x0, symName: __ZNK13llama_hparams17n_embd_head_v_mlaEv, symObjAddr: 0xD70, symBinAddr: 0x4F410, symSize: 0x60 }
  - { offset: 0x247ABB, size: 0x8, addend: 0x0, symName: __ZNK13llama_hparams17n_embd_head_v_mlaEv, symObjAddr: 0xD70, symBinAddr: 0x4F410, symSize: 0x60 }
  - { offset: 0x247B19, size: 0x8, addend: 0x0, symName: __ZNK13llama_hparams6has_kvEj, symObjAddr: 0xDD0, symBinAddr: 0x4F470, symSize: 0x14 }
  - { offset: 0x247B2C, size: 0x8, addend: 0x0, symName: __ZNK13llama_hparams6has_kvEj, symObjAddr: 0xDD0, symBinAddr: 0x4F470, symSize: 0x14 }
  - { offset: 0x247B64, size: 0x8, addend: 0x0, symName: __ZNK13llama_hparams9use_mropeEv, symObjAddr: 0xDE4, symBinAddr: 0x4F484, symSize: 0x24 }
  - { offset: 0x249A89, size: 0x8, addend: 0x0, symName: __ZL14g_logger_state.0, symObjAddr: 0x17B8, symBinAddr: 0x40C2C8, symSize: 0x0 }
  - { offset: 0x249A94, size: 0x8, addend: 0x0, symName: __ZL14g_logger_state.1, symObjAddr: 0x2FE58, symBinAddr: 0x4A2150, symSize: 0x0 }
  - { offset: 0x250A9D, size: 0x8, addend: 0x0, symName: __ZN9time_measC2ERxb, symObjAddr: 0x0, symBinAddr: 0x4F4A8, symSize: 0x48 }
  - { offset: 0x250B23, size: 0x8, addend: 0x0, symName: __ZN9time_measC1ERxb, symObjAddr: 0x48, symBinAddr: 0x4F4F0, symSize: 0x48 }
  - { offset: 0x250BA5, size: 0x8, addend: 0x0, symName: __ZN9time_measD2Ev, symObjAddr: 0x90, symBinAddr: 0x4F538, symSize: 0x44 }
  - { offset: 0x250BF5, size: 0x8, addend: 0x0, symName: __ZN9time_measD1Ev, symObjAddr: 0xE4, symBinAddr: 0x4F57C, symSize: 0x44 }
  - { offset: 0x250C4B, size: 0x8, addend: 0x0, symName: _llama_log_get, symObjAddr: 0x128, symBinAddr: 0x4F5C0, symSize: 0x4 }
  - { offset: 0x250C81, size: 0x8, addend: 0x0, symName: _llama_log_get, symObjAddr: 0x128, symBinAddr: 0x4F5C0, symSize: 0x4 }
  - { offset: 0x250CB4, size: 0x8, addend: 0x0, symName: _llama_log_set, symObjAddr: 0x12C, symBinAddr: 0x4F5C4, symSize: 0x44 }
  - { offset: 0x250D19, size: 0x8, addend: 0x0, symName: __Z26llama_log_callback_default14ggml_log_levelPKcPv, symObjAddr: 0x170, symBinAddr: 0x4F608, symSize: 0x30 }
  - { offset: 0x250FAB, size: 0x8, addend: 0x0, symName: __Z18llama_log_internal14ggml_log_levelPKcz, symObjAddr: 0x1A0, symBinAddr: 0x4F638, symSize: 0xF8 }
  - { offset: 0x25138B, size: 0x8, addend: 0x0, symName: __Z11replace_allRNSt3__112basic_stringIcNS_11char_traitsIcEENS_9allocatorIcEEEERKS5_S8_, symObjAddr: 0x298, symBinAddr: 0x4F730, symSize: 0x1FC }
  - { offset: 0x251D94, size: 0x8, addend: 0x0, symName: __Z6formatPKcz, symObjAddr: 0x494, symBinAddr: 0x4F92C, symSize: 0x154 }
  - { offset: 0x25244F, size: 0x8, addend: 0x0, symName: __Z25llama_format_tensor_shapeRKNSt3__16vectorIxNS_9allocatorIxEEEE, symObjAddr: 0x5E8, symBinAddr: 0x4FA80, symSize: 0x160 }
  - { offset: 0x25283D, size: 0x8, addend: 0x0, symName: __ZNSt3__16vectorIxNS_9allocatorIxEEE20__throw_out_of_rangeB9nqe220106Ev, symObjAddr: 0x12B4, symBinAddr: 0x504A8, symSize: 0x14 }
  - { offset: 0x252875, size: 0x8, addend: 0x0, symName: __Z25llama_format_tensor_shapePK11ggml_tensor, symObjAddr: 0x748, symBinAddr: 0x4FBE0, symSize: 0x160 }
  - { offset: 0x252D9B, size: 0x8, addend: 0x0, symName: __Z14gguf_kv_to_strPK12gguf_contexti, symObjAddr: 0x8A8, symBinAddr: 0x4FD40, symSize: 0x5B4 }
  - { offset: 0x25445E, size: 0x8, addend: 0x0, symName: __ZL16gguf_data_to_str9gguf_typePKvi, symObjAddr: 0xFF0, symBinAddr: 0x502F4, symSize: 0x1B4 }
  - { offset: 0x256EC8, size: 0x8, addend: 0x0, symName: __ZN16llama_io_write_i12write_stringERKNSt3__112basic_stringIcNS0_11char_traitsIcEENS0_9allocatorIcEEEE, symObjAddr: 0x0, symBinAddr: 0x504BC, symSize: 0x78 }
  - { offset: 0x25A519, size: 0x8, addend: 0x0, symName: __ZN16llama_io_write_i12write_stringERKNSt3__112basic_stringIcNS0_11char_traitsIcEENS0_9allocatorIcEEEE, symObjAddr: 0x0, symBinAddr: 0x504BC, symSize: 0x78 }
  - { offset: 0x25A856, size: 0x8, addend: 0x0, symName: __ZN15llama_io_read_i11read_stringERNSt3__112basic_stringIcNS0_11char_traitsIcEENS0_9allocatorIcEEEE, symObjAddr: 0x78, symBinAddr: 0x50534, symSize: 0xB4 }
  - { offset: 0x25CA88, size: 0x8, addend: 0x0, symName: __ZTV18llama_kv_cache_dsa, symObjAddr: 0x2498, symBinAddr: 0x3FB600, symSize: 0x0 }
  - { offset: 0x27D6C8, size: 0x8, addend: 0x0, symName: __ZNSt3__111make_uniqueB9nqe220106I26llama_kv_cache_dsa_contextJP18llama_kv_cache_dsaNS_6vectorIN14llama_kv_cache9slot_infoENS_9allocatorIS6_EEEES9_NS4_I12llama_ubatchNS7_ISA_EEEEELi0EEENS_10unique_ptrIT_NS_14default_deleteISE_EEEEDpOT0_, symObjAddr: 0xBA4, symBinAddr: 0x510E8, symSize: 0x264 }
  - { offset: 0x2856D2, size: 0x8, addend: 0x0, symName: __ZTV26llama_kv_cache_dsa_context, symObjAddr: 0x2530, symBinAddr: 0x3FB698, symSize: 0x0 }
  - { offset: 0x285F91, size: 0x8, addend: 0x0, symName: __ZN18llama_kv_cache_dsaC2ERK11llama_model9ggml_typeS3_bbbjjjj14llama_swa_typeRKNSt3__18functionIFbiEEERKNS6_IFiiEEE, symObjAddr: 0x0, symBinAddr: 0x505E8, symSize: 0x2E8 }
  - { offset: 0x286698, size: 0x8, addend: 0x0, symName: __ZN18llama_kv_cache_dsaC1ERK11llama_model9ggml_typeS3_bbbjjjj14llama_swa_typeRKNSt3__18functionIFbiEEERKNS6_IFiiEEE, symObjAddr: 0x2E8, symBinAddr: 0x508D0, symSize: 0x4 }
  - { offset: 0x286791, size: 0x8, addend: 0x0, symName: __ZN18llama_kv_cache_dsaC1ERK11llama_model9ggml_typeS3_bbbjjjj14llama_swa_typeRKNSt3__18functionIFbiEEERKNS6_IFiiEEE, symObjAddr: 0x2E8, symBinAddr: 0x508D0, symSize: 0x4 }
  - { offset: 0x2867F0, size: 0x8, addend: 0x0, symName: __ZN18llama_kv_cache_dsa5clearEb, symObjAddr: 0x2EC, symBinAddr: 0x508D4, symSize: 0x40 }
  - { offset: 0x286888, size: 0x8, addend: 0x0, symName: __ZN18llama_kv_cache_dsa6seq_rmEiii, symObjAddr: 0x32C, symBinAddr: 0x50914, symSize: 0x6C }
  - { offset: 0x28696F, size: 0x8, addend: 0x0, symName: __ZN18llama_kv_cache_dsa6seq_cpEiiii, symObjAddr: 0x398, symBinAddr: 0x50980, symSize: 0x68 }
  - { offset: 0x286A49, size: 0x8, addend: 0x0, symName: __ZN18llama_kv_cache_dsa8seq_keepEi, symObjAddr: 0x400, symBinAddr: 0x509E8, symSize: 0x40 }
  - { offset: 0x286AE1, size: 0x8, addend: 0x0, symName: __ZN18llama_kv_cache_dsa7seq_addEiiii, symObjAddr: 0x440, symBinAddr: 0x50A28, symSize: 0x68 }
  - { offset: 0x286BBB, size: 0x8, addend: 0x0, symName: __ZN18llama_kv_cache_dsa7seq_divEiiii, symObjAddr: 0x4A8, symBinAddr: 0x50A90, symSize: 0x68 }
  - { offset: 0x286C95, size: 0x8, addend: 0x0, symName: __ZNK18llama_kv_cache_dsa11seq_pos_minEi, symObjAddr: 0x510, symBinAddr: 0x50AF8, symSize: 0x10 }
  - { offset: 0x286CCE, size: 0x8, addend: 0x0, symName: __ZNK18llama_kv_cache_dsa11seq_pos_minEi, symObjAddr: 0x510, symBinAddr: 0x50AF8, symSize: 0x10 }
  - { offset: 0x286D00, size: 0x8, addend: 0x0, symName: __ZNK18llama_kv_cache_dsa11seq_pos_maxEi, symObjAddr: 0x520, symBinAddr: 0x50B08, symSize: 0x10 }
  - { offset: 0x286D39, size: 0x8, addend: 0x0, symName: __ZNK18llama_kv_cache_dsa11seq_pos_maxEi, symObjAddr: 0x520, symBinAddr: 0x50B08, symSize: 0x10 }
  - { offset: 0x28755B, size: 0x8, addend: 0x0, symName: __ZNK18llama_kv_cache_dsa16memory_breakdownEv, symObjAddr: 0x530, symBinAddr: 0x50B18, symSize: 0x1BC }
  - { offset: 0x288858, size: 0x8, addend: 0x0, symName: __ZN18llama_kv_cache_dsa10init_batchER18llama_batch_allocrjb, symObjAddr: 0x72C, symBinAddr: 0x50CD4, symSize: 0x414 }
  - { offset: 0x28998E, size: 0x8, addend: 0x0, symName: __ZNSt3__16vectorI12llama_ubatchNS_9allocatorIS1_EEE24__emplace_back_slow_pathIJS1_EEEPS1_DpOT_, symObjAddr: 0x202C, symBinAddr: 0x52318, symSize: 0x1BC }
  - { offset: 0x289F8C, size: 0x8, addend: 0x0, symName: __ZNSt3__16vectorI12llama_ubatchNS_9allocatorIS1_EEE20__throw_length_errorB9nqe220106Ev, symObjAddr: 0x21E8, symBinAddr: 0x524D4, symSize: 0x14 }
  - { offset: 0x289FA2, size: 0x8, addend: 0x0, symName: __ZNSt3__16vectorIN14llama_kv_cache9slot_infoENS_9allocatorIS2_EEED1B9nqe220106Ev, symObjAddr: 0xE08, symBinAddr: 0x5134C, symSize: 0xC4 }
  - { offset: 0x28A477, size: 0x8, addend: 0x0, symName: __ZNSt3__16vectorI12llama_ubatchNS_9allocatorIS1_EEED1B9nqe220106Ev, symObjAddr: 0xECC, symBinAddr: 0x51410, symSize: 0x98 }
  - { offset: 0x28A856, size: 0x8, addend: 0x0, symName: __ZN26llama_kv_cache_dsa_contextC2EP18llama_kv_cache_dsaNSt3__16vectorIN14llama_kv_cache9slot_infoENS2_9allocatorIS5_EEEES8_NS3_I12llama_ubatchNS6_IS9_EEEE, symObjAddr: 0x13F4, symBinAddr: 0x51938, symSize: 0x5CC }
  - { offset: 0x28C2C7, size: 0x8, addend: 0x0, symName: __ZN18llama_kv_cache_dsa9init_fullEv, symObjAddr: 0xF64, symBinAddr: 0x514A8, symSize: 0x54 }
  - { offset: 0x28C36E, size: 0x8, addend: 0x0, symName: __ZN26llama_kv_cache_dsa_contextC2EP18llama_kv_cache_dsa, symObjAddr: 0x118C, symBinAddr: 0x516D0, symSize: 0x120 }
  - { offset: 0x28C623, size: 0x8, addend: 0x0, symName: __ZN18llama_kv_cache_dsa11init_updateEP13llama_contextb, symObjAddr: 0xFB8, symBinAddr: 0x514FC, symSize: 0x6C }
  - { offset: 0x28C707, size: 0x8, addend: 0x0, symName: __ZN26llama_kv_cache_dsa_contextC2EP18llama_kv_cache_dsaP13llama_contextb, symObjAddr: 0x12B0, symBinAddr: 0x517F4, symSize: 0x140 }
  - { offset: 0x28C9B1, size: 0x8, addend: 0x0, symName: __ZNK18llama_kv_cache_dsa13get_can_shiftEv, symObjAddr: 0x1024, symBinAddr: 0x51568, symSize: 0x60 }
  - { offset: 0x28CA72, size: 0x8, addend: 0x0, symName: __ZNK18llama_kv_cache_dsa11state_writeER16llama_io_write_iij, symObjAddr: 0x1084, symBinAddr: 0x515C8, symSize: 0x58 }
  - { offset: 0x28CB36, size: 0x8, addend: 0x0, symName: __ZN18llama_kv_cache_dsa10state_readER15llama_io_read_iij, symObjAddr: 0x10DC, symBinAddr: 0x51620, symSize: 0x58 }
  - { offset: 0x28CC10, size: 0x8, addend: 0x0, symName: __ZNK18llama_kv_cache_dsa7get_mlaEv, symObjAddr: 0x1134, symBinAddr: 0x51678, symSize: 0x8 }
  - { offset: 0x28CC34, size: 0x8, addend: 0x0, symName: __ZNK18llama_kv_cache_dsa7get_mlaEv, symObjAddr: 0x1134, symBinAddr: 0x51678, symSize: 0x8 }
  - { offset: 0x28CC52, size: 0x8, addend: 0x0, symName: __ZNK18llama_kv_cache_dsa7get_lidEv, symObjAddr: 0x113C, symBinAddr: 0x51680, symSize: 0x8 }
  - { offset: 0x28CC76, size: 0x8, addend: 0x0, symName: __ZNK18llama_kv_cache_dsa7get_lidEv, symObjAddr: 0x113C, symBinAddr: 0x51680, symSize: 0x8 }
  - { offset: 0x28CC94, size: 0x8, addend: 0x0, symName: __ZN26llama_kv_cache_dsa_contextC2E19llama_memory_status, symObjAddr: 0x1144, symBinAddr: 0x51688, symSize: 0x24 }
  - { offset: 0x28CCF7, size: 0x8, addend: 0x0, symName: __ZN26llama_kv_cache_dsa_contextC1E19llama_memory_status, symObjAddr: 0x1168, symBinAddr: 0x516AC, symSize: 0x24 }
  - { offset: 0x28CD20, size: 0x8, addend: 0x0, symName: __ZN26llama_kv_cache_dsa_contextC1E19llama_memory_status, symObjAddr: 0x1168, symBinAddr: 0x516AC, symSize: 0x24 }
  - { offset: 0x28CE77, size: 0x8, addend: 0x0, symName: __ZN26llama_kv_cache_dsa_contextC1EP18llama_kv_cache_dsa, symObjAddr: 0x12AC, symBinAddr: 0x517F0, symSize: 0x4 }
  - { offset: 0x28CEA1, size: 0x8, addend: 0x0, symName: __ZN26llama_kv_cache_dsa_contextC1EP18llama_kv_cache_dsa, symObjAddr: 0x12AC, symBinAddr: 0x517F0, symSize: 0x4 }
  - { offset: 0x28CEBB, size: 0x8, addend: 0x0, symName: __ZN26llama_kv_cache_dsa_contextC1EP18llama_kv_cache_dsaP13llama_contextb, symObjAddr: 0x13F0, symBinAddr: 0x51934, symSize: 0x4 }
  - { offset: 0x28CEF8, size: 0x8, addend: 0x0, symName: __ZN26llama_kv_cache_dsa_contextC1EP18llama_kv_cache_dsaP13llama_contextb, symObjAddr: 0x13F0, symBinAddr: 0x51934, symSize: 0x4 }
  - { offset: 0x28D2BC, size: 0x8, addend: 0x0, symName: __ZNSt3__16vectorI12llama_ubatchNS_9allocatorIS1_EEE20__throw_length_errorB9nqe220106Ev, symObjAddr: 0x21E8, symBinAddr: 0x524D4, symSize: 0x14 }
  - { offset: 0x28D2DF, size: 0x8, addend: 0x0, symName: __ZNSt3__128__exception_guard_exceptionsINS_6vectorI12llama_ubatchNS_9allocatorIS2_EEE16__destroy_vectorEED1B9nqe220106Ev, symObjAddr: 0x2270, symBinAddr: 0x524E8, symSize: 0xB0 }
  - { offset: 0x28D503, size: 0x8, addend: 0x0, symName: __ZN26llama_kv_cache_dsa_contextC1EP18llama_kv_cache_dsaNSt3__16vectorIN14llama_kv_cache9slot_infoENS2_9allocatorIS5_EEEES8_NS3_I12llama_ubatchNS6_IS9_EEEE, symObjAddr: 0x19C0, symBinAddr: 0x51F04, symSize: 0x4 }
  - { offset: 0x28D545, size: 0x8, addend: 0x0, symName: __ZN26llama_kv_cache_dsa_contextC1EP18llama_kv_cache_dsaNSt3__16vectorIN14llama_kv_cache9slot_infoENS2_9allocatorIS5_EEEES8_NS3_I12llama_ubatchNS6_IS9_EEEE, symObjAddr: 0x19C0, symBinAddr: 0x51F04, symSize: 0x4 }
  - { offset: 0x28D574, size: 0x8, addend: 0x0, symName: __ZN26llama_kv_cache_dsa_contextD2Ev, symObjAddr: 0x19C4, symBinAddr: 0x51F08, symSize: 0xD4 }
  - { offset: 0x28D908, size: 0x8, addend: 0x0, symName: __ZN26llama_kv_cache_dsa_contextD1Ev, symObjAddr: 0x1A98, symBinAddr: 0x51FDC, symSize: 0xD4 }
  - { offset: 0x28DCB8, size: 0x8, addend: 0x0, symName: __ZN26llama_kv_cache_dsa_contextD0Ev, symObjAddr: 0x1B6C, symBinAddr: 0x520B0, symSize: 0xD4 }
  - { offset: 0x28E06F, size: 0x8, addend: 0x0, symName: __ZN26llama_kv_cache_dsa_context4nextEv, symObjAddr: 0x1C40, symBinAddr: 0x52184, symSize: 0x70 }
  - { offset: 0x28E10A, size: 0x8, addend: 0x0, symName: __ZN26llama_kv_cache_dsa_context5applyEv, symObjAddr: 0x1CB0, symBinAddr: 0x521F4, symSize: 0x44 }
  - { offset: 0x28E197, size: 0x8, addend: 0x0, symName: __ZNK26llama_kv_cache_dsa_context10get_statusEv, symObjAddr: 0x1CF4, symBinAddr: 0x52238, symSize: 0x8 }
  - { offset: 0x28E1E2, size: 0x8, addend: 0x0, symName: __ZNK26llama_kv_cache_dsa_context10get_ubatchEv, symObjAddr: 0x1CFC, symBinAddr: 0x52240, symSize: 0x10 }
  - { offset: 0x28E246, size: 0x8, addend: 0x0, symName: __ZNK26llama_kv_cache_dsa_context7get_mlaEv, symObjAddr: 0x1D0C, symBinAddr: 0x52250, symSize: 0x8 }
  - { offset: 0x28E271, size: 0x8, addend: 0x0, symName: __ZNK26llama_kv_cache_dsa_context7get_mlaEv, symObjAddr: 0x1D0C, symBinAddr: 0x52250, symSize: 0x8 }
  - { offset: 0x28E28D, size: 0x8, addend: 0x0, symName: __ZNK26llama_kv_cache_dsa_context7get_lidEv, symObjAddr: 0x1D14, symBinAddr: 0x52258, symSize: 0x8 }
  - { offset: 0x28E2B9, size: 0x8, addend: 0x0, symName: __ZNK26llama_kv_cache_dsa_context7get_lidEv, symObjAddr: 0x1D14, symBinAddr: 0x52258, symSize: 0x8 }
  - { offset: 0x28E2F4, size: 0x8, addend: 0x0, symName: __ZN18llama_kv_cache_dsaD1Ev, symObjAddr: 0x1D1C, symBinAddr: 0x52260, symSize: 0x5C }
  - { offset: 0x28E49C, size: 0x8, addend: 0x0, symName: __ZN18llama_kv_cache_dsaD0Ev, symObjAddr: 0x1D78, symBinAddr: 0x522BC, symSize: 0x5C }
  - { offset: 0x2BDBC6, size: 0x8, addend: 0x0, symName: '__ZNSt3__111__introsortINS_17_ClassicAlgPolicyERZL20dsv4_build_comp_planRK12llama_ubatchjbjjjE3$_1PZL20dsv4_build_comp_planS4_jbjjjE11persist_rowLb0EEEvT1_S9_T0_NS_15iterator_traitsIS9_E15difference_typeEb', symObjAddr: 0xCD50, symBinAddr: 0x5E734, symSize: 0xF60 }
  - { offset: 0x2BF214, size: 0x8, addend: 0x0, symName: '__ZNSt3__127__insertion_sort_incompleteB9nqe220106INS_17_ClassicAlgPolicyERZL20dsv4_build_comp_planRK12llama_ubatchjbjjjE3$_1PZL20dsv4_build_comp_planS4_jbjjjE11persist_rowEEbT1_S9_T0_', symObjAddr: 0xDEF0, symBinAddr: 0x5F8D4, symSize: 0x4BC }
  - { offset: 0x2C2803, size: 0x8, addend: 0x0, symName: __ZNSt3__111make_uniqueB9nqe220106I27llama_kv_cache_dsv4_contextJP19llama_kv_cache_dsv4NS_6vectorIN14llama_kv_cache9slot_infoENS_9allocatorIS6_EEEES9_S9_NS4_I12llama_ubatchNS7_ISA_EEEESC_ELi0EEENS_10unique_ptrIT_NS_14default_deleteISE_EEEEDpOT0_, symObjAddr: 0xABDC, symBinAddr: 0x5CD04, symSize: 0x3CC }
  - { offset: 0x2C3F26, size: 0x8, addend: 0x0, symName: __ZNSt3__111make_uniqueB9nqe220106I22llama_kv_cache_contextJP14llama_kv_cacheNS_6vectorINS2_9slot_infoENS_9allocatorIS5_EEEERNS4_I12llama_ubatchNS6_IS9_EEEEELi0EEENS_10unique_ptrIT_NS_14default_deleteISE_EEEEDpOT0_, symObjAddr: 0x530C, symBinAddr: 0x576A4, symSize: 0x298 }
  - { offset: 0x2C4EB4, size: 0x8, addend: 0x0, symName: __ZNSt3__134__uninitialized_allocator_relocateB9nqe220106INS_9allocatorIN14llama_kv_cache9slot_infoEEEPS3_EEvRT_T0_S8_S8_, symObjAddr: 0xB8E0, symBinAddr: 0x5D650, symSize: 0xF8 }
  - { offset: 0x2C4F0F, size: 0x8, addend: 0x0, symName: __ZNSt3__134__uninitialized_allocator_relocateB9nqe220106INS_9allocatorIN14llama_kv_cache9slot_infoEEEPS3_EEvRT_T0_S8_S8_, symObjAddr: 0xB8E0, symBinAddr: 0x5D650, symSize: 0xF8 }
  - { offset: 0x2C5774, size: 0x8, addend: 0x0, symName: __ZNSt3__111make_uniqueB9nqe220106I31llama_kv_cache_dsv4_raw_contextJP19llama_kv_cache_iswaNS_6vectorIN14llama_kv_cache9slot_infoENS_9allocatorIS6_EEEES9_S9_RNS4_I12llama_ubatchNS7_ISA_EEEESC_ELi0EEENS_10unique_ptrIT_NS_14default_deleteISF_EEEEDpOT0_, symObjAddr: 0x914C, symBinAddr: 0x5B4E4, symSize: 0x47C }
  - { offset: 0x2C7131, size: 0x8, addend: 0x0, symName: __ZNSt3__111make_uniqueB9nqe220106I32llama_kv_cache_dsv4_comp_contextJP14llama_kv_cacheNS_6vectorINS2_9slot_infoENS_9allocatorIS5_EEEERNS4_I12llama_ubatchNS6_IS9_EEEEELi0EEENS_10unique_ptrIT_NS_14default_deleteISE_EEEEDpOT0_, symObjAddr: 0x95C8, symBinAddr: 0x5B960, symSize: 0x2D8 }
  - { offset: 0x2C8801, size: 0x8, addend: 0x0, symName: __ZNSt3__116__if_likely_elseB9nqe220106IZNS_6vectorIN27llama_kv_cache_dsv4_context9comp_planENS_9allocatorIS3_EEE12emplace_backIJS3_EEERS3_DpOT_EUlvE_ZNS7_IJS3_EEES8_SB_EUlvE0_EEvbT_T0_, symObjAddr: 0xC414, symBinAddr: 0x5E184, symSize: 0x128 }
  - { offset: 0x2C94B8, size: 0x8, addend: 0x0, symName: __ZNSt3__135__uninitialized_allocator_copy_implB9nqe220106INS_9allocatorINS_6vectorIjNS1_IjEEEEEEPS4_S6_S6_EET2_RT_T0_T1_S7_, symObjAddr: 0xBD24, symBinAddr: 0x5DA94, symSize: 0xF8 }
  - { offset: 0x2C9EE1, size: 0x8, addend: 0x0, symName: __ZNSt3__134__uninitialized_allocator_relocateB9nqe220106INS_9allocatorIN27llama_kv_cache_dsv4_context9comp_planEEEPS3_EEvRT_T0_S8_S8_, symObjAddr: 0xC2E0, symBinAddr: 0x5E050, symSize: 0x134 }
  - { offset: 0x2C9F3C, size: 0x8, addend: 0x0, symName: __ZNSt3__134__uninitialized_allocator_relocateB9nqe220106INS_9allocatorIN27llama_kv_cache_dsv4_context9comp_planEEEPS3_EEvRT_T0_S8_S8_, symObjAddr: 0xC2E0, symBinAddr: 0x5E050, symSize: 0x134 }
  - { offset: 0x2CB0ED, size: 0x8, addend: 0x0, symName: '__ZNSt3__17__sort5B9nqe220106INS_17_ClassicAlgPolicyERZL20dsv4_build_comp_planRK12llama_ubatchjbjjjE3$_1PZL20dsv4_build_comp_planS4_jbjjjE11persist_rowLi0EEEvT1_S9_S9_S9_S9_T0_', symObjAddr: 0xDCB0, symBinAddr: 0x5F694, symSize: 0x240 }
  - { offset: 0x2D4F5B, size: 0x8, addend: 0x0, symName: __ZNK27llama_kv_cache_dsv4_context12get_csa_planEv, symObjAddr: 0xA06C, symBinAddr: 0x5C404, symSize: 0x64 }
  - { offset: 0x2D4F80, size: 0x8, addend: 0x0, symName: __MergedGlobals, symObjAddr: 0x247D88, symBinAddr: 0x4A2158, symSize: 0x0 }
  - { offset: 0x2D4FD8, size: 0x8, addend: 0x0, symName: __ZNK27llama_kv_cache_dsv4_context12get_hca_planEv, symObjAddr: 0xA0D0, symBinAddr: 0x5C468, symSize: 0x64 }
  - { offset: 0x2D4FFD, size: 0x8, addend: 0x0, symName: __MergedGlobals, symObjAddr: 0x247D88, symBinAddr: 0x4A2158, symSize: 0x0 }
  - { offset: 0x2D5056, size: 0x8, addend: 0x0, symName: __ZNK27llama_kv_cache_dsv4_context12get_lid_planEv, symObjAddr: 0xA134, symBinAddr: 0x5C4CC, symSize: 0x64 }
  - { offset: 0x2D507B, size: 0x8, addend: 0x0, symName: __MergedGlobals, symObjAddr: 0x247D88, symBinAddr: 0x4A2158, symSize: 0x0 }
  - { offset: 0x2D50DB, size: 0x8, addend: 0x0, symName: __ZTV19llama_kv_cache_dsv4, symObjAddr: 0x122B8, symBinAddr: 0x3FB728, symSize: 0x0 }
  - { offset: 0x2D50F0, size: 0x8, addend: 0x0, symName: __ZTV31llama_kv_cache_dsv4_raw_context, symObjAddr: 0x12350, symBinAddr: 0x3FB7C0, symSize: 0x0 }
  - { offset: 0x2D5105, size: 0x8, addend: 0x0, symName: __ZTV27llama_kv_cache_dsv4_context, symObjAddr: 0x12390, symBinAddr: 0x3FB800, symSize: 0x0 }
  - { offset: 0x2D517B, size: 0x8, addend: 0x0, symName: __MergedGlobals, symObjAddr: 0x247D88, symBinAddr: 0x4A2158, symSize: 0x0 }
  - { offset: 0x2D5326, size: 0x8, addend: 0x0, symName: '__ZTVNSt3__110__function6__funcIZN19llama_kv_cache_dsv4C1ERK11llama_model9ggml_typeS6_bbbbjjjjRKNS_8functionIFbiEEERKNS7_IFiiEEEE3$_0S8_EE', symObjAddr: 0x12488, symBinAddr: 0x3FB888, symSize: 0x0 }
  - { offset: 0x2D5334, size: 0x8, addend: 0x0, symName: __ZN19llama_kv_cache_dsv4C1ERK11llama_model9ggml_typeS3_bbbbjjjjRKNSt3__18functionIFbiEEERKNS5_IFiiEEE, symObjAddr: 0x1E58, symBinAddr: 0x543B0, symSize: 0x4 }
  - { offset: 0x2D54D7, size: 0x8, addend: 0x0, symName: __ZN19llama_kv_cache_dsv4C1ERK11llama_model9ggml_typeS3_bbbbjjjjRKNSt3__18functionIFbiEEERKNS5_IFiiEEE, symObjAddr: 0x1E58, symBinAddr: 0x543B0, symSize: 0x4 }
  - { offset: 0x2D553B, size: 0x8, addend: 0x0, symName: '__ZTVNSt3__110__function6__funcIZN19llama_kv_cache_dsv4C1ERK11llama_model9ggml_typeS6_bbbbjjjjRKNS_8functionIFbiEEERKNS7_IFiiEEEE3$_1S8_EE', symObjAddr: 0x12518, symBinAddr: 0x3FB918, symSize: 0x0 }
  - { offset: 0x2D5570, size: 0x8, addend: 0x0, symName: '__ZTVNSt3__110__function6__funcIZN19llama_kv_cache_dsv4C1ERK11llama_model9ggml_typeS6_bbbbjjjjRKNS_8functionIFbiEEERKNS7_IFiiEEEE3$_2S8_EE', symObjAddr: 0x12598, symBinAddr: 0x3FB998, symSize: 0x0 }
  - { offset: 0x2D55BA, size: 0x8, addend: 0x0, symName: __ZN21llama_dsv4_comp_stateC2ERK11llama_modelbbjjjjPKcRKNSt3__18functionIFbiEEE, symObjAddr: 0x0, symBinAddr: 0x52598, symSize: 0x5D0 }
  - { offset: 0x2D8410, size: 0x8, addend: 0x0, symName: __ZNSt3__16__treeINS_12__value_typeIP24ggml_backend_buffer_typeNS_10unique_ptrI12ggml_context20ggml_context_deleterEEEENS_19__map_value_compareIS3_NS_4pairIKS3_S7_EEZN21llama_dsv4_comp_stateC1ERK11llama_modelbbjjjjPKcRKNS_8functionIFbiEEEE28ggml_backend_buft_comparatorEENS_9allocatorISC_EEE12__find_equalB9nqe220106IS3_EENSA_IPNS_15__tree_end_nodeIPNS_16__tree_node_baseIPvEEEERSY_EERKT_, symObjAddr: 0xA8B0, symBinAddr: 0x5CC48, symSize: 0xBC }
  - { offset: 0x2D85D9, size: 0x8, addend: 0x0, symName: __ZZNSt3__112__hash_tableINS_17__hash_value_typeIiiEENS_22__unordered_map_hasherIiNS_4pairIKiiEENS_4hashIiEENS_8equal_toIiEEEENS_21__unordered_map_equalIiS6_SA_S8_EENS_9allocatorIS6_EEE16__emplace_uniqueB9nqe220106IJRKNS_21piecewise_construct_tENS_5tupleIJOiEEENSL_IJEEEEEENS4_INS_15__hash_iteratorIPNS_11__hash_nodeIS2_PvEEEEbEEDpOT_ENKUlRS5_SK_OSN_OSO_E_clESZ_SK_S10_S11_, symObjAddr: 0xF1B8, symBinAddr: 0x60400, symSize: 0x2FC }
  - { offset: 0x2D8C94, size: 0x8, addend: 0x0, symName: __ZZNSt3__16vectorIN21llama_dsv4_comp_state5layerENS_9allocatorIS2_EEE12emplace_backIJS2_EEERS2_DpOT_ENKUlvE0_clEv, symObjAddr: 0xF634, symBinAddr: 0x6087C, symSize: 0xFC }
  - { offset: 0x2D8F7A, size: 0x8, addend: 0x0, symName: __ZNSt3__16vectorIN21llama_dsv4_comp_state5layerENS_9allocatorIS2_EEE20__throw_length_errorB9nqe220106Ev, symObjAddr: 0xF730, symBinAddr: 0x60978, symSize: 0x14 }
  - { offset: 0x2D8FE8, size: 0x8, addend: 0x0, symName: __ZZNSt3__16vectorINS_4pairINS_10unique_ptrI12ggml_context20ggml_context_deleterEENS2_I19ggml_backend_buffer27ggml_backend_buffer_deleterEEEENS_9allocatorIS9_EEE12emplace_backIJS5_RPS6_EEERS9_DpOT_ENKUlvE0_clEv, symObjAddr: 0xF744, symBinAddr: 0x6098C, symSize: 0xE8 }
  - { offset: 0x2D93B0, size: 0x8, addend: 0x0, symName: __ZNSt3__16vectorINS_4pairINS_10unique_ptrI12ggml_context20ggml_context_deleterEENS2_I19ggml_backend_buffer27ggml_backend_buffer_deleterEEEENS_9allocatorIS9_EEE20__throw_length_errorB9nqe220106Ev, symObjAddr: 0xF82C, symBinAddr: 0x60A74, symSize: 0x14 }
  - { offset: 0x2D93BB, size: 0x8, addend: 0x0, symName: __ZNSt3__16__treeINS_12__value_typeIP24ggml_backend_buffer_typeNS_10unique_ptrI12ggml_context20ggml_context_deleterEEEENS_19__map_value_compareIS3_NS_4pairIKS3_S7_EEZN21llama_dsv4_comp_stateC1ERK11llama_modelbbjjjjPKcRKNS_8functionIFbiEEEE28ggml_backend_buft_comparatorEENS_9allocatorISC_EEE14__tree_deleterclB9nqe220106EPNS_11__tree_nodeIS8_PvEE, symObjAddr: 0xF160, symBinAddr: 0x603A8, symSize: 0x58 }
  - { offset: 0x2D9573, size: 0x8, addend: 0x0, symName: __ZNSt3__113unordered_mapIiiNS_4hashIiEENS_8equal_toIiEENS_9allocatorINS_4pairIKiiEEEEED1B9nqe220106Ev, symObjAddr: 0x634, symBinAddr: 0x52BCC, symSize: 0x48 }
  - { offset: 0x2D97EF, size: 0x8, addend: 0x0, symName: __ZNSt3__16vectorINS_4pairINS_10unique_ptrI12ggml_context20ggml_context_deleterEENS2_I19ggml_backend_buffer27ggml_backend_buffer_deleterEEEENS_9allocatorIS9_EEED1B9nqe220106Ev, symObjAddr: 0x67C, symBinAddr: 0x52C14, symSize: 0x84 }
  - { offset: 0x2D9A7C, size: 0x8, addend: 0x0, symName: __ZNK21llama_dsv4_comp_state10total_sizeEv, symObjAddr: 0x5D0, symBinAddr: 0x52B68, symSize: 0x64 }
  - { offset: 0x2DA036, size: 0x8, addend: 0x0, symName: __ZN21llama_dsv4_comp_stateC1ERK11llama_modelbbjjjjPKcRKNSt3__18functionIFbiEEE, symObjAddr: 0x700, symBinAddr: 0x52C98, symSize: 0x4 }
  - { offset: 0x2DA0A4, size: 0x8, addend: 0x0, symName: __ZN21llama_dsv4_comp_stateC1ERK11llama_modelbbjjjjPKcRKNSt3__18functionIFbiEEE, symObjAddr: 0x700, symBinAddr: 0x52C98, symSize: 0x4 }
  - { offset: 0x2DA119, size: 0x8, addend: 0x0, symName: __ZN21llama_dsv4_comp_state5clearEb, symObjAddr: 0x704, symBinAddr: 0x52C9C, symSize: 0x40 }
  - { offset: 0x2DA1FB, size: 0x8, addend: 0x0, symName: __ZNK21llama_dsv4_comp_state9get_ratioEv, symObjAddr: 0x744, symBinAddr: 0x52CDC, symSize: 0x8 }
  - { offset: 0x2DA225, size: 0x8, addend: 0x0, symName: __ZNK21llama_dsv4_comp_state14get_state_sizeEv, symObjAddr: 0x74C, symBinAddr: 0x52CE4, symSize: 0x8 }
  - { offset: 0x2DA247, size: 0x8, addend: 0x0, symName: __ZNK21llama_dsv4_comp_state12get_n_streamEv, symObjAddr: 0x754, symBinAddr: 0x52CEC, symSize: 0x8 }
  - { offset: 0x2DA915, size: 0x8, addend: 0x0, symName: __ZNK21llama_dsv4_comp_state16memory_breakdownEv, symObjAddr: 0x75C, symBinAddr: 0x52CF4, symSize: 0x144 }
  - { offset: 0x2DB111, size: 0x8, addend: 0x0, symName: __ZNK21llama_dsv4_comp_state11state_writeER16llama_io_write_iij, symObjAddr: 0x8E0, symBinAddr: 0x52E38, symSize: 0x2DC }
  - { offset: 0x2DB566, size: 0x8, addend: 0x0, symName: __ZNK21llama_dsv4_comp_state11state_writeER16llama_io_write_iij.cold.1, symObjAddr: 0x10A0C, symBinAddr: 0x3637C0, symSize: 0xC }
  - { offset: 0x2DB5AF, size: 0x8, addend: 0x0, symName: __ZN21llama_dsv4_comp_state10state_readER15llama_io_read_iij, symObjAddr: 0xBBC, symBinAddr: 0x53114, symSize: 0x284 }
  - { offset: 0x2DB894, size: 0x8, addend: 0x0, symName: __ZL27dsv4_state_dst_stream_rangejijRj, symObjAddr: 0xE40, symBinAddr: 0x53398, symSize: 0xF0 }
  - { offset: 0x2DB927, size: 0x8, addend: 0x0, symName: __ZL30dsv4_state_read_tensor_streamsR15llama_io_read_iP11ggml_tensorjjj, symObjAddr: 0xF30, symBinAddr: 0x53488, symSize: 0x148 }
  - { offset: 0x2DBAEF, size: 0x8, addend: 0x0, symName: __ZN21llama_dsv4_comp_state10state_readER15llama_io_read_iij.cold.4, symObjAddr: 0x10A3C, symBinAddr: 0x3637F0, symSize: 0xC }
  - { offset: 0x2DBB07, size: 0x8, addend: 0x0, symName: __ZN21llama_dsv4_comp_state10state_readER15llama_io_read_iij.cold.2, symObjAddr: 0x10A24, symBinAddr: 0x3637D8, symSize: 0xC }
  - { offset: 0x2DBB1F, size: 0x8, addend: 0x0, symName: __ZN21llama_dsv4_comp_state10state_readER15llama_io_read_iij.cold.1, symObjAddr: 0x10A18, symBinAddr: 0x3637CC, symSize: 0xC }
  - { offset: 0x2DBB37, size: 0x8, addend: 0x0, symName: __ZN21llama_dsv4_comp_state10state_readER15llama_io_read_iij.cold.3, symObjAddr: 0x10A30, symBinAddr: 0x3637E4, symSize: 0xC }
  - { offset: 0x2DBB4F, size: 0x8, addend: 0x0, symName: __ZL27dsv4_state_dst_stream_rangejijRj.cold.2, symObjAddr: 0x10A54, symBinAddr: 0x363808, symSize: 0xC }
  - { offset: 0x2DBB67, size: 0x8, addend: 0x0, symName: __ZL27dsv4_state_dst_stream_rangejijRj.cold.1, symObjAddr: 0x10A48, symBinAddr: 0x3637FC, symSize: 0xC }
  - { offset: 0x2DBB7F, size: 0x8, addend: 0x0, symName: __ZL27dsv4_state_dst_stream_rangejijRj.cold.3, symObjAddr: 0x10A60, symBinAddr: 0x363814, symSize: 0xC }
  - { offset: 0x2DBB97, size: 0x8, addend: 0x0, symName: __ZL30dsv4_state_read_tensor_streamsR15llama_io_read_iP11ggml_tensorjjj.cold.1, symObjAddr: 0x10A6C, symBinAddr: 0x363820, symSize: 0xC }
  - { offset: 0x2DBDC8, size: 0x8, addend: 0x0, symName: __ZNK21llama_dsv4_comp_state6get_kvEP12ggml_contexti, symObjAddr: 0x1078, symBinAddr: 0x535D0, symSize: 0x10C }
  - { offset: 0x2DC069, size: 0x8, addend: 0x0, symName: __ZNK21llama_dsv4_comp_state9get_scoreEP12ggml_contexti, symObjAddr: 0x1184, symBinAddr: 0x536DC, symSize: 0x10C }
  - { offset: 0x2DC096, size: 0x8, addend: 0x0, symName: __ZNK21llama_dsv4_comp_state9get_scoreEP12ggml_contexti, symObjAddr: 0x1184, symBinAddr: 0x536DC, symSize: 0x10C }
  - { offset: 0x2DC337, size: 0x8, addend: 0x0, symName: __ZNK21llama_dsv4_comp_state6cpy_kvEP12ggml_contextP11ggml_tensorS3_i, symObjAddr: 0x1290, symBinAddr: 0x537E8, symSize: 0x44 }
  - { offset: 0x2DC342, size: 0x8, addend: 0x0, symName: __ZNK21llama_dsv4_comp_state6cpy_kvEP12ggml_contextP11ggml_tensorS3_i, symObjAddr: 0x1290, symBinAddr: 0x537E8, symSize: 0x44 }
  - { offset: 0x2DC3FF, size: 0x8, addend: 0x0, symName: __ZNK21llama_dsv4_comp_state9cpy_scoreEP12ggml_contextP11ggml_tensorS3_i, symObjAddr: 0x12D4, symBinAddr: 0x5382C, symSize: 0x44 }
  - { offset: 0x2DCCB8, size: 0x8, addend: 0x0, symName: __ZN19llama_kv_cache_dsv4C2ERK11llama_model9ggml_typeS3_bbbbjjjjRKNSt3__18functionIFbiEEERKNS5_IFiiEEE, symObjAddr: 0x1318, symBinAddr: 0x53870, symSize: 0xA28 }
  - { offset: 0x2DE7FE, size: 0x8, addend: 0x0, symName: __ZN21llama_dsv4_comp_stateD2Ev, symObjAddr: 0xF88C, symBinAddr: 0x60A88, symSize: 0xBC }
  - { offset: 0x2DEE53, size: 0x8, addend: 0x0, symName: __ZN19llama_kv_cache_dsv416clear_compressedEb, symObjAddr: 0x1D7C, symBinAddr: 0x542D4, symSize: 0xDC }
  - { offset: 0x2DF1EF, size: 0x8, addend: 0x0, symName: __ZNSt3__110unique_ptrI21llama_dsv4_comp_stateNS_14default_deleteIS1_EEED1B9nqe220106Ev, symObjAddr: 0x1D40, symBinAddr: 0x54298, symSize: 0x3C }
  - { offset: 0x2DFB51, size: 0x8, addend: 0x0, symName: __ZN19llama_kv_cache_dsv410init_batchER18llama_batch_allocrjb, symObjAddr: 0x1E5C, symBinAddr: 0x543B4, symSize: 0x7C4 }
  - { offset: 0x2E162D, size: 0x8, addend: 0x0, symName: __ZNSt3__16vectorIN14llama_kv_cache9slot_infoENS_9allocatorIS2_EEE24__emplace_back_slow_pathIJS2_EEEPS2_DpOT_, symObjAddr: 0xEFF8, symBinAddr: 0x60240, symSize: 0x168 }
  - { offset: 0x2E164D, size: 0x8, addend: 0x0, symName: '__ZZN19llama_kv_cache_dsv410init_batchER18llama_batch_allocrjbENK3$_0clENSt3__16vectorI12llama_ubatchNS3_9allocatorIS5_EEEE', symObjAddr: 0x2684, symBinAddr: 0x54B78, symSize: 0x120C }
  - { offset: 0x2E8902, size: 0x8, addend: 0x0, symName: __ZNSt3__16vectorI12llama_ubatchNS_9allocatorIS1_EEE7reserveEm, symObjAddr: 0xAFA8, symBinAddr: 0x5D0D0, symSize: 0x160 }
  - { offset: 0x2E90A7, size: 0x8, addend: 0x0, symName: __ZNSt3__16vectorIiNS_9allocatorIiEEE6assignEmRKi, symObjAddr: 0xB2B4, symBinAddr: 0x5D230, symSize: 0x1EC }
  - { offset: 0x2E90B2, size: 0x8, addend: 0x0, symName: __ZNSt3__16vectorIiNS_9allocatorIiEEE18__assign_with_sizeB9nqe220106INS_17_ClassicAlgPolicyEPiS6_EEvT0_T1_l, symObjAddr: 0xB5D0, symBinAddr: 0x5D41C, symSize: 0x12C }
  - { offset: 0x2E9A26, size: 0x8, addend: 0x0, symName: __ZNSt3__16vectorIiNS_9allocatorIiEEE6assignEmRKi, symObjAddr: 0xB2B4, symBinAddr: 0x5D230, symSize: 0x1EC }
  - { offset: 0x2E9ECC, size: 0x8, addend: 0x0, symName: __ZNSt3__16vectorIN14llama_kv_cache9slot_infoENS_9allocatorIS2_EEE7reserveEm, symObjAddr: 0xB7D8, symBinAddr: 0x5D548, symSize: 0xF4 }
  - { offset: 0x2EA1BF, size: 0x8, addend: 0x0, symName: __ZNSt3__16vectorIN14llama_kv_cache9slot_infoENS_9allocatorIS2_EEE24__emplace_back_slow_pathIJRKS2_EEEPS2_DpOT_, symObjAddr: 0xBE88, symBinAddr: 0x5DBF8, symSize: 0x144 }
  - { offset: 0x2EA56C, size: 0x8, addend: 0x0, symName: __ZN14llama_kv_cache9slot_infoC2ERKS0_, symObjAddr: 0xBB44, symBinAddr: 0x5D8B4, symSize: 0x148 }
  - { offset: 0x2EAB7E, size: 0x8, addend: 0x0, symName: __ZNSt3__16vectorINS0_IjNS_9allocatorIjEEEENS1_IS3_EEE6resizeEm, symObjAddr: 0x5DD0, symBinAddr: 0x58168, symSize: 0x1C0 }
  - { offset: 0x2EB0E7, size: 0x8, addend: 0x0, symName: __ZNSt3__16vectorIjNS_9allocatorIjEEE6resizeEmRKj, symObjAddr: 0x5F90, symBinAddr: 0x58328, symSize: 0x1B4 }
  - { offset: 0x2EB0F2, size: 0x8, addend: 0x0, symName: __ZNSt3__16vectorIjNS_9allocatorIjEEE18__assign_with_sizeB9nqe220106INS_17_ClassicAlgPolicyEPjS6_EEvT0_T1_l, symObjAddr: 0xBFCC, symBinAddr: 0x5DD3C, symSize: 0x12C }
  - { offset: 0x2EBA40, size: 0x8, addend: 0x0, symName: __ZN27llama_kv_cache_dsv4_context9comp_planD2Ev, symObjAddr: 0xC0F8, symBinAddr: 0x5DE68, symSize: 0x90 }
  - { offset: 0x2EBA66, size: 0x8, addend: 0x0, symName: __ZNSt3__16vectorIN14llama_kv_cache9slot_infoENS_9allocatorIS2_EEE24__emplace_back_slow_pathIJS2_EEEPS2_DpOT_, symObjAddr: 0xEFF8, symBinAddr: 0x60240, symSize: 0x168 }
  - { offset: 0x2EBE7B, size: 0x8, addend: 0x0, symName: __ZNSt3__16vectorIiNS_9allocatorIiEEE18__assign_with_sizeB9nqe220106INS_17_ClassicAlgPolicyEPiS6_EEvT0_T1_l, symObjAddr: 0xB5D0, symBinAddr: 0x5D41C, symSize: 0x12C }
  - { offset: 0x2EC169, size: 0x8, addend: 0x0, symName: __ZN14llama_kv_cache9slot_infoD1Ev, symObjAddr: 0x4ECC, symBinAddr: 0x57328, symSize: 0x84 }
  - { offset: 0x2EC58B, size: 0x8, addend: 0x0, symName: __ZN19llama_kv_cache_dsv49init_fullEv, symObjAddr: 0x3928, symBinAddr: 0x55D84, symSize: 0x54 }
  - { offset: 0x2EC634, size: 0x8, addend: 0x0, symName: __ZN27llama_kv_cache_dsv4_contextC2EP19llama_kv_cache_dsv4, symObjAddr: 0x647C, symBinAddr: 0x58814, symSize: 0x3C0 }
  - { offset: 0x2ECFC8, size: 0x8, addend: 0x0, symName: __ZN19llama_kv_cache_dsv411init_updateEP13llama_contextb, symObjAddr: 0x397C, symBinAddr: 0x55DD8, symSize: 0x6C }
  - { offset: 0x2ED0B0, size: 0x8, addend: 0x0, symName: __ZN27llama_kv_cache_dsv4_contextC2EP19llama_kv_cache_dsv4P13llama_contextb, symObjAddr: 0x68D8, symBinAddr: 0x58C70, symSize: 0x3F0 }
  - { offset: 0x2EDA67, size: 0x8, addend: 0x0, symName: __ZNK19llama_kv_cache_dsv413get_can_shiftEv, symObjAddr: 0x39E8, symBinAddr: 0x55E44, symSize: 0x8 }
  - { offset: 0x2EDA8D, size: 0x8, addend: 0x0, symName: __ZN19llama_kv_cache_dsv45clearEb, symObjAddr: 0x39F0, symBinAddr: 0x55E4C, symSize: 0x38 }
  - { offset: 0x2EDB10, size: 0x8, addend: 0x0, symName: __ZN19llama_kv_cache_dsv46seq_rmEiii, symObjAddr: 0x3A28, symBinAddr: 0x55E84, symSize: 0x9C }
  - { offset: 0x2EDBE9, size: 0x8, addend: 0x0, symName: __ZN19llama_kv_cache_dsv46seq_cpEiiii, symObjAddr: 0x3AC4, symBinAddr: 0x55F20, symSize: 0x38 }
  - { offset: 0x2EDCB1, size: 0x8, addend: 0x0, symName: __ZN19llama_kv_cache_dsv48seq_keepEi, symObjAddr: 0x3AFC, symBinAddr: 0x55F58, symSize: 0x38 }
  - { offset: 0x2EDD34, size: 0x8, addend: 0x0, symName: __ZN19llama_kv_cache_dsv47seq_addEiiii, symObjAddr: 0x3B34, symBinAddr: 0x55F90, symSize: 0x38 }
  - { offset: 0x2EDDFC, size: 0x8, addend: 0x0, symName: __ZN19llama_kv_cache_dsv47seq_divEiiii, symObjAddr: 0x3B6C, symBinAddr: 0x55FC8, symSize: 0x38 }
  - { offset: 0x2EDEC4, size: 0x8, addend: 0x0, symName: __ZNK19llama_kv_cache_dsv411seq_pos_minEi, symObjAddr: 0x3BA4, symBinAddr: 0x56000, symSize: 0x2C }
  - { offset: 0x2EDF28, size: 0x8, addend: 0x0, symName: __ZNK19llama_kv_cache_dsv411seq_pos_maxEi, symObjAddr: 0x3BD0, symBinAddr: 0x5602C, symSize: 0x2C }
  - { offset: 0x2EE04E, size: 0x8, addend: 0x0, symName: __ZNK19llama_kv_cache_dsv416memory_breakdownEv, symObjAddr: 0x3BFC, symBinAddr: 0x56058, symSize: 0x80C }
  - { offset: 0x2F03E2, size: 0x8, addend: 0x0, symName: __ZNK19llama_kv_cache_dsv411state_writeER16llama_io_write_iij, symObjAddr: 0x4408, symBinAddr: 0x56864, symSize: 0x118 }
  - { offset: 0x2F066D, size: 0x8, addend: 0x0, symName: __ZL24dsv4_state_write_k_cacheR16llama_io_write_iPK14llama_kv_cacheij, symObjAddr: 0x4520, symBinAddr: 0x5697C, symSize: 0x264 }
  - { offset: 0x2F0BC8, size: 0x8, addend: 0x0, symName: __ZL24dsv4_state_write_k_cacheR16llama_io_write_iPK14llama_kv_cacheij.cold.1, symObjAddr: 0x10A78, symBinAddr: 0x36382C, symSize: 0xC }
  - { offset: 0x2F0BE0, size: 0x8, addend: 0x0, symName: __ZN19llama_kv_cache_dsv410state_readER15llama_io_read_iij, symObjAddr: 0x4784, symBinAddr: 0x56BE0, symSize: 0x224 }
  - { offset: 0x2F0EBF, size: 0x8, addend: 0x0, symName: __ZL23dsv4_state_read_k_cacheR15llama_io_read_iP14llama_kv_cacheij, symObjAddr: 0x49A8, symBinAddr: 0x56E04, symSize: 0x278 }
  - { offset: 0x2F1300, size: 0x8, addend: 0x0, symName: __ZN19llama_kv_cache_dsv410state_readER15llama_io_read_iij.cold.1, symObjAddr: 0x10A84, symBinAddr: 0x363838, symSize: 0xC }
  - { offset: 0x2F1318, size: 0x8, addend: 0x0, symName: __ZN19llama_kv_cache_dsv410state_readER15llama_io_read_iij.cold.2, symObjAddr: 0x10A90, symBinAddr: 0x363844, symSize: 0xC }
  - { offset: 0x2F1330, size: 0x8, addend: 0x0, symName: __ZN19llama_kv_cache_dsv410state_readER15llama_io_read_iij.cold.4, symObjAddr: 0x10AA8, symBinAddr: 0x36385C, symSize: 0xC }
  - { offset: 0x2F1348, size: 0x8, addend: 0x0, symName: __ZN19llama_kv_cache_dsv410state_readER15llama_io_read_iij.cold.3, symObjAddr: 0x10A9C, symBinAddr: 0x363850, symSize: 0xC }
  - { offset: 0x2F1360, size: 0x8, addend: 0x0, symName: __ZL23dsv4_state_read_k_cacheR15llama_io_read_iP14llama_kv_cacheij.cold.1, symObjAddr: 0x10AB4, symBinAddr: 0x363868, symSize: 0xC }
  - { offset: 0x2F1378, size: 0x8, addend: 0x0, symName: __ZL23dsv4_state_read_k_cacheR15llama_io_read_iP14llama_kv_cacheij.cold.2, symObjAddr: 0x10AC0, symBinAddr: 0x363874, symSize: 0xC }
  - { offset: 0x2F13A6, size: 0x8, addend: 0x0, symName: __ZNK19llama_kv_cache_dsv47get_rawEv, symObjAddr: 0x4C20, symBinAddr: 0x5707C, symSize: 0xC }
  - { offset: 0x2F13CA, size: 0x8, addend: 0x0, symName: __ZNK19llama_kv_cache_dsv47get_rawEv, symObjAddr: 0x4C20, symBinAddr: 0x5707C, symSize: 0xC }
  - { offset: 0x2F13E9, size: 0x8, addend: 0x0, symName: __ZNK19llama_kv_cache_dsv47get_csaEv, symObjAddr: 0x4C2C, symBinAddr: 0x57088, symSize: 0xC }
  - { offset: 0x2F140D, size: 0x8, addend: 0x0, symName: __ZNK19llama_kv_cache_dsv47get_csaEv, symObjAddr: 0x4C2C, symBinAddr: 0x57088, symSize: 0xC }
  - { offset: 0x2F142C, size: 0x8, addend: 0x0, symName: __ZNK19llama_kv_cache_dsv47get_hcaEv, symObjAddr: 0x4C38, symBinAddr: 0x57094, symSize: 0xC }
  - { offset: 0x2F1450, size: 0x8, addend: 0x0, symName: __ZNK19llama_kv_cache_dsv47get_hcaEv, symObjAddr: 0x4C38, symBinAddr: 0x57094, symSize: 0xC }
  - { offset: 0x2F146F, size: 0x8, addend: 0x0, symName: __ZNK19llama_kv_cache_dsv47get_lidEv, symObjAddr: 0x4C44, symBinAddr: 0x570A0, symSize: 0xC }
  - { offset: 0x2F1493, size: 0x8, addend: 0x0, symName: __ZNK19llama_kv_cache_dsv47get_lidEv, symObjAddr: 0x4C44, symBinAddr: 0x570A0, symSize: 0xC }
  - { offset: 0x2F14C8, size: 0x8, addend: 0x0, symName: __ZNK19llama_kv_cache_dsv413get_csa_stateEv, symObjAddr: 0x4C50, symBinAddr: 0x570AC, symSize: 0xC }
  - { offset: 0x2F14EC, size: 0x8, addend: 0x0, symName: __ZNK19llama_kv_cache_dsv413get_csa_stateEv, symObjAddr: 0x4C50, symBinAddr: 0x570AC, symSize: 0xC }
  - { offset: 0x2F150B, size: 0x8, addend: 0x0, symName: __ZNK19llama_kv_cache_dsv413get_hca_stateEv, symObjAddr: 0x4C5C, symBinAddr: 0x570B8, symSize: 0xC }
  - { offset: 0x2F152F, size: 0x8, addend: 0x0, symName: __ZNK19llama_kv_cache_dsv413get_hca_stateEv, symObjAddr: 0x4C5C, symBinAddr: 0x570B8, symSize: 0xC }
  - { offset: 0x2F154E, size: 0x8, addend: 0x0, symName: __ZNK19llama_kv_cache_dsv413get_lid_stateEv, symObjAddr: 0x4C68, symBinAddr: 0x570C4, symSize: 0xC }
  - { offset: 0x2F1572, size: 0x8, addend: 0x0, symName: __ZNK19llama_kv_cache_dsv413get_lid_stateEv, symObjAddr: 0x4C68, symBinAddr: 0x570C4, symSize: 0xC }
  - { offset: 0x2F16CD, size: 0x8, addend: 0x0, symName: __ZN31llama_kv_cache_dsv4_raw_contextC2EP19llama_kv_cache_iswa, symObjAddr: 0x4C74, symBinAddr: 0x570D0, symSize: 0x258 }
  - { offset: 0x2F1EF2, size: 0x8, addend: 0x0, symName: __ZNSt3__16vectorIjNS_9allocatorIjEEE6resizeEmRKj, symObjAddr: 0x5F90, symBinAddr: 0x58328, symSize: 0x1B4 }
  - { offset: 0x2F231B, size: 0x8, addend: 0x0, symName: __ZN32llama_kv_cache_dsv4_comp_contextC1EP14llama_kv_cache, symObjAddr: 0x6144, symBinAddr: 0x584DC, symSize: 0x4 }
  - { offset: 0x2F2326, size: 0x8, addend: 0x0, symName: __ZNSt3__16vectorIN14llama_kv_cache9slot_infoENS_9allocatorIS2_EEE18__assign_with_sizeB9nqe220106INS_17_ClassicAlgPolicyEPS2_S8_EEvT0_T1_l, symObjAddr: 0xFCE8, symBinAddr: 0x60EE4, symSize: 0x350 }
  - { offset: 0x2F31E2, size: 0x8, addend: 0x0, symName: __ZN31llama_kv_cache_dsv4_raw_contextC1EP19llama_kv_cache_iswa, symObjAddr: 0x5014, symBinAddr: 0x573AC, symSize: 0x4 }
  - { offset: 0x2F320C, size: 0x8, addend: 0x0, symName: __ZN31llama_kv_cache_dsv4_raw_contextC1EP19llama_kv_cache_iswa, symObjAddr: 0x5014, symBinAddr: 0x573AC, symSize: 0x4 }
  - { offset: 0x2F323C, size: 0x8, addend: 0x0, symName: __ZN31llama_kv_cache_dsv4_raw_contextC2EP19llama_kv_cache_iswaP13llama_contextb, symObjAddr: 0x5018, symBinAddr: 0x573B0, symSize: 0x158 }
  - { offset: 0x2F34C0, size: 0x8, addend: 0x0, symName: __ZN31llama_kv_cache_dsv4_raw_contextC1EP19llama_kv_cache_iswaP13llama_contextb, symObjAddr: 0x5170, symBinAddr: 0x57508, symSize: 0x4 }
  - { offset: 0x2F34FD, size: 0x8, addend: 0x0, symName: __ZN31llama_kv_cache_dsv4_raw_contextC1EP19llama_kv_cache_iswaP13llama_contextb, symObjAddr: 0x5170, symBinAddr: 0x57508, symSize: 0x4 }
  - { offset: 0x2F360E, size: 0x8, addend: 0x0, symName: __ZN31llama_kv_cache_dsv4_raw_contextC2EP19llama_kv_cache_iswaNSt3__16vectorIN14llama_kv_cache9slot_infoENS2_9allocatorIS5_EEEES8_S8_NS3_I12llama_ubatchNS6_IS9_EEEESB_, symObjAddr: 0x5174, symBinAddr: 0x5750C, symSize: 0x198 }
  - { offset: 0x2F3E2D, size: 0x8, addend: 0x0, symName: __ZN31llama_kv_cache_dsv4_raw_contextC1EP19llama_kv_cache_iswaNSt3__16vectorIN14llama_kv_cache9slot_infoENS2_9allocatorIS5_EEEES8_S8_NS3_I12llama_ubatchNS6_IS9_EEEESB_, symObjAddr: 0x55A4, symBinAddr: 0x5793C, symSize: 0x4 }
  - { offset: 0x2F3E7F, size: 0x8, addend: 0x0, symName: __ZN31llama_kv_cache_dsv4_raw_contextC1EP19llama_kv_cache_iswaNSt3__16vectorIN14llama_kv_cache9slot_infoENS2_9allocatorIS5_EEEES8_S8_NS3_I12llama_ubatchNS6_IS9_EEEESB_, symObjAddr: 0x55A4, symBinAddr: 0x5793C, symSize: 0x4 }
  - { offset: 0x2F3ED2, size: 0x8, addend: 0x0, symName: __ZN31llama_kv_cache_dsv4_raw_context4nextEv, symObjAddr: 0x55A8, symBinAddr: 0x57940, symSize: 0x78 }
  - { offset: 0x2F3EFE, size: 0x8, addend: 0x0, symName: __ZN31llama_kv_cache_dsv4_raw_context4nextEv, symObjAddr: 0x55A8, symBinAddr: 0x57940, symSize: 0x78 }
  - { offset: 0x2F3F9A, size: 0x8, addend: 0x0, symName: __ZN31llama_kv_cache_dsv4_raw_context5applyEv, symObjAddr: 0x5620, symBinAddr: 0x579B8, symSize: 0xA4 }
  - { offset: 0x2F40B6, size: 0x8, addend: 0x0, symName: __ZNK31llama_kv_cache_dsv4_raw_context10get_statusEv, symObjAddr: 0x56C4, symBinAddr: 0x57A5C, symSize: 0x8 }
  - { offset: 0x2F40E0, size: 0x8, addend: 0x0, symName: __ZNK31llama_kv_cache_dsv4_raw_context10get_ubatchEv, symObjAddr: 0x56CC, symBinAddr: 0x57A64, symSize: 0x14 }
  - { offset: 0x2F4131, size: 0x8, addend: 0x0, symName: __ZNK31llama_kv_cache_dsv4_raw_context8get_n_kvEv, symObjAddr: 0x56E0, symBinAddr: 0x57A78, symSize: 0x8 }
  - { offset: 0x2F415B, size: 0x8, addend: 0x0, symName: __ZNK31llama_kv_cache_dsv4_raw_context11get_n_writeEv, symObjAddr: 0x56E8, symBinAddr: 0x57A80, symSize: 0x28 }
  - { offset: 0x2F4187, size: 0x8, addend: 0x0, symName: __ZNK31llama_kv_cache_dsv4_raw_context11get_n_writeEv, symObjAddr: 0x56E8, symBinAddr: 0x57A80, symSize: 0x28 }
  - { offset: 0x2F41A5, size: 0x8, addend: 0x0, symName: __ZNK31llama_kv_cache_dsv4_raw_context5get_kEP12ggml_contexti, symObjAddr: 0x5710, symBinAddr: 0x57AA8, symSize: 0x1C }
  - { offset: 0x2F423D, size: 0x8, addend: 0x0, symName: __ZNK31llama_kv_cache_dsv4_raw_context5cpy_kEP12ggml_contextP11ggml_tensorS3_i, symObjAddr: 0x572C, symBinAddr: 0x57AC4, symSize: 0x294 }
  - { offset: 0x2F4502, size: 0x8, addend: 0x0, symName: __ZNK31llama_kv_cache_dsv4_raw_context18build_input_k_idxsEP12ggml_contextRK12llama_ubatch, symObjAddr: 0x59C0, symBinAddr: 0x57D58, symSize: 0x4C }
  - { offset: 0x2F459E, size: 0x8, addend: 0x0, symName: __ZNK31llama_kv_cache_dsv4_raw_context18build_input_k_idxsEP12ggml_contextRK12llama_ubatch, symObjAddr: 0x59C0, symBinAddr: 0x57D58, symSize: 0x4C }
  - { offset: 0x2F4606, size: 0x8, addend: 0x0, symName: __ZNK31llama_kv_cache_dsv4_raw_context18build_input_k_idxsEP12ggml_contextRK12llama_ubatch, symObjAddr: 0x59C0, symBinAddr: 0x57D58, symSize: 0x4C }
  - { offset: 0x2F468E, size: 0x8, addend: 0x0, symName: __ZNK31llama_kv_cache_dsv4_raw_context17build_input_k_rotEP12ggml_context, symObjAddr: 0x5A0C, symBinAddr: 0x57DA4, symSize: 0x8 }
  - { offset: 0x2F46C6, size: 0x8, addend: 0x0, symName: __ZNK31llama_kv_cache_dsv4_raw_context16set_input_k_idxsEP11ggml_tensor, symObjAddr: 0x5A14, symBinAddr: 0x57DAC, symSize: 0x24 }
  - { offset: 0x2F474B, size: 0x8, addend: 0x0, symName: __ZNK31llama_kv_cache_dsv4_raw_context17set_input_kq_maskEP11ggml_tensorPK12llama_ubatchb, symObjAddr: 0x5A38, symBinAddr: 0x57DD0, symSize: 0x8 }
  - { offset: 0x2F47A4, size: 0x8, addend: 0x0, symName: __ZNK31llama_kv_cache_dsv4_raw_context15set_input_k_rotEP11ggml_tensor, symObjAddr: 0x5A40, symBinAddr: 0x57DD8, symSize: 0x8 }
  - { offset: 0x2F47DC, size: 0x8, addend: 0x0, symName: __ZN32llama_kv_cache_dsv4_comp_contextC2EP14llama_kv_cache, symObjAddr: 0x5A48, symBinAddr: 0x57DE0, symSize: 0x148 }
  - { offset: 0x2F4A87, size: 0x8, addend: 0x0, symName: __ZNSt3__16vectorIN14llama_kv_cache9slot_infoENS_9allocatorIS2_EEE6resizeEm, symObjAddr: 0x5B90, symBinAddr: 0x57F28, symSize: 0x240 }
  - { offset: 0x2F5846, size: 0x8, addend: 0x0, symName: __ZNSt3__16vectorIN14llama_kv_cache9slot_infoENS_9allocatorIS2_EEE20__throw_length_errorB9nqe220106Ev, symObjAddr: 0xB8CC, symBinAddr: 0x5D63C, symSize: 0x14 }
  - { offset: 0x2F585E, size: 0x8, addend: 0x0, symName: __ZNSt3__134__uninitialized_allocator_relocateB9nqe220106INS_9allocatorIN14llama_kv_cache9slot_infoEEEPS3_EEvRT_T0_S8_S8_, symObjAddr: 0xB8E0, symBinAddr: 0x5D650, symSize: 0xF8 }
  - { offset: 0x2F5869, size: 0x8, addend: 0x0, symName: __ZNSt3__114__split_bufferIN14llama_kv_cache9slot_infoERNS_9allocatorIS2_EEED2Ev, symObjAddr: 0xBA8C, symBinAddr: 0x5D7FC, symSize: 0xB8 }
  - { offset: 0x2F6004, size: 0x8, addend: 0x0, symName: __ZNSt3__16vectorINS0_IjNS_9allocatorIjEEEENS1_IS3_EEE20__throw_length_errorB9nqe220106Ev, symObjAddr: 0xBD10, symBinAddr: 0x5DA80, symSize: 0x14 }
  - { offset: 0x2F601C, size: 0x8, addend: 0x0, symName: __ZNSt3__135__uninitialized_allocator_copy_implB9nqe220106INS_9allocatorINS_6vectorIjNS1_IjEEEEEEPS4_S6_S6_EET2_RT_T0_T1_S7_, symObjAddr: 0xBD24, symBinAddr: 0x5DA94, symSize: 0xF8 }
  - { offset: 0x2F62A3, size: 0x8, addend: 0x0, symName: __ZN32llama_kv_cache_dsv4_comp_contextC1EP14llama_kv_cache, symObjAddr: 0x6144, symBinAddr: 0x584DC, symSize: 0x4 }
  - { offset: 0x2F62CD, size: 0x8, addend: 0x0, symName: __ZN32llama_kv_cache_dsv4_comp_contextC1EP14llama_kv_cache, symObjAddr: 0x6144, symBinAddr: 0x584DC, symSize: 0x4 }
  - { offset: 0x2F62E7, size: 0x8, addend: 0x0, symName: __ZN32llama_kv_cache_dsv4_comp_contextC2EP14llama_kv_cacheNSt3__16vectorINS0_9slot_infoENS2_9allocatorIS4_EEEENS3_I12llama_ubatchNS5_IS8_EEEE, symObjAddr: 0x6148, symBinAddr: 0x584E0, symSize: 0xA0 }
  - { offset: 0x2F6419, size: 0x8, addend: 0x0, symName: __ZN32llama_kv_cache_dsv4_comp_contextC1EP14llama_kv_cacheNSt3__16vectorINS0_9slot_infoENS2_9allocatorIS4_EEEENS3_I12llama_ubatchNS5_IS8_EEEE, symObjAddr: 0x61E8, symBinAddr: 0x58580, symSize: 0xA0 }
  - { offset: 0x2F653C, size: 0x8, addend: 0x0, symName: __ZN32llama_kv_cache_dsv4_comp_context4nextEv, symObjAddr: 0x6288, symBinAddr: 0x58620, symSize: 0x48 }
  - { offset: 0x2F6560, size: 0x8, addend: 0x0, symName: __ZN32llama_kv_cache_dsv4_comp_context4nextEv, symObjAddr: 0x6288, symBinAddr: 0x58620, symSize: 0x48 }
  - { offset: 0x2F6592, size: 0x8, addend: 0x0, symName: __ZNK32llama_kv_cache_dsv4_comp_context8get_n_kvEv, symObjAddr: 0x62D0, symBinAddr: 0x58668, symSize: 0x8 }
  - { offset: 0x2F65B4, size: 0x8, addend: 0x0, symName: __ZNK32llama_kv_cache_dsv4_comp_context5get_kEP12ggml_contexti, symObjAddr: 0x62D8, symBinAddr: 0x58670, symSize: 0x1C }
  - { offset: 0x2F6620, size: 0x8, addend: 0x0, symName: __ZNK32llama_kv_cache_dsv4_comp_context5cpy_kEP12ggml_contextP11ggml_tensorS3_i, symObjAddr: 0x62F4, symBinAddr: 0x5868C, symSize: 0x18 }
  - { offset: 0x2F66A8, size: 0x8, addend: 0x0, symName: __ZNK32llama_kv_cache_dsv4_comp_context17build_input_k_rotEP12ggml_context, symObjAddr: 0x630C, symBinAddr: 0x586A4, symSize: 0x8 }
  - { offset: 0x2F66E0, size: 0x8, addend: 0x0, symName: __ZNK32llama_kv_cache_dsv4_comp_context15set_input_k_rotEP11ggml_tensor, symObjAddr: 0x6314, symBinAddr: 0x586AC, symSize: 0x8 }
  - { offset: 0x2F6718, size: 0x8, addend: 0x0, symName: __ZN27llama_kv_cache_dsv4_contextC2E19llama_memory_status, symObjAddr: 0x631C, symBinAddr: 0x586B4, symSize: 0xB0 }
  - { offset: 0x2F68A2, size: 0x8, addend: 0x0, symName: __ZN27llama_kv_cache_dsv4_contextC1E19llama_memory_status, symObjAddr: 0x63CC, symBinAddr: 0x58764, symSize: 0xB0 }
  - { offset: 0x2F6CDE, size: 0x8, addend: 0x0, symName: __ZN27llama_kv_cache_dsv4_context9comp_planD2Ev, symObjAddr: 0xC0F8, symBinAddr: 0x5DE68, symSize: 0x90 }
  - { offset: 0x2F744B, size: 0x8, addend: 0x0, symName: __ZNSt3__110unique_ptrI32llama_kv_cache_dsv4_comp_contextNS_14default_deleteIS1_EEED1B9nqe220106Ev, symObjAddr: 0x6840, symBinAddr: 0x58BD8, symSize: 0x3C }
  - { offset: 0x2F750D, size: 0x8, addend: 0x0, symName: __ZNSt3__16vectorIN27llama_kv_cache_dsv4_context9comp_planENS_9allocatorIS2_EEED1B9nqe220106Ev, symObjAddr: 0x687C, symBinAddr: 0x58C14, symSize: 0x58 }
  - { offset: 0x2F769A, size: 0x8, addend: 0x0, symName: __ZN27llama_kv_cache_dsv4_context9comp_planD1Ev, symObjAddr: 0x683C, symBinAddr: 0x58BD4, symSize: 0x4 }
  - { offset: 0x2F76BD, size: 0x8, addend: 0x0, symName: __ZN27llama_kv_cache_dsv4_context9comp_planD1Ev, symObjAddr: 0x683C, symBinAddr: 0x58BD4, symSize: 0x4 }
  - { offset: 0x2F7762, size: 0x8, addend: 0x0, symName: __ZN32llama_kv_cache_dsv4_comp_contextD2Ev, symObjAddr: 0x10410, symBinAddr: 0x6155C, symSize: 0x134 }
  - { offset: 0x2F7FDD, size: 0x8, addend: 0x0, symName: __ZN27llama_kv_cache_dsv4_contextC1EP19llama_kv_cache_dsv4, symObjAddr: 0x68D4, symBinAddr: 0x58C6C, symSize: 0x4 }
  - { offset: 0x2F8007, size: 0x8, addend: 0x0, symName: __ZN27llama_kv_cache_dsv4_contextC1EP19llama_kv_cache_dsv4, symObjAddr: 0x68D4, symBinAddr: 0x58C6C, symSize: 0x4 }
  - { offset: 0x2F8062, size: 0x8, addend: 0x0, symName: __ZN27llama_kv_cache_dsv4_contextC1EP19llama_kv_cache_dsv4P13llama_contextb, symObjAddr: 0x6CC8, symBinAddr: 0x59060, symSize: 0x4 }
  - { offset: 0x2F809F, size: 0x8, addend: 0x0, symName: __ZN27llama_kv_cache_dsv4_contextC1EP19llama_kv_cache_dsv4P13llama_contextb, symObjAddr: 0x6CC8, symBinAddr: 0x59060, symSize: 0x4 }
  - { offset: 0x2F8145, size: 0x8, addend: 0x0, symName: __ZN27llama_kv_cache_dsv4_contextC2EP19llama_kv_cache_dsv4NSt3__16vectorIN14llama_kv_cache9slot_infoENS2_9allocatorIS5_EEEES8_S8_NS3_I12llama_ubatchNS6_IS9_EEEESB_, symObjAddr: 0x6CCC, symBinAddr: 0x59064, symSize: 0x5EC }
  - { offset: 0x2F9A99, size: 0x8, addend: 0x0, symName: __ZL21dsv4_build_comp_plansRKNSt3__16vectorI12llama_ubatchNS_9allocatorIS1_EEEEjbjjj, symObjAddr: 0x72B8, symBinAddr: 0x59650, symSize: 0x1E94 }
  - { offset: 0x2FF9CF, size: 0x8, addend: 0x0, symName: __ZNSt3__16vectorIN27llama_kv_cache_dsv4_context9comp_planENS_9allocatorIS2_EEE16__init_with_sizeB9nqe220106IPS2_S7_EEvT_T0_m, symObjAddr: 0x10544, symBinAddr: 0x61690, symSize: 0x108 }
  - { offset: 0x2FFE54, size: 0x8, addend: 0x0, symName: __ZL22dsv4_build_comp_sinfosRKNSt3__16vectorI12llama_ubatchNS_9allocatorIS1_EEEEj, symObjAddr: 0x98A0, symBinAddr: 0x5BC38, symSize: 0x49C }
  - { offset: 0x30256B, size: 0x8, addend: 0x0, symName: __ZNSt3__16vectorIN27llama_kv_cache_dsv4_context9comp_planENS_9allocatorIS2_EEE7reserveEm, symObjAddr: 0xC188, symBinAddr: 0x5DEF8, symSize: 0xF4 }
  - { offset: 0x302F05, size: 0x8, addend: 0x0, symName: '__ZNSt3__111__introsortINS_17_ClassicAlgPolicyERZL20dsv4_build_comp_planRK12llama_ubatchjbjjjE3$_1PZL20dsv4_build_comp_planS4_jbjjjE11persist_rowLb0EEEvT1_S9_T0_NS_15iterator_traitsIS9_E15difference_typeEb', symObjAddr: 0xCD50, symBinAddr: 0x5E734, symSize: 0xF60 }
  - { offset: 0x302F2B, size: 0x8, addend: 0x0, symName: __ZL19dsv4_plan_positionsRKNSt3__16vectorIiNS_9allocatorIiEEEE, symObjAddr: 0xC738, symBinAddr: 0x5E4A8, symSize: 0x188 }
  - { offset: 0x3032AA, size: 0x8, addend: 0x0, symName: __ZNSt3__16__treeINS_12__value_typeINS_4pairIiiEExEENS_19__map_value_compareIS3_NS2_IKS3_xEENS_4lessIS3_EEEENS_9allocatorIS7_EEE14__tree_deleterclB9nqe220106EPNS_11__tree_nodeIS4_PvEE, symObjAddr: 0xE8B0, symBinAddr: 0x5FD90, symSize: 0x4C }
  - { offset: 0x303383, size: 0x8, addend: 0x0, symName: __ZZNSt3__16vectorIxNS_9allocatorIxEEE12emplace_backIJxEEERxDpOT_ENKUlvE0_clEv, symObjAddr: 0xC8D4, symBinAddr: 0x5E644, symSize: 0xDC }
  - { offset: 0x30366B, size: 0x8, addend: 0x0, symName: __ZNSt3__16vectorIxNS_9allocatorIxEEE20__throw_length_errorB9nqe220106Ev, symObjAddr: 0xC9B0, symBinAddr: 0x5E720, symSize: 0x14 }
  - { offset: 0x303863, size: 0x8, addend: 0x0, symName: __ZNSt3__16vectorIN14llama_kv_cache9slot_infoENS_9allocatorIS2_EEE7reserveEm, symObjAddr: 0xB7D8, symBinAddr: 0x5D548, symSize: 0xF4 }
  - { offset: 0x30386E, size: 0x8, addend: 0x0, symName: __ZL21dsv4_build_comp_plansRKNSt3__16vectorI12llama_ubatchNS_9allocatorIS1_EEEEjbjjj.cold.1, symObjAddr: 0x10ACC, symBinAddr: 0x363880, symSize: 0x38 }
  - { offset: 0x30389C, size: 0x8, addend: 0x0, symName: __ZNSt3__16vectorIZL20dsv4_build_comp_planRK12llama_ubatchjbjjjE11persist_rowNS_9allocatorIS4_EEE20__throw_length_errorB9nqe220106Ev, symObjAddr: 0xC8C0, symBinAddr: 0x5E630, symSize: 0x14 }
  - { offset: 0x3038B4, size: 0x8, addend: 0x0, symName: __ZZNSt3__16vectorIxNS_9allocatorIxEEE12emplace_backIJxEEERxDpOT_ENKUlvE0_clEv, symObjAddr: 0xC8D4, symBinAddr: 0x5E644, symSize: 0xDC }
  - { offset: 0x3038BF, size: 0x8, addend: 0x0, symName: __ZNSt3__16vectorIxNS_9allocatorIxEEE20__throw_length_errorB9nqe220106Ev, symObjAddr: 0xC9B0, symBinAddr: 0x5E720, symSize: 0x14 }
  - { offset: 0x303A11, size: 0x8, addend: 0x0, symName: __ZN27llama_kv_cache_dsv4_contextC1EP19llama_kv_cache_dsv4NSt3__16vectorIN14llama_kv_cache9slot_infoENS2_9allocatorIS5_EEEES8_S8_NS3_I12llama_ubatchNS6_IS9_EEEESB_, symObjAddr: 0x9D3C, symBinAddr: 0x5C0D4, symSize: 0x4 }
  - { offset: 0x303A63, size: 0x8, addend: 0x0, symName: __ZN27llama_kv_cache_dsv4_contextC1EP19llama_kv_cache_dsv4NSt3__16vectorIN14llama_kv_cache9slot_infoENS2_9allocatorIS5_EEEES8_S8_NS3_I12llama_ubatchNS6_IS9_EEEESB_, symObjAddr: 0x9D3C, symBinAddr: 0x5C0D4, symSize: 0x4 }
  - { offset: 0x303ADC, size: 0x8, addend: 0x0, symName: __ZN27llama_kv_cache_dsv4_contextD2Ev, symObjAddr: 0x9D40, symBinAddr: 0x5C0D8, symSize: 0x200 }
  - { offset: 0x30472B, size: 0x8, addend: 0x0, symName: __ZN27llama_kv_cache_dsv4_contextD1Ev, symObjAddr: 0x9F40, symBinAddr: 0x5C2D8, symSize: 0x4 }
  - { offset: 0x30474E, size: 0x8, addend: 0x0, symName: __ZN27llama_kv_cache_dsv4_contextD1Ev, symObjAddr: 0x9F40, symBinAddr: 0x5C2D8, symSize: 0x4 }
  - { offset: 0x304782, size: 0x8, addend: 0x0, symName: __ZN27llama_kv_cache_dsv4_contextD0Ev, symObjAddr: 0x9F44, symBinAddr: 0x5C2DC, symSize: 0x14 }
  - { offset: 0x304814, size: 0x8, addend: 0x0, symName: __ZN27llama_kv_cache_dsv4_context4nextEv, symObjAddr: 0x9F58, symBinAddr: 0x5C2F0, symSize: 0xB4 }
  - { offset: 0x30499D, size: 0x8, addend: 0x0, symName: __ZN27llama_kv_cache_dsv4_context5applyEv, symObjAddr: 0xA00C, symBinAddr: 0x5C3A4, symSize: 0x10 }
  - { offset: 0x3049D7, size: 0x8, addend: 0x0, symName: __ZN27llama_kv_cache_dsv4_context5applyEv, symObjAddr: 0xA00C, symBinAddr: 0x5C3A4, symSize: 0x10 }
  - { offset: 0x304A01, size: 0x8, addend: 0x0, symName: __ZNK27llama_kv_cache_dsv4_context10get_statusEv, symObjAddr: 0xA01C, symBinAddr: 0x5C3B4, symSize: 0x8 }
  - { offset: 0x304A2B, size: 0x8, addend: 0x0, symName: __ZNK27llama_kv_cache_dsv4_context10get_ubatchEv, symObjAddr: 0xA024, symBinAddr: 0x5C3BC, symSize: 0x10 }
  - { offset: 0x304A91, size: 0x8, addend: 0x0, symName: __ZNK27llama_kv_cache_dsv4_context7get_rawEv, symObjAddr: 0xA034, symBinAddr: 0x5C3CC, symSize: 0x8 }
  - { offset: 0x304ABD, size: 0x8, addend: 0x0, symName: __ZNK27llama_kv_cache_dsv4_context7get_rawEv, symObjAddr: 0xA034, symBinAddr: 0x5C3CC, symSize: 0x8 }
  - { offset: 0x304AF1, size: 0x8, addend: 0x0, symName: __ZNK27llama_kv_cache_dsv4_context7get_csaEv, symObjAddr: 0xA03C, symBinAddr: 0x5C3D4, symSize: 0x8 }
  - { offset: 0x304B15, size: 0x8, addend: 0x0, symName: __ZNK27llama_kv_cache_dsv4_context7get_csaEv, symObjAddr: 0xA03C, symBinAddr: 0x5C3D4, symSize: 0x8 }
  - { offset: 0x304B33, size: 0x8, addend: 0x0, symName: __ZNK27llama_kv_cache_dsv4_context7get_hcaEv, symObjAddr: 0xA044, symBinAddr: 0x5C3DC, symSize: 0x8 }
  - { offset: 0x304B57, size: 0x8, addend: 0x0, symName: __ZNK27llama_kv_cache_dsv4_context7get_hcaEv, symObjAddr: 0xA044, symBinAddr: 0x5C3DC, symSize: 0x8 }
  - { offset: 0x304B75, size: 0x8, addend: 0x0, symName: __ZNK27llama_kv_cache_dsv4_context7get_lidEv, symObjAddr: 0xA04C, symBinAddr: 0x5C3E4, symSize: 0x8 }
  - { offset: 0x304B99, size: 0x8, addend: 0x0, symName: __ZNK27llama_kv_cache_dsv4_context7get_lidEv, symObjAddr: 0xA04C, symBinAddr: 0x5C3E4, symSize: 0x8 }
  - { offset: 0x304BB7, size: 0x8, addend: 0x0, symName: __ZNK27llama_kv_cache_dsv4_context13get_csa_stateEv, symObjAddr: 0xA054, symBinAddr: 0x5C3EC, symSize: 0x8 }
  - { offset: 0x304BE1, size: 0x8, addend: 0x0, symName: __ZNK27llama_kv_cache_dsv4_context13get_hca_stateEv, symObjAddr: 0xA05C, symBinAddr: 0x5C3F4, symSize: 0x8 }
  - { offset: 0x304C0B, size: 0x8, addend: 0x0, symName: __ZNK27llama_kv_cache_dsv4_context13get_lid_stateEv, symObjAddr: 0xA064, symBinAddr: 0x5C3FC, symSize: 0x8 }
  - { offset: 0x304C6D, size: 0x8, addend: 0x0, symName: __ZNK27llama_kv_cache_dsv4_context12get_csa_planEv.cold.1, symObjAddr: 0x10B04, symBinAddr: 0x3638B8, symSize: 0x50 }
  - { offset: 0x304CCC, size: 0x8, addend: 0x0, symName: __ZNK27llama_kv_cache_dsv4_context12get_hca_planEv.cold.1, symObjAddr: 0x10B54, symBinAddr: 0x363908, symSize: 0x54 }
  - { offset: 0x304D5E, size: 0x8, addend: 0x0, symName: __ZNK27llama_kv_cache_dsv4_context12get_lid_planEv.cold.1, symObjAddr: 0x10BA8, symBinAddr: 0x36395C, symSize: 0x54 }
  - { offset: 0x304E0D, size: 0x8, addend: 0x0, symName: __ZNK27llama_kv_cache_dsv4_context12get_csa_planERK12llama_ubatch, symObjAddr: 0xA198, symBinAddr: 0x5C530, symSize: 0x144 }
  - { offset: 0x305736, size: 0x8, addend: 0x0, symName: __ZL28dsv4_build_reserve_comp_planRK12llama_ubatchjbjjj, symObjAddr: 0xA2DC, symBinAddr: 0x5C674, symSize: 0x180 }
  - { offset: 0x305A2F, size: 0x8, addend: 0x0, symName: __ZN27llama_kv_cache_dsv4_context9comp_planaSEOS0_, symObjAddr: 0xA45C, symBinAddr: 0x5C7F4, symSize: 0x19C }
  - { offset: 0x3061D2, size: 0x8, addend: 0x0, symName: __ZNK27llama_kv_cache_dsv4_context12get_csa_planERK12llama_ubatch.cold.1, symObjAddr: 0x10BFC, symBinAddr: 0x3639B0, symSize: 0x50 }
  - { offset: 0x306247, size: 0x8, addend: 0x0, symName: __ZNSt3__16vectorIxNS_9allocatorIxEEE6resizeEm, symObjAddr: 0xE8FC, symBinAddr: 0x5FDDC, symSize: 0x124 }
  - { offset: 0x3066C8, size: 0x8, addend: 0x0, symName: __ZN19llama_kv_cache_dsv4D2Ev, symObjAddr: 0xEA20, symBinAddr: 0x5FF00, symSize: 0xCC }
  - { offset: 0x3067D3, size: 0x8, addend: 0x0, symName: __ZNK27llama_kv_cache_dsv4_context12get_hca_planERK12llama_ubatch, symObjAddr: 0xA5F8, symBinAddr: 0x5C990, symSize: 0x144 }
  - { offset: 0x3070FE, size: 0x8, addend: 0x0, symName: __ZNK27llama_kv_cache_dsv4_context12get_hca_planERK12llama_ubatch.cold.1, symObjAddr: 0x10C4C, symBinAddr: 0x363A00, symSize: 0x54 }
  - { offset: 0x3071D8, size: 0x8, addend: 0x0, symName: __ZNK27llama_kv_cache_dsv4_context12get_lid_planERK12llama_ubatch, symObjAddr: 0xA73C, symBinAddr: 0x5CAD4, symSize: 0x144 }
  - { offset: 0x307B01, size: 0x8, addend: 0x0, symName: __ZNK27llama_kv_cache_dsv4_context12get_lid_planERK12llama_ubatch.cold.1, symObjAddr: 0x10CA0, symBinAddr: 0x363A54, symSize: 0x54 }
  - { offset: 0x307B76, size: 0x8, addend: 0x0, symName: __ZN19llama_kv_cache_dsv4D1Ev, symObjAddr: 0xA880, symBinAddr: 0x5CC18, symSize: 0x4 }
  - { offset: 0x307B99, size: 0x8, addend: 0x0, symName: __ZN19llama_kv_cache_dsv4D1Ev, symObjAddr: 0xA880, symBinAddr: 0x5CC18, symSize: 0x4 }
  - { offset: 0x307BAC, size: 0x8, addend: 0x0, symName: __ZN19llama_kv_cache_dsv4D2Ev, symObjAddr: 0xEA20, symBinAddr: 0x5FF00, symSize: 0xCC }
  - { offset: 0x3080B7, size: 0x8, addend: 0x0, symName: __ZN19llama_kv_cache_dsv4D0Ev, symObjAddr: 0xA884, symBinAddr: 0x5CC1C, symSize: 0x14 }
  - { offset: 0x308111, size: 0x8, addend: 0x0, symName: __ZN31llama_kv_cache_dsv4_raw_contextD1Ev, symObjAddr: 0xA898, symBinAddr: 0x5CC30, symSize: 0x4 }
  - { offset: 0x308134, size: 0x8, addend: 0x0, symName: __ZN31llama_kv_cache_dsv4_raw_contextD1Ev, symObjAddr: 0xA898, symBinAddr: 0x5CC30, symSize: 0x4 }
  - { offset: 0x308147, size: 0x8, addend: 0x0, symName: __ZN31llama_kv_cache_dsv4_raw_contextD2Ev, symObjAddr: 0xEAEC, symBinAddr: 0x5FFCC, symSize: 0x274 }
  - { offset: 0x3090C4, size: 0x8, addend: 0x0, symName: __ZN31llama_kv_cache_dsv4_raw_contextD0Ev, symObjAddr: 0xA89C, symBinAddr: 0x5CC34, symSize: 0x14 }
  - { offset: 0x3096A0, size: 0x8, addend: 0x0, symName: __ZNSt3__128__exception_guard_exceptionsINS_29_AllocatorDestroyRangeReverseINS_9allocatorIN14llama_kv_cache9slot_infoEEEPS4_EEED1B9nqe220106Ev, symObjAddr: 0xB9D8, symBinAddr: 0x5D748, symSize: 0xB4 }
  - { offset: 0x309D6F, size: 0x8, addend: 0x0, symName: __ZNSt3__128__exception_guard_exceptionsINS_6vectorINS1_IjNS_9allocatorIjEEEENS2_IS4_EEE16__destroy_vectorEED1B9nqe220106Ev, symObjAddr: 0xBC8C, symBinAddr: 0x5D9FC, symSize: 0x84 }
  - { offset: 0x30A29F, size: 0x8, addend: 0x0, symName: __ZNSt3__128__exception_guard_exceptionsINS_29_AllocatorDestroyRangeReverseINS_9allocatorINS_6vectorIjNS2_IjEEEEEEPS5_EEED1B9nqe220106Ev, symObjAddr: 0xBE1C, symBinAddr: 0x5DB8C, symSize: 0x6C }
  - { offset: 0x30A5D7, size: 0x8, addend: 0x0, symName: __ZNSt3__16vectorIN27llama_kv_cache_dsv4_context9comp_planENS_9allocatorIS2_EEE20__throw_length_errorB9nqe220106Ev, symObjAddr: 0xC27C, symBinAddr: 0x5DFEC, symSize: 0x14 }
  - { offset: 0x30A5EF, size: 0x8, addend: 0x0, symName: __ZNSt3__114__split_bufferIN27llama_kv_cache_dsv4_context9comp_planERNS_9allocatorIS2_EEED1Ev, symObjAddr: 0xC290, symBinAddr: 0x5E000, symSize: 0x50 }
  - { offset: 0x30A5FA, size: 0x8, addend: 0x0, symName: __ZNSt3__114__split_bufferIN27llama_kv_cache_dsv4_context9comp_planERNS_9allocatorIS2_EEED1Ev, symObjAddr: 0xC290, symBinAddr: 0x5E000, symSize: 0x50 }
  - { offset: 0x30AA27, size: 0x8, addend: 0x0, symName: __ZNSt3__116__if_likely_elseB9nqe220106IZNS_6vectorIN27llama_kv_cache_dsv4_context9comp_planENS_9allocatorIS3_EEE12emplace_backIJS3_EEERS3_DpOT_EUlvE_ZNS7_IJS3_EEES8_SB_EUlvE0_EEvbT_T0_.cold.1, symObjAddr: 0x10CF4, symBinAddr: 0x363AA8, symSize: 0x2C }
  - { offset: 0x30AAAE, size: 0x8, addend: 0x0, symName: __ZNSt3__16vectorIN27llama_kv_cache_dsv4_context9comp_planENS_9allocatorIS2_EEE24__emplace_back_slow_pathIJS2_EEEPS2_DpOT_, symObjAddr: 0xC53C, symBinAddr: 0x5E2AC, symSize: 0x1D0 }
  - { offset: 0x30AFAE, size: 0x8, addend: 0x0, symName: '__ZZL20dsv4_build_comp_planRK12llama_ubatchjbjjjENK3$_3clEv', symObjAddr: 0xC70C, symBinAddr: 0x5E47C, symSize: 0x2C }
  - { offset: 0x30BDF6, size: 0x8, addend: 0x0, symName: __ZNSt3__16__treeINS_12__value_typeINS_4pairIiiEExEENS_19__map_value_compareIS3_NS2_IKS3_xEENS_4lessIS3_EEEENS_9allocatorIS7_EEE14__tree_deleterclB9nqe220106EPNS_11__tree_nodeIS4_PvEE, symObjAddr: 0xE8B0, symBinAddr: 0x5FD90, symSize: 0x4C }
  - { offset: 0x30C644, size: 0x8, addend: 0x0, symName: __ZNSt3__112__hash_tableINS_17__hash_value_typeIiiEENS_22__unordered_map_hasherIiNS_4pairIKiiEENS_4hashIiEENS_8equal_toIiEEEENS_21__unordered_map_equalIiS6_SA_S8_EENS_9allocatorIS6_EEE11__do_rehashILb1EEEvm, symObjAddr: 0xF4B4, symBinAddr: 0x606FC, symSize: 0x180 }
  - { offset: 0x30C8A0, size: 0x8, addend: 0x0, symName: __ZZNSt3__16vectorIN21llama_dsv4_comp_state5layerENS_9allocatorIS2_EEE12emplace_backIJS2_EEERS2_DpOT_ENKUlvE0_clEv, symObjAddr: 0xF634, symBinAddr: 0x6087C, symSize: 0xFC }
  - { offset: 0x30CAED, size: 0x8, addend: 0x0, symName: __ZNSt3__16vectorIN21llama_dsv4_comp_state5layerENS_9allocatorIS2_EEE20__throw_length_errorB9nqe220106Ev, symObjAddr: 0xF730, symBinAddr: 0x60978, symSize: 0x14 }
  - { offset: 0x30CB05, size: 0x8, addend: 0x0, symName: __ZZNSt3__16vectorINS_4pairINS_10unique_ptrI12ggml_context20ggml_context_deleterEENS2_I19ggml_backend_buffer27ggml_backend_buffer_deleterEEEENS_9allocatorIS9_EEE12emplace_backIJS5_RPS6_EEERS9_DpOT_ENKUlvE0_clEv, symObjAddr: 0xF744, symBinAddr: 0x6098C, symSize: 0xE8 }
  - { offset: 0x30CCDB, size: 0x8, addend: 0x0, symName: __ZNSt3__16vectorINS_4pairINS_10unique_ptrI12ggml_context20ggml_context_deleterEENS2_I19ggml_backend_buffer27ggml_backend_buffer_deleterEEEENS_9allocatorIS9_EEE20__throw_length_errorB9nqe220106Ev, symObjAddr: 0xF82C, symBinAddr: 0x60A74, symSize: 0x14 }
  - { offset: 0x30CD97, size: 0x8, addend: 0x0, symName: '__ZNSt3__110__function6__funcIZN19llama_kv_cache_dsv4C1ERK11llama_model9ggml_typeS6_bbbbjjjjRKNS_8functionIFbiEEERKNS7_IFiiEEEE3$_0S8_ED1Ev', symObjAddr: 0xF948, symBinAddr: 0x60B44, symSize: 0x4 }
  - { offset: 0x30CDC6, size: 0x8, addend: 0x0, symName: '__ZNSt3__110__function6__funcIZN19llama_kv_cache_dsv4C1ERK11llama_model9ggml_typeS6_bbbbjjjjRKNS_8functionIFbiEEERKNS7_IFiiEEEE3$_0S8_ED0Ev', symObjAddr: 0xF94C, symBinAddr: 0x60B48, symSize: 0x4 }
  - { offset: 0x30CE3B, size: 0x8, addend: 0x0, symName: '__ZNKSt3__110__function6__funcIZN19llama_kv_cache_dsv4C1ERK11llama_model9ggml_typeS6_bbbbjjjjRKNS_8functionIFbiEEERKNS7_IFiiEEEE3$_0S8_E7__cloneEv', symObjAddr: 0xF950, symBinAddr: 0x60B4C, symSize: 0x34 }
  - { offset: 0x30CE9A, size: 0x8, addend: 0x0, symName: '__ZNKSt3__110__function6__funcIZN19llama_kv_cache_dsv4C1ERK11llama_model9ggml_typeS6_bbbbjjjjRKNS_8functionIFbiEEERKNS7_IFiiEEEE3$_0S8_E7__cloneEPNS0_6__baseIS8_EE', symObjAddr: 0xF984, symBinAddr: 0x60B80, symSize: 0x14 }
  - { offset: 0x30CF05, size: 0x8, addend: 0x0, symName: '__ZNSt3__110__function6__funcIZN19llama_kv_cache_dsv4C1ERK11llama_model9ggml_typeS6_bbbbjjjjRKNS_8functionIFbiEEERKNS7_IFiiEEEE3$_0S8_E7destroyEv', symObjAddr: 0xF998, symBinAddr: 0x60B94, symSize: 0x4 }
  - { offset: 0x30CF28, size: 0x8, addend: 0x0, symName: '__ZNSt3__110__function6__funcIZN19llama_kv_cache_dsv4C1ERK11llama_model9ggml_typeS6_bbbbjjjjRKNS_8functionIFbiEEERKNS7_IFiiEEEE3$_0S8_E18destroy_deallocateEv', symObjAddr: 0xF99C, symBinAddr: 0x60B98, symSize: 0x14 }
  - { offset: 0x30CFBF, size: 0x8, addend: 0x0, symName: '__ZNSt3__110__function6__funcIZN19llama_kv_cache_dsv4C1ERK11llama_model9ggml_typeS6_bbbbjjjjRKNS_8functionIFbiEEERKNS7_IFiiEEEE3$_0S8_EclEOi', symObjAddr: 0xF9B0, symBinAddr: 0x60BAC, symSize: 0x44 }
  - { offset: 0x30D0DE, size: 0x8, addend: 0x0, symName: '__ZNKSt3__110__function6__funcIZN19llama_kv_cache_dsv4C1ERK11llama_model9ggml_typeS6_bbbbjjjjRKNS_8functionIFbiEEERKNS7_IFiiEEEE3$_0S8_E6targetERKSt9type_info', symObjAddr: 0xF9F4, symBinAddr: 0x60BF0, symSize: 0x60 }
  - { offset: 0x30D191, size: 0x8, addend: 0x0, symName: '__ZNKSt3__110__function6__funcIZN19llama_kv_cache_dsv4C1ERK11llama_model9ggml_typeS6_bbbbjjjjRKNS_8functionIFbiEEERKNS7_IFiiEEEE3$_0S8_E11target_typeEv', symObjAddr: 0xFA54, symBinAddr: 0x60C50, symSize: 0xC }
  - { offset: 0x30D1B4, size: 0x8, addend: 0x0, symName: '__ZNSt3__110__function6__funcIZN19llama_kv_cache_dsv4C1ERK11llama_model9ggml_typeS6_bbbbjjjjRKNS_8functionIFbiEEERKNS7_IFiiEEEE3$_1S8_ED1Ev', symObjAddr: 0xFA60, symBinAddr: 0x60C5C, symSize: 0x4 }
  - { offset: 0x30D1E3, size: 0x8, addend: 0x0, symName: '__ZNSt3__110__function6__funcIZN19llama_kv_cache_dsv4C1ERK11llama_model9ggml_typeS6_bbbbjjjjRKNS_8functionIFbiEEERKNS7_IFiiEEEE3$_1S8_ED0Ev', symObjAddr: 0xFA64, symBinAddr: 0x60C60, symSize: 0x4 }
  - { offset: 0x30D258, size: 0x8, addend: 0x0, symName: '__ZNKSt3__110__function6__funcIZN19llama_kv_cache_dsv4C1ERK11llama_model9ggml_typeS6_bbbbjjjjRKNS_8functionIFbiEEERKNS7_IFiiEEEE3$_1S8_E7__cloneEv', symObjAddr: 0xFA68, symBinAddr: 0x60C64, symSize: 0x38 }
  - { offset: 0x30D2C9, size: 0x8, addend: 0x0, symName: '__ZNKSt3__110__function6__funcIZN19llama_kv_cache_dsv4C1ERK11llama_model9ggml_typeS6_bbbbjjjjRKNS_8functionIFbiEEERKNS7_IFiiEEEE3$_1S8_E7__cloneEPNS0_6__baseIS8_EE', symObjAddr: 0xFAA0, symBinAddr: 0x60C9C, symSize: 0x18 }
  - { offset: 0x30D2FE, size: 0x8, addend: 0x0, symName: '__ZNKSt3__110__function6__funcIZN19llama_kv_cache_dsv4C1ERK11llama_model9ggml_typeS6_bbbbjjjjRKNS_8functionIFbiEEERKNS7_IFiiEEEE3$_1S8_E7__cloneEPNS0_6__baseIS8_EE', symObjAddr: 0xFAA0, symBinAddr: 0x60C9C, symSize: 0x18 }
  - { offset: 0x30D322, size: 0x8, addend: 0x0, symName: '__ZNKSt3__110__function6__funcIZN19llama_kv_cache_dsv4C1ERK11llama_model9ggml_typeS6_bbbbjjjjRKNS_8functionIFbiEEERKNS7_IFiiEEEE3$_1S8_E7__cloneEPNS0_6__baseIS8_EE', symObjAddr: 0xFAA0, symBinAddr: 0x60C9C, symSize: 0x18 }
  - { offset: 0x30D346, size: 0x8, addend: 0x0, symName: '__ZNSt3__110__function6__funcIZN19llama_kv_cache_dsv4C1ERK11llama_model9ggml_typeS6_bbbbjjjjRKNS_8functionIFbiEEERKNS7_IFiiEEEE3$_1S8_E7destroyEv', symObjAddr: 0xFAB8, symBinAddr: 0x60CB4, symSize: 0x4 }
  - { offset: 0x30D369, size: 0x8, addend: 0x0, symName: '__ZNSt3__110__function6__funcIZN19llama_kv_cache_dsv4C1ERK11llama_model9ggml_typeS6_bbbbjjjjRKNS_8functionIFbiEEERKNS7_IFiiEEEE3$_1S8_E18destroy_deallocateEv', symObjAddr: 0xFABC, symBinAddr: 0x60CB8, symSize: 0x14 }
  - { offset: 0x30D400, size: 0x8, addend: 0x0, symName: '__ZNSt3__110__function6__funcIZN19llama_kv_cache_dsv4C1ERK11llama_model9ggml_typeS6_bbbbjjjjRKNS_8functionIFbiEEERKNS7_IFiiEEEE3$_1S8_EclEOi', symObjAddr: 0xFAD0, symBinAddr: 0x60CCC, symSize: 0x68 }
  - { offset: 0x30D541, size: 0x8, addend: 0x0, symName: '__ZNKSt3__110__function6__funcIZN19llama_kv_cache_dsv4C1ERK11llama_model9ggml_typeS6_bbbbjjjjRKNS_8functionIFbiEEERKNS7_IFiiEEEE3$_1S8_E6targetERKSt9type_info', symObjAddr: 0xFB38, symBinAddr: 0x60D34, symSize: 0x60 }
  - { offset: 0x30D5F4, size: 0x8, addend: 0x0, symName: '__ZNKSt3__110__function6__funcIZN19llama_kv_cache_dsv4C1ERK11llama_model9ggml_typeS6_bbbbjjjjRKNS_8functionIFbiEEERKNS7_IFiiEEEE3$_1S8_E11target_typeEv', symObjAddr: 0xFB98, symBinAddr: 0x60D94, symSize: 0xC }
  - { offset: 0x30D617, size: 0x8, addend: 0x0, symName: '__ZNSt3__110__function6__funcIZN19llama_kv_cache_dsv4C1ERK11llama_model9ggml_typeS6_bbbbjjjjRKNS_8functionIFbiEEERKNS7_IFiiEEEE3$_2S8_ED1Ev', symObjAddr: 0xFBA4, symBinAddr: 0x60DA0, symSize: 0x4 }
  - { offset: 0x30D646, size: 0x8, addend: 0x0, symName: '__ZNSt3__110__function6__funcIZN19llama_kv_cache_dsv4C1ERK11llama_model9ggml_typeS6_bbbbjjjjRKNS_8functionIFbiEEERKNS7_IFiiEEEE3$_2S8_ED0Ev', symObjAddr: 0xFBA8, symBinAddr: 0x60DA4, symSize: 0x4 }
  - { offset: 0x30D6BB, size: 0x8, addend: 0x0, symName: '__ZNKSt3__110__function6__funcIZN19llama_kv_cache_dsv4C1ERK11llama_model9ggml_typeS6_bbbbjjjjRKNS_8functionIFbiEEERKNS7_IFiiEEEE3$_2S8_E7__cloneEv', symObjAddr: 0xFBAC, symBinAddr: 0x60DA8, symSize: 0x38 }
  - { offset: 0x30D72C, size: 0x8, addend: 0x0, symName: '__ZNKSt3__110__function6__funcIZN19llama_kv_cache_dsv4C1ERK11llama_model9ggml_typeS6_bbbbjjjjRKNS_8functionIFbiEEERKNS7_IFiiEEEE3$_2S8_E7__cloneEPNS0_6__baseIS8_EE', symObjAddr: 0xFBE4, symBinAddr: 0x60DE0, symSize: 0x18 }
  - { offset: 0x30D761, size: 0x8, addend: 0x0, symName: '__ZNKSt3__110__function6__funcIZN19llama_kv_cache_dsv4C1ERK11llama_model9ggml_typeS6_bbbbjjjjRKNS_8functionIFbiEEERKNS7_IFiiEEEE3$_2S8_E7__cloneEPNS0_6__baseIS8_EE', symObjAddr: 0xFBE4, symBinAddr: 0x60DE0, symSize: 0x18 }
  - { offset: 0x30D785, size: 0x8, addend: 0x0, symName: '__ZNKSt3__110__function6__funcIZN19llama_kv_cache_dsv4C1ERK11llama_model9ggml_typeS6_bbbbjjjjRKNS_8functionIFbiEEERKNS7_IFiiEEEE3$_2S8_E7__cloneEPNS0_6__baseIS8_EE', symObjAddr: 0xFBE4, symBinAddr: 0x60DE0, symSize: 0x18 }
  - { offset: 0x30D7A9, size: 0x8, addend: 0x0, symName: '__ZNSt3__110__function6__funcIZN19llama_kv_cache_dsv4C1ERK11llama_model9ggml_typeS6_bbbbjjjjRKNS_8functionIFbiEEERKNS7_IFiiEEEE3$_2S8_E7destroyEv', symObjAddr: 0xFBFC, symBinAddr: 0x60DF8, symSize: 0x4 }
  - { offset: 0x30D7CC, size: 0x8, addend: 0x0, symName: '__ZNSt3__110__function6__funcIZN19llama_kv_cache_dsv4C1ERK11llama_model9ggml_typeS6_bbbbjjjjRKNS_8functionIFbiEEERKNS7_IFiiEEEE3$_2S8_E18destroy_deallocateEv', symObjAddr: 0xFC00, symBinAddr: 0x60DFC, symSize: 0x14 }
  - { offset: 0x30D863, size: 0x8, addend: 0x0, symName: '__ZNSt3__110__function6__funcIZN19llama_kv_cache_dsv4C1ERK11llama_model9ggml_typeS6_bbbbjjjjRKNS_8functionIFbiEEERKNS7_IFiiEEEE3$_2S8_EclEOi', symObjAddr: 0xFC14, symBinAddr: 0x60E10, symSize: 0x68 }
  - { offset: 0x30D9A4, size: 0x8, addend: 0x0, symName: '__ZNKSt3__110__function6__funcIZN19llama_kv_cache_dsv4C1ERK11llama_model9ggml_typeS6_bbbbjjjjRKNS_8functionIFbiEEERKNS7_IFiiEEEE3$_2S8_E6targetERKSt9type_info', symObjAddr: 0xFC7C, symBinAddr: 0x60E78, symSize: 0x60 }
  - { offset: 0x30DA57, size: 0x8, addend: 0x0, symName: '__ZNKSt3__110__function6__funcIZN19llama_kv_cache_dsv4C1ERK11llama_model9ggml_typeS6_bbbbjjjjRKNS_8functionIFbiEEERKNS7_IFiiEEEE3$_2S8_E11target_typeEv', symObjAddr: 0xFCDC, symBinAddr: 0x60ED8, symSize: 0xC }
  - { offset: 0x30DD04, size: 0x8, addend: 0x0, symName: __ZNSt3__16vectorIN14llama_kv_cache9slot_infoENS_9allocatorIS2_EEE13__vdeallocateEv, symObjAddr: 0x10038, symBinAddr: 0x61234, symSize: 0xC8 }
  - { offset: 0x30E1C0, size: 0x8, addend: 0x0, symName: __ZNSt3__16vectorINS0_IjNS_9allocatorIjEEEENS1_IS3_EEE18__assign_with_sizeB9nqe220106INS_17_ClassicAlgPolicyEPS3_S8_EEvT0_T1_l, symObjAddr: 0x10100, symBinAddr: 0x612FC, symSize: 0x260 }
  - { offset: 0x30EE84, size: 0x8, addend: 0x0, symName: __ZN27llama_kv_cache_dsv4_context9comp_planC2ERKS0_, symObjAddr: 0x106BC, symBinAddr: 0x61808, symSize: 0x350 }
  - { offset: 0x31051C, size: 0x8, addend: 0x0, symName: __ZNSt3__128__exception_guard_exceptionsINS_6vectorIN27llama_kv_cache_dsv4_context9comp_planENS_9allocatorIS3_EEE16__destroy_vectorEED1B9nqe220106Ev, symObjAddr: 0x1064C, symBinAddr: 0x61798, symSize: 0x70 }
  - { offset: 0x31054D, size: 0x8, addend: 0x0, symName: __ZNSt3__128__exception_guard_exceptionsINS_6vectorIN27llama_kv_cache_dsv4_context9comp_planENS_9allocatorIS3_EEE16__destroy_vectorEED1B9nqe220106Ev, symObjAddr: 0x1064C, symBinAddr: 0x61798, symSize: 0x70 }
  - { offset: 0x3108B9, size: 0x8, addend: 0x0, symName: _OUTLINED_FUNCTION_0, symObjAddr: 0x10D20, symBinAddr: 0x61B58, symSize: 0x14 }
  - { offset: 0x3108D1, size: 0x8, addend: 0x0, symName: _OUTLINED_FUNCTION_1, symObjAddr: 0x10D34, symBinAddr: 0x61B6C, symSize: 0x14 }
  - { offset: 0x3108E9, size: 0x8, addend: 0x0, symName: _OUTLINED_FUNCTION_2, symObjAddr: 0x10D48, symBinAddr: 0x61B80, symSize: 0x8 }
  - { offset: 0x310901, size: 0x8, addend: 0x0, symName: _OUTLINED_FUNCTION_3, symObjAddr: 0x10D50, symBinAddr: 0x61B88, symSize: 0x8 }
  - { offset: 0x310919, size: 0x8, addend: 0x0, symName: _OUTLINED_FUNCTION_4, symObjAddr: 0x10D58, symBinAddr: 0x61B90, symSize: 0x8 }
  - { offset: 0x310931, size: 0x8, addend: 0x0, symName: _OUTLINED_FUNCTION_5, symObjAddr: 0x10D60, symBinAddr: 0x61B98, symSize: 0x8 }
  - { offset: 0x31280E, size: 0x8, addend: 0x0, symName: __ZTV19llama_kv_cache_iswa, symObjAddr: 0x2BD0, symBinAddr: 0x3FBA18, symSize: 0x0 }
  - { offset: 0x332011, size: 0x8, addend: 0x0, symName: __ZNSt3__111make_uniqueB9nqe220106I27llama_kv_cache_iswa_contextJP19llama_kv_cache_iswaNS_6vectorIN14llama_kv_cache9slot_infoENS_9allocatorIS6_EEEES9_NS4_I12llama_ubatchNS7_ISA_EEEEELi0EEENS_10unique_ptrIT_NS_14default_deleteISE_EEEEDpOT0_, symObjAddr: 0x1048, symBinAddr: 0x62B44, symSize: 0x264 }
  - { offset: 0x339D9E, size: 0x8, addend: 0x0, symName: __ZTV27llama_kv_cache_iswa_context, symObjAddr: 0x2C68, symBinAddr: 0x3FBAB0, symSize: 0x0 }
  - { offset: 0x33A34F, size: 0x8, addend: 0x0, symName: '__ZTVNSt3__110__function6__funcIZN19llama_kv_cache_iswaC1ERK11llama_modelRK13llama_hparams9ggml_typeS9_bbbbjjjjP14llama_memory_iRKNS_8functionIFbiEEERKNSC_IFiiEEESK_E3$_0SD_EE', symObjAddr: 0x2CF8, symBinAddr: 0x3FBB20, symSize: 0x0 }
  - { offset: 0x33A35D, size: 0x8, addend: 0x0, symName: __ZN19llama_kv_cache_iswaC1ERK11llama_modelRK13llama_hparams9ggml_typeS6_bbbbjjjjP14llama_memory_iRKNSt3__18functionIFbiEEERKNSA_IFiiEEESI_, symObjAddr: 0x448, symBinAddr: 0x61FE8, symSize: 0xC }
  - { offset: 0x33A4E2, size: 0x8, addend: 0x0, symName: '__ZTVNSt3__110__function6__funcIZN19llama_kv_cache_iswaC1ERK11llama_modelRK13llama_hparams9ggml_typeS9_bbbbjjjjP14llama_memory_iRKNS_8functionIFbiEEERKNSC_IFiiEEESK_E3$_1SD_EE', symObjAddr: 0x2D88, symBinAddr: 0x3FBBA0, symSize: 0x0 }
  - { offset: 0x33A5DC, size: 0x8, addend: 0x0, symName: __ZN19llama_kv_cache_iswaC2ERK11llama_model9ggml_typeS3_bbbbjjjjP14llama_memory_iRKNSt3__18functionIFbiEEERKNS7_IFiiEEESF_, symObjAddr: 0x0, symBinAddr: 0x61BA0, symSize: 0x50 }
  - { offset: 0x33A727, size: 0x8, addend: 0x0, symName: __ZN19llama_kv_cache_iswaC2ERK11llama_modelRK13llama_hparams9ggml_typeS6_bbbbjjjjP14llama_memory_iRKNSt3__18functionIFbiEEERKNSA_IFiiEEESI_, symObjAddr: 0x50, symBinAddr: 0x61BF0, symSize: 0x3A8 }
  - { offset: 0x33B458, size: 0x8, addend: 0x0, symName: __ZN19llama_kv_cache_iswaC1ERK11llama_model9ggml_typeS3_bbbbjjjjP14llama_memory_iRKNSt3__18functionIFbiEEERKNS7_IFiiEEESF_, symObjAddr: 0x3F8, symBinAddr: 0x61F98, symSize: 0x50 }
  - { offset: 0x33B608, size: 0x8, addend: 0x0, symName: __ZNK19llama_kv_cache_iswa8get_baseEv, symObjAddr: 0x454, symBinAddr: 0x61FF4, symSize: 0x8 }
  - { offset: 0x33B62C, size: 0x8, addend: 0x0, symName: __ZNK19llama_kv_cache_iswa8get_baseEv, symObjAddr: 0x454, symBinAddr: 0x61FF4, symSize: 0x8 }
  - { offset: 0x33B649, size: 0x8, addend: 0x0, symName: __ZNK19llama_kv_cache_iswa7get_swaEv, symObjAddr: 0x45C, symBinAddr: 0x61FFC, symSize: 0x8 }
  - { offset: 0x33B66D, size: 0x8, addend: 0x0, symName: __ZNK19llama_kv_cache_iswa7get_swaEv, symObjAddr: 0x45C, symBinAddr: 0x61FFC, symSize: 0x8 }
  - { offset: 0x33B6A0, size: 0x8, addend: 0x0, symName: __ZN19llama_kv_cache_iswa5clearEb, symObjAddr: 0x464, symBinAddr: 0x62004, symSize: 0x40 }
  - { offset: 0x33B734, size: 0x8, addend: 0x0, symName: __ZN19llama_kv_cache_iswa6seq_rmEiii, symObjAddr: 0x4A4, symBinAddr: 0x62044, symSize: 0x6C }
  - { offset: 0x33B817, size: 0x8, addend: 0x0, symName: __ZN19llama_kv_cache_iswa6seq_cpEiiii, symObjAddr: 0x510, symBinAddr: 0x620B0, symSize: 0x68 }
  - { offset: 0x33B8ED, size: 0x8, addend: 0x0, symName: __ZN19llama_kv_cache_iswa8seq_keepEi, symObjAddr: 0x578, symBinAddr: 0x62118, symSize: 0x40 }
  - { offset: 0x33B981, size: 0x8, addend: 0x0, symName: __ZN19llama_kv_cache_iswa7seq_addEiiii, symObjAddr: 0x5B8, symBinAddr: 0x62158, symSize: 0x68 }
  - { offset: 0x33BA57, size: 0x8, addend: 0x0, symName: __ZN19llama_kv_cache_iswa7seq_divEiiii, symObjAddr: 0x620, symBinAddr: 0x621C0, symSize: 0x68 }
  - { offset: 0x33BB2D, size: 0x8, addend: 0x0, symName: __ZNK19llama_kv_cache_iswa11seq_pos_minEi, symObjAddr: 0x688, symBinAddr: 0x62228, symSize: 0x10 }
  - { offset: 0x33BB66, size: 0x8, addend: 0x0, symName: __ZNK19llama_kv_cache_iswa11seq_pos_minEi, symObjAddr: 0x688, symBinAddr: 0x62228, symSize: 0x10 }
  - { offset: 0x33BB96, size: 0x8, addend: 0x0, symName: __ZNK19llama_kv_cache_iswa11seq_pos_maxEi, symObjAddr: 0x698, symBinAddr: 0x62238, symSize: 0x10 }
  - { offset: 0x33BBCF, size: 0x8, addend: 0x0, symName: __ZNK19llama_kv_cache_iswa11seq_pos_maxEi, symObjAddr: 0x698, symBinAddr: 0x62238, symSize: 0x10 }
  - { offset: 0x33C3D3, size: 0x8, addend: 0x0, symName: __ZNK19llama_kv_cache_iswa16memory_breakdownEv, symObjAddr: 0x6A8, symBinAddr: 0x62248, symSize: 0x1BC }
  - { offset: 0x33D6D0, size: 0x8, addend: 0x0, symName: __ZN19llama_kv_cache_iswa10init_batchER18llama_batch_allocrjb, symObjAddr: 0x8A4, symBinAddr: 0x62404, symSize: 0x740 }
  - { offset: 0x340175, size: 0x8, addend: 0x0, symName: __ZN27llama_kv_cache_iswa_contextC2EP19llama_kv_cache_iswaNSt3__16vectorIN14llama_kv_cache9slot_infoENS2_9allocatorIS5_EEEES8_NS3_I12llama_ubatchNS6_IS9_EEEE, symObjAddr: 0x1890, symBinAddr: 0x63230, symSize: 0x5CC }
  - { offset: 0x341BF7, size: 0x8, addend: 0x0, symName: __ZN19llama_kv_cache_iswa9init_fullEv, symObjAddr: 0x1408, symBinAddr: 0x62DA8, symSize: 0x54 }
  - { offset: 0x341C9E, size: 0x8, addend: 0x0, symName: __ZN27llama_kv_cache_iswa_contextC2EP19llama_kv_cache_iswa, symObjAddr: 0x1628, symBinAddr: 0x62FC8, symSize: 0x120 }
  - { offset: 0x341F5A, size: 0x8, addend: 0x0, symName: __ZN19llama_kv_cache_iswa11init_updateEP13llama_contextb, symObjAddr: 0x145C, symBinAddr: 0x62DFC, symSize: 0x6C }
  - { offset: 0x34203E, size: 0x8, addend: 0x0, symName: __ZN27llama_kv_cache_iswa_contextC2EP19llama_kv_cache_iswaP13llama_contextb, symObjAddr: 0x174C, symBinAddr: 0x630EC, symSize: 0x140 }
  - { offset: 0x3422ED, size: 0x8, addend: 0x0, symName: __ZNK19llama_kv_cache_iswa13get_can_shiftEv, symObjAddr: 0x14C8, symBinAddr: 0x62E68, symSize: 0x60 }
  - { offset: 0x3423A8, size: 0x8, addend: 0x0, symName: __ZNK19llama_kv_cache_iswa11state_writeER16llama_io_write_iij, symObjAddr: 0x1528, symBinAddr: 0x62EC8, symSize: 0x5C }
  - { offset: 0x342458, size: 0x8, addend: 0x0, symName: __ZN19llama_kv_cache_iswa10state_readER15llama_io_read_iij, symObjAddr: 0x1584, symBinAddr: 0x62F24, symSize: 0x5C }
  - { offset: 0x342508, size: 0x8, addend: 0x0, symName: __ZN27llama_kv_cache_iswa_contextC2E19llama_memory_status, symObjAddr: 0x15E0, symBinAddr: 0x62F80, symSize: 0x24 }
  - { offset: 0x34256C, size: 0x8, addend: 0x0, symName: __ZN27llama_kv_cache_iswa_contextC1E19llama_memory_status, symObjAddr: 0x1604, symBinAddr: 0x62FA4, symSize: 0x24 }
  - { offset: 0x342595, size: 0x8, addend: 0x0, symName: __ZN27llama_kv_cache_iswa_contextC1E19llama_memory_status, symObjAddr: 0x1604, symBinAddr: 0x62FA4, symSize: 0x24 }
  - { offset: 0x3426D2, size: 0x8, addend: 0x0, symName: __ZN27llama_kv_cache_iswa_contextC1EP19llama_kv_cache_iswa, symObjAddr: 0x1748, symBinAddr: 0x630E8, symSize: 0x4 }
  - { offset: 0x3426FC, size: 0x8, addend: 0x0, symName: __ZN27llama_kv_cache_iswa_contextC1EP19llama_kv_cache_iswa, symObjAddr: 0x1748, symBinAddr: 0x630E8, symSize: 0x4 }
  - { offset: 0x342716, size: 0x8, addend: 0x0, symName: __ZN27llama_kv_cache_iswa_contextC1EP19llama_kv_cache_iswaP13llama_contextb, symObjAddr: 0x188C, symBinAddr: 0x6322C, symSize: 0x4 }
  - { offset: 0x342753, size: 0x8, addend: 0x0, symName: __ZN27llama_kv_cache_iswa_contextC1EP19llama_kv_cache_iswaP13llama_contextb, symObjAddr: 0x188C, symBinAddr: 0x6322C, symSize: 0x4 }
  - { offset: 0x342C73, size: 0x8, addend: 0x0, symName: __ZN27llama_kv_cache_iswa_contextC1EP19llama_kv_cache_iswaNSt3__16vectorIN14llama_kv_cache9slot_infoENS2_9allocatorIS5_EEEES8_NS3_I12llama_ubatchNS6_IS9_EEEE, symObjAddr: 0x1E5C, symBinAddr: 0x637FC, symSize: 0x4 }
  - { offset: 0x342CB5, size: 0x8, addend: 0x0, symName: __ZN27llama_kv_cache_iswa_contextC1EP19llama_kv_cache_iswaNSt3__16vectorIN14llama_kv_cache9slot_infoENS2_9allocatorIS5_EEEES8_NS3_I12llama_ubatchNS6_IS9_EEEE, symObjAddr: 0x1E5C, symBinAddr: 0x637FC, symSize: 0x4 }
  - { offset: 0x342CE4, size: 0x8, addend: 0x0, symName: __ZN27llama_kv_cache_iswa_contextD2Ev, symObjAddr: 0x1E60, symBinAddr: 0x63800, symSize: 0xD4 }
  - { offset: 0x34307C, size: 0x8, addend: 0x0, symName: __ZN27llama_kv_cache_iswa_contextD1Ev, symObjAddr: 0x1F34, symBinAddr: 0x638D4, symSize: 0xD4 }
  - { offset: 0x343431, size: 0x8, addend: 0x0, symName: __ZN27llama_kv_cache_iswa_contextD0Ev, symObjAddr: 0x2008, symBinAddr: 0x639A8, symSize: 0xD4 }
  - { offset: 0x3437EE, size: 0x8, addend: 0x0, symName: __ZN27llama_kv_cache_iswa_context4nextEv, symObjAddr: 0x20DC, symBinAddr: 0x63A7C, symSize: 0x70 }
  - { offset: 0x34388D, size: 0x8, addend: 0x0, symName: __ZN27llama_kv_cache_iswa_context5applyEv, symObjAddr: 0x214C, symBinAddr: 0x63AEC, symSize: 0x44 }
  - { offset: 0x34391D, size: 0x8, addend: 0x0, symName: __ZNK27llama_kv_cache_iswa_context10get_statusEv, symObjAddr: 0x2190, symBinAddr: 0x63B30, symSize: 0x8 }
  - { offset: 0x343969, size: 0x8, addend: 0x0, symName: __ZNK27llama_kv_cache_iswa_context10get_ubatchEv, symObjAddr: 0x2198, symBinAddr: 0x63B38, symSize: 0x10 }
  - { offset: 0x3439CF, size: 0x8, addend: 0x0, symName: __ZNK27llama_kv_cache_iswa_context8get_baseEv, symObjAddr: 0x21A8, symBinAddr: 0x63B48, symSize: 0x8 }
  - { offset: 0x3439FB, size: 0x8, addend: 0x0, symName: __ZNK27llama_kv_cache_iswa_context8get_baseEv, symObjAddr: 0x21A8, symBinAddr: 0x63B48, symSize: 0x8 }
  - { offset: 0x343A18, size: 0x8, addend: 0x0, symName: __ZNK27llama_kv_cache_iswa_context7get_swaEv, symObjAddr: 0x21B0, symBinAddr: 0x63B50, symSize: 0x8 }
  - { offset: 0x343A44, size: 0x8, addend: 0x0, symName: __ZNK27llama_kv_cache_iswa_context7get_swaEv, symObjAddr: 0x21B0, symBinAddr: 0x63B50, symSize: 0x8 }
  - { offset: 0x343A7F, size: 0x8, addend: 0x0, symName: __ZN19llama_kv_cache_iswaD1Ev, symObjAddr: 0x21B8, symBinAddr: 0x63B58, symSize: 0x5C }
  - { offset: 0x343C17, size: 0x8, addend: 0x0, symName: __ZN19llama_kv_cache_iswaD0Ev, symObjAddr: 0x2214, symBinAddr: 0x63BB4, symSize: 0x5C }
  - { offset: 0x343DB6, size: 0x8, addend: 0x0, symName: '__ZNSt3__110__function6__funcIZN19llama_kv_cache_iswaC1ERK11llama_modelRK13llama_hparams9ggml_typeS9_bbbbjjjjP14llama_memory_iRKNS_8functionIFbiEEERKNSC_IFiiEEESK_E3$_0SD_ED1Ev', symObjAddr: 0x2270, symBinAddr: 0x63C10, symSize: 0x4 }
  - { offset: 0x343DE5, size: 0x8, addend: 0x0, symName: '__ZNSt3__110__function6__funcIZN19llama_kv_cache_iswaC1ERK11llama_modelRK13llama_hparams9ggml_typeS9_bbbbjjjjP14llama_memory_iRKNS_8functionIFbiEEERKNSC_IFiiEEESK_E3$_0SD_ED0Ev', symObjAddr: 0x2274, symBinAddr: 0x63C14, symSize: 0x4 }
  - { offset: 0x343E5A, size: 0x8, addend: 0x0, symName: '__ZNKSt3__110__function6__funcIZN19llama_kv_cache_iswaC1ERK11llama_modelRK13llama_hparams9ggml_typeS9_bbbbjjjjP14llama_memory_iRKNS_8functionIFbiEEERKNSC_IFiiEEESK_E3$_0SD_E7__cloneEv', symObjAddr: 0x2278, symBinAddr: 0x63C18, symSize: 0x38 }
  - { offset: 0x343ECB, size: 0x8, addend: 0x0, symName: '__ZNKSt3__110__function6__funcIZN19llama_kv_cache_iswaC1ERK11llama_modelRK13llama_hparams9ggml_typeS9_bbbbjjjjP14llama_memory_iRKNS_8functionIFbiEEERKNSC_IFiiEEESK_E3$_0SD_E7__cloneEPNS0_6__baseISD_EE', symObjAddr: 0x22B0, symBinAddr: 0x63C50, symSize: 0x18 }
  - { offset: 0x343F00, size: 0x8, addend: 0x0, symName: '__ZNKSt3__110__function6__funcIZN19llama_kv_cache_iswaC1ERK11llama_modelRK13llama_hparams9ggml_typeS9_bbbbjjjjP14llama_memory_iRKNS_8functionIFbiEEERKNSC_IFiiEEESK_E3$_0SD_E7__cloneEPNS0_6__baseISD_EE', symObjAddr: 0x22B0, symBinAddr: 0x63C50, symSize: 0x18 }
  - { offset: 0x343F24, size: 0x8, addend: 0x0, symName: '__ZNKSt3__110__function6__funcIZN19llama_kv_cache_iswaC1ERK11llama_modelRK13llama_hparams9ggml_typeS9_bbbbjjjjP14llama_memory_iRKNS_8functionIFbiEEERKNSC_IFiiEEESK_E3$_0SD_E7__cloneEPNS0_6__baseISD_EE', symObjAddr: 0x22B0, symBinAddr: 0x63C50, symSize: 0x18 }
  - { offset: 0x343F48, size: 0x8, addend: 0x0, symName: '__ZNSt3__110__function6__funcIZN19llama_kv_cache_iswaC1ERK11llama_modelRK13llama_hparams9ggml_typeS9_bbbbjjjjP14llama_memory_iRKNS_8functionIFbiEEERKNSC_IFiiEEESK_E3$_0SD_E7destroyEv', symObjAddr: 0x22C8, symBinAddr: 0x63C68, symSize: 0x4 }
  - { offset: 0x343F6B, size: 0x8, addend: 0x0, symName: '__ZNSt3__110__function6__funcIZN19llama_kv_cache_iswaC1ERK11llama_modelRK13llama_hparams9ggml_typeS9_bbbbjjjjP14llama_memory_iRKNS_8functionIFbiEEERKNSC_IFiiEEESK_E3$_0SD_E18destroy_deallocateEv', symObjAddr: 0x22CC, symBinAddr: 0x63C6C, symSize: 0x14 }
  - { offset: 0x34407D, size: 0x8, addend: 0x0, symName: '__ZNSt3__110__function6__funcIZN19llama_kv_cache_iswaC1ERK11llama_modelRK13llama_hparams9ggml_typeS9_bbbbjjjjP14llama_memory_iRKNS_8functionIFbiEEERKNSC_IFiiEEESK_E3$_0SD_EclEOi', symObjAddr: 0x22E0, symBinAddr: 0x63C80, symSize: 0x60 }
  - { offset: 0x344214, size: 0x8, addend: 0x0, symName: '__ZNKSt3__110__function6__funcIZN19llama_kv_cache_iswaC1ERK11llama_modelRK13llama_hparams9ggml_typeS9_bbbbjjjjP14llama_memory_iRKNS_8functionIFbiEEERKNSC_IFiiEEESK_E3$_0SD_E6targetERKSt9type_info', symObjAddr: 0x2340, symBinAddr: 0x63CE0, symSize: 0x60 }
  - { offset: 0x3442DE, size: 0x8, addend: 0x0, symName: '__ZNKSt3__110__function6__funcIZN19llama_kv_cache_iswaC1ERK11llama_modelRK13llama_hparams9ggml_typeS9_bbbbjjjjP14llama_memory_iRKNS_8functionIFbiEEERKNSC_IFiiEEESK_E3$_0SD_E11target_typeEv', symObjAddr: 0x23A0, symBinAddr: 0x63D40, symSize: 0xC }
  - { offset: 0x344301, size: 0x8, addend: 0x0, symName: '__ZNSt3__110__function6__funcIZN19llama_kv_cache_iswaC1ERK11llama_modelRK13llama_hparams9ggml_typeS9_bbbbjjjjP14llama_memory_iRKNS_8functionIFbiEEERKNSC_IFiiEEESK_E3$_1SD_ED1Ev', symObjAddr: 0x23AC, symBinAddr: 0x63D4C, symSize: 0x4 }
  - { offset: 0x344330, size: 0x8, addend: 0x0, symName: '__ZNSt3__110__function6__funcIZN19llama_kv_cache_iswaC1ERK11llama_modelRK13llama_hparams9ggml_typeS9_bbbbjjjjP14llama_memory_iRKNS_8functionIFbiEEERKNSC_IFiiEEESK_E3$_1SD_ED0Ev', symObjAddr: 0x23B0, symBinAddr: 0x63D50, symSize: 0x4 }
  - { offset: 0x3443A5, size: 0x8, addend: 0x0, symName: '__ZNKSt3__110__function6__funcIZN19llama_kv_cache_iswaC1ERK11llama_modelRK13llama_hparams9ggml_typeS9_bbbbjjjjP14llama_memory_iRKNS_8functionIFbiEEERKNSC_IFiiEEESK_E3$_1SD_E7__cloneEv', symObjAddr: 0x23B4, symBinAddr: 0x63D54, symSize: 0x38 }
  - { offset: 0x344416, size: 0x8, addend: 0x0, symName: '__ZNKSt3__110__function6__funcIZN19llama_kv_cache_iswaC1ERK11llama_modelRK13llama_hparams9ggml_typeS9_bbbbjjjjP14llama_memory_iRKNS_8functionIFbiEEERKNSC_IFiiEEESK_E3$_1SD_E7__cloneEPNS0_6__baseISD_EE', symObjAddr: 0x23EC, symBinAddr: 0x63D8C, symSize: 0x18 }
  - { offset: 0x34444B, size: 0x8, addend: 0x0, symName: '__ZNKSt3__110__function6__funcIZN19llama_kv_cache_iswaC1ERK11llama_modelRK13llama_hparams9ggml_typeS9_bbbbjjjjP14llama_memory_iRKNS_8functionIFbiEEERKNSC_IFiiEEESK_E3$_1SD_E7__cloneEPNS0_6__baseISD_EE', symObjAddr: 0x23EC, symBinAddr: 0x63D8C, symSize: 0x18 }
  - { offset: 0x34446F, size: 0x8, addend: 0x0, symName: '__ZNKSt3__110__function6__funcIZN19llama_kv_cache_iswaC1ERK11llama_modelRK13llama_hparams9ggml_typeS9_bbbbjjjjP14llama_memory_iRKNS_8functionIFbiEEERKNSC_IFiiEEESK_E3$_1SD_E7__cloneEPNS0_6__baseISD_EE', symObjAddr: 0x23EC, symBinAddr: 0x63D8C, symSize: 0x18 }
  - { offset: 0x344493, size: 0x8, addend: 0x0, symName: '__ZNSt3__110__function6__funcIZN19llama_kv_cache_iswaC1ERK11llama_modelRK13llama_hparams9ggml_typeS9_bbbbjjjjP14llama_memory_iRKNS_8functionIFbiEEERKNSC_IFiiEEESK_E3$_1SD_E7destroyEv', symObjAddr: 0x2404, symBinAddr: 0x63DA4, symSize: 0x4 }
  - { offset: 0x3444B6, size: 0x8, addend: 0x0, symName: '__ZNSt3__110__function6__funcIZN19llama_kv_cache_iswaC1ERK11llama_modelRK13llama_hparams9ggml_typeS9_bbbbjjjjP14llama_memory_iRKNS_8functionIFbiEEERKNSC_IFiiEEESK_E3$_1SD_E18destroy_deallocateEv', symObjAddr: 0x2408, symBinAddr: 0x63DA8, symSize: 0x14 }
  - { offset: 0x34454C, size: 0x8, addend: 0x0, symName: '__ZNSt3__110__function6__funcIZN19llama_kv_cache_iswaC1ERK11llama_modelRK13llama_hparams9ggml_typeS9_bbbbjjjjP14llama_memory_iRKNS_8functionIFbiEEERKNSC_IFiiEEESK_E3$_1SD_EclEOi', symObjAddr: 0x241C, symBinAddr: 0x63DBC, symSize: 0x5C }
  - { offset: 0x34468B, size: 0x8, addend: 0x0, symName: '__ZNKSt3__110__function6__funcIZN19llama_kv_cache_iswaC1ERK11llama_modelRK13llama_hparams9ggml_typeS9_bbbbjjjjP14llama_memory_iRKNS_8functionIFbiEEERKNSC_IFiiEEESK_E3$_1SD_E6targetERKSt9type_info', symObjAddr: 0x2478, symBinAddr: 0x63E18, symSize: 0x60 }
  - { offset: 0x34473E, size: 0x8, addend: 0x0, symName: '__ZNKSt3__110__function6__funcIZN19llama_kv_cache_iswaC1ERK11llama_modelRK13llama_hparams9ggml_typeS9_bbbbjjjjP14llama_memory_iRKNS_8functionIFbiEEERKNSC_IFiiEEESK_E3$_1SD_E11target_typeEv', symObjAddr: 0x24D8, symBinAddr: 0x63E78, symSize: 0xC }
  - { offset: 0x3468BE, size: 0x8, addend: 0x0, symName: __ZTV14llama_kv_cache, symObjAddr: 0x194C0, symBinAddr: 0x3FBC20, symSize: 0x0 }
  - { offset: 0x38D8F4, size: 0x8, addend: 0x0, symName: __ZTV23llm_graph_input_k_shift, symObjAddr: 0x195C0, symBinAddr: 0x3FBD10, symSize: 0x0 }
  - { offset: 0x38D9AF, size: 0x8, addend: 0x0, symName: __ZTV22llama_kv_cache_context, symObjAddr: 0x19558, symBinAddr: 0x3FBCB8, symSize: 0x0 }
  - { offset: 0x38DDB2, size: 0x8, addend: 0x0, symName: __ZTVNSt3__120__shared_ptr_emplaceINS_6vectorI14llama_kv_cellsNS_9allocatorIS2_EEEENS3_IS5_EEEE, symObjAddr: 0x19640, symBinAddr: 0x3FBD70, symSize: 0x0 }
  - { offset: 0x38DE24, size: 0x8, addend: 0x0, symName: __ZN14llama_kv_cacheC2ERK11llama_modelRK13llama_hparams9ggml_typeS6_bbbjjjj14llama_swa_typeP14llama_memory_iRKNSt3__18functionIFbiEEERKNSB_IFiiEEESJ_, symObjAddr: 0x0, symBinAddr: 0x63E84, symSize: 0x18AC }
  - { offset: 0x3923A2, size: 0x8, addend: 0x0, symName: __ZN14llama_kv_cache7prepareERKNSt3__16vectorI12llama_ubatchNS0_9allocatorIS2_EEEE, symObjAddr: 0x3F90, symBinAddr: 0x67998, symSize: 0xDFC }
  - { offset: 0x3997FF, size: 0x8, addend: 0x0, symName: __ZNSt3__16vectorI14llama_kv_cellsNS_9allocatorIS1_EEE6resizeEm, symObjAddr: 0x19F4, symBinAddr: 0x65754, symSize: 0x270 }
  - { offset: 0x39980A, size: 0x8, addend: 0x0, symName: __ZNSt3__16vectorI14llama_kv_cellsNS_9allocatorIS1_EEE6resizeEm, symObjAddr: 0x19F4, symBinAddr: 0x65754, symSize: 0x270 }
  - { offset: 0x39A333, size: 0x8, addend: 0x0, symName: __ZNSt3__16vectorI17llama_kv_cell_extNS_9allocatorIS1_EEE6resizeEm, symObjAddr: 0x14884, symBinAddr: 0x77B80, symSize: 0x124 }
  - { offset: 0x39A33E, size: 0x8, addend: 0x0, symName: __ZNSt3__16vectorI17llama_kv_cell_extNS_9allocatorIS1_EEE6resizeEm, symObjAddr: 0x14884, symBinAddr: 0x77B80, symSize: 0x124 }
  - { offset: 0x39A7FE, size: 0x8, addend: 0x0, symName: __ZNSt3__16vectorINS_6bitsetILm256EEENS_9allocatorIS2_EEE6resizeEm, symObjAddr: 0x149A8, symBinAddr: 0x77CA4, symSize: 0x124 }
  - { offset: 0x39A809, size: 0x8, addend: 0x0, symName: __ZNSt3__16vectorINS_6bitsetILm256EEENS_9allocatorIS2_EEE6resizeEm, symObjAddr: 0x149A8, symBinAddr: 0x77CA4, symSize: 0x124 }
  - { offset: 0x39AD00, size: 0x8, addend: 0x0, symName: __ZN14llama_kv_cells5resetEv, symObjAddr: 0x2240, symBinAddr: 0x65CEC, symSize: 0xD8 }
  - { offset: 0x39B30B, size: 0x8, addend: 0x0, symName: __ZN14llama_kv_cache8kv_layerD1Ev, symObjAddr: 0x1E18, symBinAddr: 0x659C4, symSize: 0x40 }
  - { offset: 0x39B32B, size: 0x8, addend: 0x0, symName: __ZZNSt3__112__hash_tableINS_17__hash_value_typeIiiEENS_22__unordered_map_hasherIiNS_4pairIKiiEENS_4hashIiEENS_8equal_toIiEEEENS_21__unordered_map_equalIiS6_SA_S8_EENS_9allocatorIS6_EEE16__emplace_uniqueB9nqe220106IJRKNS_21piecewise_construct_tENS_5tupleIJRS5_EEENSL_IJEEEEEENS4_INS_15__hash_iteratorIPNS_11__hash_nodeIS2_PvEEEEbEEDpOT_ENKUlSM_SK_OSN_OSO_E_clESM_SK_SZ_S10_, symObjAddr: 0x15FE8, symBinAddr: 0x785D0, symSize: 0x2FC }
  - { offset: 0x39BE6D, size: 0x8, addend: 0x0, symName: __ZN14llama_kv_cache8kv_layerC2ERKS0_, symObjAddr: 0x16760, symBinAddr: 0x788CC, symSize: 0x108 }
  - { offset: 0x39C62D, size: 0x8, addend: 0x0, symName: __ZNSt3__16__treeINS_12__value_typeIP24ggml_backend_buffer_typeNS_10unique_ptrI12ggml_context20ggml_context_deleterEEEENS_19__map_value_compareIS3_NS_4pairIKS3_S7_EEZN14llama_kv_cacheC1ERK11llama_modelRK13llama_hparams9ggml_typeSK_bbbjjjj14llama_swa_typeP14llama_memory_iRKNS_8functionIFbiEEERKNSO_IFiiEEESW_E28ggml_backend_buft_comparatorEENS_9allocatorISC_EEE12__find_equalB9nqe220106IS3_EENSA_IPNS_15__tree_end_nodeIPNS_16__tree_node_baseIPvEEEERS17_EERKT_, symObjAddr: 0x14BB4, symBinAddr: 0x77DDC, symSize: 0xBC }
  - { offset: 0x39C80D, size: 0x8, addend: 0x0, symName: __ZNSt3__16vectorIN14llama_kv_cache8kv_layerENS_9allocatorIS2_EEE24__emplace_back_slow_pathIJS2_EEEPS2_DpOT_, symObjAddr: 0x16ADC, symBinAddr: 0x78C34, symSize: 0x1C8 }
  - { offset: 0x39CFFC, size: 0x8, addend: 0x0, symName: __ZNSt3__16vectorIN14llama_kv_cache8kv_layerENS_9allocatorIS2_EEE24__emplace_back_slow_pathIJRKS2_EEEPS2_DpOT_, symObjAddr: 0x16868, symBinAddr: 0x789D4, symSize: 0x1D8 }
  - { offset: 0x39DB6A, size: 0x8, addend: 0x0, symName: __ZNSt3__16__treeINS_12__value_typeIP24ggml_backend_buffer_typeNS_10unique_ptrI12ggml_context20ggml_context_deleterEEEENS_19__map_value_compareIS3_NS_4pairIKS3_S7_EEZN14llama_kv_cacheC1ERK11llama_modelRK13llama_hparams9ggml_typeSK_bbbjjjj14llama_swa_typeP14llama_memory_iRKNS_8functionIFbiEEERKNSO_IFiiEEESW_E28ggml_backend_buft_comparatorEENS_9allocatorISC_EEE14__tree_deleterclB9nqe220106EPNS_11__tree_nodeIS8_PvEE, symObjAddr: 0x15DF8, symBinAddr: 0x78440, symSize: 0x58 }
  - { offset: 0x39DD37, size: 0x8, addend: 0x0, symName: __ZZNSt3__112__hash_tableINS_17__hash_value_typeIxNS_6vectorIfNS_9allocatorIfEEEEEENS_22__unordered_map_hasherIxNS_4pairIKxS5_EENS_4hashIxEENS_8equal_toIxEEEENS_21__unordered_map_equalIxSA_SE_SC_EENS3_ISA_EEE16__emplace_uniqueB9nqe220106IJRKNS_21piecewise_construct_tENS_5tupleIJRS9_EEENSO_IJEEEEEENS8_INS_15__hash_iteratorIPNS_11__hash_nodeIS6_PvEEEEbEEDpOT_ENKUlSP_SN_OSQ_OSR_E_clESP_SN_S12_S13_, symObjAddr: 0x16DA0, symBinAddr: 0x78DFC, symSize: 0x308 }
  - { offset: 0x39E499, size: 0x8, addend: 0x0, symName: __ZNSt3__16__treeIjNS_4lessIjEENS_9allocatorIjEEE14__tree_deleterclB9nqe220106EPNS_11__tree_nodeIjPvEE, symObjAddr: 0x14E58, symBinAddr: 0x77E98, symSize: 0x4C }
  - { offset: 0x39E4AE, size: 0x8, addend: 0x0, symName: __ZNSt3__16vectorIN14llama_kv_cache8kv_layerENS_9allocatorIS2_EEE24__emplace_back_slow_pathIJS2_EEEPS2_DpOT_, symObjAddr: 0x16ADC, symBinAddr: 0x78C34, symSize: 0x1C8 }
  - { offset: 0x39E676, size: 0x8, addend: 0x0, symName: __ZNSt3__113unordered_mapIxNS_6vectorIfNS_9allocatorIfEEEENS_4hashIxEENS_8equal_toIxEENS2_INS_4pairIKxS4_EEEEED1B9nqe220106Ev, symObjAddr: 0x213C, symBinAddr: 0x65BE8, symSize: 0x68 }
  - { offset: 0x39EA58, size: 0x8, addend: 0x0, symName: __ZN14llama_kv_cache8kv_layerD1Ev, symObjAddr: 0x1E18, symBinAddr: 0x659C4, symSize: 0x40 }
  - { offset: 0x39EE8D, size: 0x8, addend: 0x0, symName: __ZNSt3__16vectorIN14llama_kv_cache8kv_layerENS_9allocatorIS2_EEED1B9nqe220106Ev, symObjAddr: 0x1F94, symBinAddr: 0x65AC4, symSize: 0x80 }
  - { offset: 0x39F224, size: 0x8, addend: 0x0, symName: __ZN14llama_kv_cache16stream_copy_infoD1Ev, symObjAddr: 0x2014, symBinAddr: 0x65B44, symSize: 0x40 }
  - { offset: 0x39F468, size: 0x8, addend: 0x0, symName: __ZNSt3__110shared_ptrINS_6vectorI14llama_kv_cellsNS_9allocatorIS2_EEEEED1B9nqe220106Ev, symObjAddr: 0x2054, symBinAddr: 0x65B84, symSize: 0x64 }
  - { offset: 0x39F4FE, size: 0x8, addend: 0x0, symName: __ZNK14llama_kv_cache8get_sizeEv, symObjAddr: 0x18AC, symBinAddr: 0x65730, symSize: 0x24 }
  - { offset: 0x39F95B, size: 0x8, addend: 0x0, symName: __ZNSt3__16vectorI14llama_kv_cellsNS_9allocatorIS1_EEE20__throw_length_errorB9nqe220106Ev, symObjAddr: 0x15E64, symBinAddr: 0x78498, symSize: 0x14 }
  - { offset: 0x3A0005, size: 0x8, addend: 0x0, symName: __ZNSt3__19allocatorI14llama_kv_cellsE9constructB9nqe220106IS1_JS1_EEEvPT_DpOT0_, symObjAddr: 0x15E78, symBinAddr: 0x784AC, symSize: 0x124 }
  - { offset: 0x3A0035, size: 0x8, addend: 0x0, symName: __ZNSt3__19allocatorI14llama_kv_cellsE9constructB9nqe220106IS1_JS1_EEEvPT_DpOT0_, symObjAddr: 0x15E78, symBinAddr: 0x784AC, symSize: 0x124 }
  - { offset: 0x3A0057, size: 0x8, addend: 0x0, symName: __ZNSt3__19allocatorI14llama_kv_cellsE9constructB9nqe220106IS1_JS1_EEEvPT_DpOT0_, symObjAddr: 0x15E78, symBinAddr: 0x784AC, symSize: 0x124 }
  - { offset: 0x3A02DC, size: 0x8, addend: 0x0, symName: __ZN14llama_kv_cellsD2Ev, symObjAddr: 0x1590C, symBinAddr: 0x78128, symSize: 0xA8 }
  - { offset: 0x3A094D, size: 0x8, addend: 0x0, symName: __ZNSt3__16vectorI14llama_kv_cellsNS_9allocatorIS1_EEE20__throw_length_errorB9nqe220106Ev, symObjAddr: 0x15E64, symBinAddr: 0x78498, symSize: 0x14 }
  - { offset: 0x3A0965, size: 0x8, addend: 0x0, symName: __ZNSt3__19allocatorI14llama_kv_cellsE9constructB9nqe220106IS1_JS1_EEEvPT_DpOT0_, symObjAddr: 0x15E78, symBinAddr: 0x784AC, symSize: 0x124 }
  - { offset: 0x3A0A86, size: 0x8, addend: 0x0, symName: __ZNK14llama_kv_cache12size_k_bytesEv, symObjAddr: 0x1E58, symBinAddr: 0x65A04, symSize: 0x64 }
  - { offset: 0x3A0B3D, size: 0x8, addend: 0x0, symName: __ZNK14llama_kv_cache12size_v_bytesEv, symObjAddr: 0x1EBC, symBinAddr: 0x65A68, symSize: 0x5C }
  - { offset: 0x3A1450, size: 0x8, addend: 0x0, symName: __ZN14llama_kv_cacheC1ERK11llama_modelRK13llama_hparams9ggml_typeS6_bbbjjjj14llama_swa_typeP14llama_memory_iRKNSt3__18functionIFbiEEERKNSB_IFiiEEESJ_, symObjAddr: 0x21A4, symBinAddr: 0x65C50, symSize: 0x4 }
  - { offset: 0x3A1576, size: 0x8, addend: 0x0, symName: __ZN14llama_kv_cacheC1ERK11llama_modelRK13llama_hparams9ggml_typeS6_bbbjjjj14llama_swa_typeP14llama_memory_iRKNSt3__18functionIFbiEEERKNSB_IFiiEEESJ_, symObjAddr: 0x21A4, symBinAddr: 0x65C50, symSize: 0x4 }
  - { offset: 0x3A1623, size: 0x8, addend: 0x0, symName: __ZN14llama_kv_cache5clearEb, symObjAddr: 0x21A8, symBinAddr: 0x65C54, symSize: 0x98 }
  - { offset: 0x3A1A52, size: 0x8, addend: 0x0, symName: __ZNSt3__16__treeIjNS_4lessIjEENS_9allocatorIjEEE14__tree_deleterclB9nqe220106EPNS_11__tree_nodeIjPvEE, symObjAddr: 0x14E58, symBinAddr: 0x77E98, symSize: 0x4C }
  - { offset: 0x3A21E0, size: 0x8, addend: 0x0, symName: __ZN14llama_kv_cache6seq_rmEiii, symObjAddr: 0x2318, symBinAddr: 0x65DC4, symSize: 0x460 }
  - { offset: 0x3A2CED, size: 0x8, addend: 0x0, symName: __ZN14llama_kv_cells6seq_rmEji, symObjAddr: 0x2778, symBinAddr: 0x66224, symSize: 0x288 }
  - { offset: 0x3A2D00, size: 0x8, addend: 0x0, symName: __ZN14llama_kv_cells6seq_rmEji, symObjAddr: 0x2778, symBinAddr: 0x66224, symSize: 0x288 }
  - { offset: 0x3A334B, size: 0x8, addend: 0x0, symName: __ZN14llama_kv_cache6seq_cpEiiii, symObjAddr: 0x2A00, symBinAddr: 0x664AC, symSize: 0x4A4 }
  - { offset: 0x3A39E2, size: 0x8, addend: 0x0, symName: __ZN14llama_kv_cache6seq_cpEiiii, symObjAddr: 0x2A00, symBinAddr: 0x664AC, symSize: 0x4A4 }
  - { offset: 0x3A4600, size: 0x8, addend: 0x0, symName: __ZN14llama_kv_cells7seq_addEji, symObjAddr: 0x2EA4, symBinAddr: 0x66950, symSize: 0x110 }
  - { offset: 0x3A4613, size: 0x8, addend: 0x0, symName: __ZN14llama_kv_cells7seq_addEji, symObjAddr: 0x2EA4, symBinAddr: 0x66950, symSize: 0x110 }
  - { offset: 0x3A4A66, size: 0x8, addend: 0x0, symName: __ZN14llama_kv_cells7pos_addEji, symObjAddr: 0x2FB4, symBinAddr: 0x66A60, symSize: 0x144 }
  - { offset: 0x3A4A71, size: 0x8, addend: 0x0, symName: __ZN14llama_kv_cells7pos_addEji, symObjAddr: 0x2FB4, symBinAddr: 0x66A60, symSize: 0x144 }
  - { offset: 0x3A55A8, size: 0x8, addend: 0x0, symName: __ZN14llama_kv_cells10seq_pos_rmEj, symObjAddr: 0x15384, symBinAddr: 0x77EE4, symSize: 0x12C }
  - { offset: 0x3A58F4, size: 0x8, addend: 0x0, symName: __ZN14llama_kv_cells11seq_pos_addEj, symObjAddr: 0x154B0, symBinAddr: 0x78010, symSize: 0x118 }
  - { offset: 0x3A5D6B, size: 0x8, addend: 0x0, symName: __ZN14llama_kv_cache8seq_keepEi, symObjAddr: 0x30F8, symBinAddr: 0x66BA4, symSize: 0x10C }
  - { offset: 0x3A5EFA, size: 0x8, addend: 0x0, symName: __ZN14llama_kv_cells8seq_keepEji, symObjAddr: 0x3204, symBinAddr: 0x66CB0, symSize: 0x270 }
  - { offset: 0x3A5F0D, size: 0x8, addend: 0x0, symName: __ZN14llama_kv_cells8seq_keepEji, symObjAddr: 0x3204, symBinAddr: 0x66CB0, symSize: 0x270 }
  - { offset: 0x3A68A5, size: 0x8, addend: 0x0, symName: __ZN14llama_kv_cache7seq_addEiiii, symObjAddr: 0x3474, symBinAddr: 0x66F20, symSize: 0x200 }
  - { offset: 0x3A68B0, size: 0x8, addend: 0x0, symName: __ZN14llama_kv_cache7seq_addEiiii, symObjAddr: 0x3474, symBinAddr: 0x66F20, symSize: 0x200 }
  - { offset: 0x3A6AF4, size: 0x8, addend: 0x0, symName: __ZN14llama_kv_cache7seq_divEiiii, symObjAddr: 0x3674, symBinAddr: 0x67120, symSize: 0x200 }
  - { offset: 0x3A6B46, size: 0x8, addend: 0x0, symName: __ZN14llama_kv_cache7seq_divEiiii, symObjAddr: 0x3674, symBinAddr: 0x67120, symSize: 0x200 }
  - { offset: 0x3A6DC3, size: 0x8, addend: 0x0, symName: __ZNK14llama_kv_cache11seq_pos_minEi, symObjAddr: 0x3874, symBinAddr: 0x67320, symSize: 0x98 }
  - { offset: 0x3A6E55, size: 0x8, addend: 0x0, symName: __ZNK14llama_kv_cache11seq_pos_minEi, symObjAddr: 0x3874, symBinAddr: 0x67320, symSize: 0x98 }
  - { offset: 0x3A6F68, size: 0x8, addend: 0x0, symName: __ZNK14llama_kv_cache11seq_pos_maxEi, symObjAddr: 0x390C, symBinAddr: 0x673B8, symSize: 0xDC }
  - { offset: 0x3A700F, size: 0x8, addend: 0x0, symName: __ZNK14llama_kv_cache11seq_pos_maxEi, symObjAddr: 0x390C, symBinAddr: 0x673B8, symSize: 0xDC }
  - { offset: 0x3A71B6, size: 0x8, addend: 0x0, symName: __ZNK14llama_kv_cache16memory_breakdownEv, symObjAddr: 0x39E8, symBinAddr: 0x67494, symSize: 0x1F0 }
  - { offset: 0x3A78A1, size: 0x8, addend: 0x0, symName: __ZNK14llama_kv_cache16memory_breakdownEv, symObjAddr: 0x39E8, symBinAddr: 0x67494, symSize: 0x1F0 }
  - { offset: 0x3A8957, size: 0x8, addend: 0x0, symName: __ZN14llama_kv_cache10init_batchER18llama_batch_allocrjb, symObjAddr: 0x3C18, symBinAddr: 0x67684, symSize: 0x314 }
  - { offset: 0x3ABDFB, size: 0x8, addend: 0x0, symName: __ZNK14llama_kv_cache9find_slotERK12llama_ubatchb, symObjAddr: 0x5118, symBinAddr: 0x689C4, symSize: 0xB88 }
  - { offset: 0x3AE74B, size: 0x8, addend: 0x0, symName: __ZNSt3__16vectorI14llama_kv_cellsNS_9allocatorIS1_EEE24__emplace_back_slow_pathIJS1_EEEPS1_DpOT_, symObjAddr: 0x17888, symBinAddr: 0x792E4, symSize: 0x170 }
  - { offset: 0x3AEB4B, size: 0x8, addend: 0x0, symName: __ZZNSt3__16vectorIZN14llama_kv_cache7prepareERKNS0_I12llama_ubatchNS_9allocatorIS2_EEEEE7state_tNS3_IS8_EEE12emplace_backIJS8_EEERS8_DpOT_ENKUlvE0_clEv, symObjAddr: 0x179F8, symBinAddr: 0x79454, symSize: 0x1F8 }
  - { offset: 0x3AEB6B, size: 0x8, addend: 0x0, symName: __ZZNSt3__16vectorIZN14llama_kv_cache7prepareERKNS0_I12llama_ubatchNS_9allocatorIS2_EEEEE7state_tNS3_IS8_EEE12emplace_backIJS8_EEERS8_DpOT_ENKUlvE0_clEv, symObjAddr: 0x179F8, symBinAddr: 0x79454, symSize: 0x1F8 }
  - { offset: 0x3AF2C4, size: 0x8, addend: 0x0, symName: __ZNSt3__16vectorIZN14llama_kv_cache7prepareERKNS0_I12llama_ubatchNS_9allocatorIS2_EEEEE7state_tNS3_IS8_EEE20__throw_length_errorB9nqe220106Ev, symObjAddr: 0x17BF0, symBinAddr: 0x7964C, symSize: 0x14 }
  - { offset: 0x3AF2CF, size: 0x8, addend: 0x0, symName: __ZN14llama_kv_cache12apply_ubatchERKNS_9slot_infoERK12llama_ubatch, symObjAddr: 0x5DF4, symBinAddr: 0x6961C, symSize: 0xAF0 }
  - { offset: 0x3B0F43, size: 0x8, addend: 0x0, symName: __ZN14llama_kv_cells3setERKNSt3__16vectorIjNS0_9allocatorIjEEEERKS_, symObjAddr: 0x68E4, symBinAddr: 0x6A10C, symSize: 0x24C }
  - { offset: 0x3B0F87, size: 0x8, addend: 0x0, symName: __ZN14llama_kv_cells3setERKNSt3__16vectorIjNS0_9allocatorIjEEEERKS_, symObjAddr: 0x68E4, symBinAddr: 0x6A10C, symSize: 0x24C }
  - { offset: 0x3B169A, size: 0x8, addend: 0x0, symName: __ZZN14llama_kv_cache7prepareERKNSt3__16vectorI12llama_ubatchNS0_9allocatorIS2_EEEEEN7state_tD1Ev, symObjAddr: 0x5D24, symBinAddr: 0x6954C, symSize: 0xD0 }
  - { offset: 0x3B1F28, size: 0x8, addend: 0x0, symName: __ZNSt3__16vectorIZN14llama_kv_cache7prepareERKNS0_I12llama_ubatchNS_9allocatorIS2_EEEEE7state_tNS3_IS8_EEED1B9nqe220106Ev, symObjAddr: 0x6B30, symBinAddr: 0x6A358, symSize: 0x58 }
  - { offset: 0x3B2093, size: 0x8, addend: 0x0, symName: __ZN14llama_kv_cache9init_fullEv, symObjAddr: 0x4EE8, symBinAddr: 0x68794, symSize: 0x54 }
  - { offset: 0x3B213C, size: 0x8, addend: 0x0, symName: __ZN22llama_kv_cache_contextC2EP14llama_kv_cache, symObjAddr: 0x1399C, symBinAddr: 0x771C4, symSize: 0x178 }
  - { offset: 0x3B2619, size: 0x8, addend: 0x0, symName: __ZN14llama_kv_cache11init_updateEP13llama_contextb, symObjAddr: 0x4F3C, symBinAddr: 0x687E8, symSize: 0x140 }
  - { offset: 0x3B290F, size: 0x8, addend: 0x0, symName: __ZNK14llama_kv_cache13get_has_shiftEv, symObjAddr: 0x507C, symBinAddr: 0x68928, symSize: 0x9C }
  - { offset: 0x3B3232, size: 0x8, addend: 0x0, symName: __ZN22llama_kv_cache_contextC1EP14llama_kv_cache, symObjAddr: 0x13F14, symBinAddr: 0x7733C, symSize: 0x4 }
  - { offset: 0x3B3361, size: 0x8, addend: 0x0, symName: __ZN14llama_kv_cache6updateEP13llama_contextbRKNS_16stream_copy_infoE, symObjAddr: 0x6B88, symBinAddr: 0x6A3B0, symSize: 0x2FC }
  - { offset: 0x3B3729, size: 0x8, addend: 0x0, symName: __ZNK14llama_kv_cache17build_graph_shiftEP16llm_graph_resultP13llama_context, symObjAddr: 0x6E84, symBinAddr: 0x6A6AC, symSize: 0x37C }
  - { offset: 0x3B376D, size: 0x8, addend: 0x0, symName: __ZNK14llama_kv_cache17build_graph_shiftEP16llm_graph_resultP13llama_context, symObjAddr: 0x6E84, symBinAddr: 0x6A6AC, symSize: 0x37C }
  - { offset: 0x3B40BE, size: 0x8, addend: 0x0, symName: __ZNK14llama_kv_cache16build_rope_shiftERK13llama_cparamsP12ggml_contextP11ggml_tensorS6_S6_S6_ffj, symObjAddr: 0x118D0, symBinAddr: 0x750F8, symSize: 0x1D4 }
  - { offset: 0x3B43DF, size: 0x8, addend: 0x0, symName: __ZNK14llama_kv_cache13get_can_shiftEv, symObjAddr: 0x7200, symBinAddr: 0x6AA28, symSize: 0x38 }
  - { offset: 0x3B4409, size: 0x8, addend: 0x0, symName: __ZNK14llama_kv_cache12get_n_streamEv, symObjAddr: 0x7238, symBinAddr: 0x6AA60, symSize: 0x8 }
  - { offset: 0x3B444D, size: 0x8, addend: 0x0, symName: __ZNK14llama_kv_cache6type_kEv, symObjAddr: 0x7240, symBinAddr: 0x6AA68, symSize: 0x10 }
  - { offset: 0x3B4471, size: 0x8, addend: 0x0, symName: __ZNK14llama_kv_cache6type_kEv, symObjAddr: 0x7240, symBinAddr: 0x6AA68, symSize: 0x10 }
  - { offset: 0x3B4496, size: 0x8, addend: 0x0, symName: __ZNK14llama_kv_cache6type_vEv, symObjAddr: 0x7250, symBinAddr: 0x6AA78, symSize: 0x10 }
  - { offset: 0x3B44BA, size: 0x8, addend: 0x0, symName: __ZNK14llama_kv_cache6type_vEv, symObjAddr: 0x7250, symBinAddr: 0x6AA78, symSize: 0x10 }
  - { offset: 0x3B44DF, size: 0x8, addend: 0x0, symName: __ZNK14llama_kv_cache13get_layer_idsEv, symObjAddr: 0x7260, symBinAddr: 0x6AA88, symSize: 0x100 }
  - { offset: 0x3B4A41, size: 0x8, addend: 0x0, symName: __ZNK14llama_kv_cache13get_k_storageEi, symObjAddr: 0x7360, symBinAddr: 0x6AB88, symSize: 0xF8 }
  - { offset: 0x3B4CB5, size: 0x8, addend: 0x0, symName: __ZNK14llama_kv_cache8get_n_kvERKNS_9slot_infoE, symObjAddr: 0x7458, symBinAddr: 0x6AC80, symSize: 0xD0 }
  - { offset: 0x3B4CC0, size: 0x8, addend: 0x0, symName: __ZNK14llama_kv_cache8get_n_kvERKNS_9slot_infoE, symObjAddr: 0x7458, symBinAddr: 0x6AC80, symSize: 0xD0 }
  - { offset: 0x3B4CFF, size: 0x8, addend: 0x0, symName: __ZNK14llama_kv_cache8get_n_kvERKNS_9slot_infoE, symObjAddr: 0x7458, symBinAddr: 0x6AC80, symSize: 0xD0 }
  - { offset: 0x3B4D1D, size: 0x8, addend: 0x0, symName: __ZNK14llama_kv_cache8get_n_kvERKNS_9slot_infoE, symObjAddr: 0x7458, symBinAddr: 0x6AC80, symSize: 0xD0 }
  - { offset: 0x3B4D3A, size: 0x8, addend: 0x0, symName: __ZNK14llama_kv_cache8get_n_kvERKNS_9slot_infoE, symObjAddr: 0x7458, symBinAddr: 0x6AC80, symSize: 0xD0 }
  - { offset: 0x3B4F04, size: 0x8, addend: 0x0, symName: __ZNK14llama_kv_cache5get_kEP12ggml_contextijRKNS_9slot_infoE, symObjAddr: 0x7528, symBinAddr: 0x6AD50, symSize: 0x210 }
  - { offset: 0x3B52F1, size: 0x8, addend: 0x0, symName: __ZNK14llama_kv_cache5get_vEP12ggml_contextijRKNS_9slot_infoE, symObjAddr: 0x7738, symBinAddr: 0x6AF60, symSize: 0x2B4 }
  - { offset: 0x3B533C, size: 0x8, addend: 0x0, symName: __ZNK14llama_kv_cache5get_vEP12ggml_contextijRKNS_9slot_infoE, symObjAddr: 0x7738, symBinAddr: 0x6AF60, symSize: 0x2B4 }
  - { offset: 0x3B5769, size: 0x8, addend: 0x0, symName: __ZNK14llama_kv_cache5cpy_kEP12ggml_contextP11ggml_tensorS3_iRKNS_9slot_infoE, symObjAddr: 0x79EC, symBinAddr: 0x6B214, symSize: 0x1EC }
  - { offset: 0x3B5774, size: 0x8, addend: 0x0, symName: __ZNK14llama_kv_cache5cpy_kEP12ggml_contextP11ggml_tensorS3_iRKNS_9slot_infoE, symObjAddr: 0x79EC, symBinAddr: 0x6B214, symSize: 0x1EC }
  - { offset: 0x3B5BA4, size: 0x8, addend: 0x0, symName: __ZNK14llama_kv_cache5cpy_vEP12ggml_contextP11ggml_tensorS3_iRKNS_9slot_infoE, symObjAddr: 0x7BD8, symBinAddr: 0x6B400, symSize: 0x2C4 }
  - { offset: 0x3B5BFB, size: 0x8, addend: 0x0, symName: __ZNK14llama_kv_cache5cpy_vEP12ggml_contextP11ggml_tensorS3_iRKNS_9slot_infoE, symObjAddr: 0x7BD8, symBinAddr: 0x6B400, symSize: 0x2C4 }
  - { offset: 0x3B612A, size: 0x8, addend: 0x0, symName: __ZNK14llama_kv_cache18build_input_k_idxsEP12ggml_contextRK12llama_ubatch, symObjAddr: 0x7E9C, symBinAddr: 0x6B6C4, symSize: 0x34 }
  - { offset: 0x3B619E, size: 0x8, addend: 0x0, symName: __ZNK14llama_kv_cache18build_input_k_idxsEP12ggml_contextRK12llama_ubatch, symObjAddr: 0x7E9C, symBinAddr: 0x6B6C4, symSize: 0x34 }
  - { offset: 0x3B6209, size: 0x8, addend: 0x0, symName: __ZNK14llama_kv_cache18build_input_v_idxsEP12ggml_contextRK12llama_ubatch, symObjAddr: 0x7ED0, symBinAddr: 0x6B6F8, symSize: 0x54 }
  - { offset: 0x3B627C, size: 0x8, addend: 0x0, symName: __ZNK14llama_kv_cache17build_input_k_rotEP12ggml_context, symObjAddr: 0x7F24, symBinAddr: 0x6B74C, symSize: 0x78 }
  - { offset: 0x3B6301, size: 0x8, addend: 0x0, symName: __ZNK14llama_kv_cache17build_input_v_rotEP12ggml_context, symObjAddr: 0x7F9C, symBinAddr: 0x6B7C4, symSize: 0x5C }
  - { offset: 0x3B6391, size: 0x8, addend: 0x0, symName: __ZNK14llama_kv_cache16set_input_k_idxsEP11ggml_tensorPK12llama_ubatchRKNS_9slot_infoE, symObjAddr: 0x7FF8, symBinAddr: 0x6B820, symSize: 0x33C }
  - { offset: 0x3B6537, size: 0x8, addend: 0x0, symName: __ZNK14llama_kv_cache16set_input_v_idxsEP11ggml_tensorPK12llama_ubatchRKNS_9slot_infoE, symObjAddr: 0x8334, symBinAddr: 0x6BB5C, symSize: 0x538 }
  - { offset: 0x3B655C, size: 0x8, addend: 0x0, symName: __ZNK14llama_kv_cache16set_input_v_idxsEP11ggml_tensorPK12llama_ubatchRKNS_9slot_infoE, symObjAddr: 0x8334, symBinAddr: 0x6BB5C, symSize: 0x538 }
  - { offset: 0x3B6813, size: 0x8, addend: 0x0, symName: __ZNK14llama_kv_cache17set_input_k_shiftEP11ggml_tensor, symObjAddr: 0x886C, symBinAddr: 0x6C094, symSize: 0xF4 }
  - { offset: 0x3B6826, size: 0x8, addend: 0x0, symName: __ZNK14llama_kv_cache17set_input_k_shiftEP11ggml_tensor, symObjAddr: 0x886C, symBinAddr: 0x6C094, symSize: 0xF4 }
  - { offset: 0x3B694A, size: 0x8, addend: 0x0, symName: __ZNK14llama_kv_cache17set_input_kq_maskEP11ggml_tensorPK12llama_ubatchb, symObjAddr: 0x8960, symBinAddr: 0x6C188, symSize: 0x10C }
  - { offset: 0x3B695D, size: 0x8, addend: 0x0, symName: __ZNK14llama_kv_cache17set_input_kq_maskEP11ggml_tensorPK12llama_ubatchb, symObjAddr: 0x8960, symBinAddr: 0x6C188, symSize: 0x10C }
  - { offset: 0x3B6A44, size: 0x8, addend: 0x0, symName: __ZL22set_input_kq_mask_implItEvRK22args_set_input_kq_maskPT_b, symObjAddr: 0x8A6C, symBinAddr: 0x6C294, symSize: 0x4440 }
  - { offset: 0x3B6A57, size: 0x8, addend: 0x0, symName: __ZL22set_input_kq_mask_implItEvRK22args_set_input_kq_maskPT_b, symObjAddr: 0x8A6C, symBinAddr: 0x6C294, symSize: 0x4440 }
  - { offset: 0x3C91F3, size: 0x8, addend: 0x0, symName: __ZL22set_input_kq_mask_implIfEvRK22args_set_input_kq_maskPT_b, symObjAddr: 0xCEAC, symBinAddr: 0x706D4, symSize: 0x4438 }
  - { offset: 0x3DDBD3, size: 0x8, addend: 0x0, symName: __ZZNSt3__112__hash_tableINS_17__hash_value_typeIiNS_6vectorIjNS_9allocatorIjEEEEEENS_22__unordered_map_hasherIiNS_4pairIKiS5_EENS_4hashIiEENS_8equal_toIiEEEENS_21__unordered_map_equalIiSA_SE_SC_EENS3_ISA_EEE16__emplace_uniqueB9nqe220106IJRKNS_21piecewise_construct_tENS_5tupleIJRS9_EEENSO_IJEEEEEENS8_INS_15__hash_iteratorIPNS_11__hash_nodeIS6_PvEEEEbEEDpOT_ENKUlSP_SN_OSQ_OSR_E_clESP_SN_S12_S13_, symObjAddr: 0x17CC8, symBinAddr: 0x79724, symSize: 0x30C }
  - { offset: 0x3DE298, size: 0x8, addend: 0x0, symName: __ZZNSt3__112__hash_tableINS_17__hash_value_typeIijEENS_22__unordered_map_hasherIiNS_4pairIKijEENS_4hashIiEENS_8equal_toIiEEEENS_21__unordered_map_equalIiS6_SA_S8_EENS_9allocatorIS6_EEE16__emplace_uniqueB9nqe220106IJRKNS_21piecewise_construct_tENS_5tupleIJRS5_EEENSL_IJEEEEEENS4_INS_15__hash_iteratorIPNS_11__hash_nodeIS2_PvEEEEbEEDpOT_ENKUlSM_SK_OSN_OSO_E_clESM_SK_SZ_S10_, symObjAddr: 0x181B4, symBinAddr: 0x79C10, symSize: 0x2FC }
  - { offset: 0x3DE949, size: 0x8, addend: 0x0, symName: __ZNSt3__16vectorI14llama_kv_cellsNS_9allocatorIS1_EEE20__throw_out_of_rangeB9nqe220106Ev, symObjAddr: 0x17CB4, symBinAddr: 0x79710, symSize: 0x14 }
  - { offset: 0x3DE961, size: 0x8, addend: 0x0, symName: __ZZNSt3__112__hash_tableINS_17__hash_value_typeIiNS_6vectorIjNS_9allocatorIjEEEEEENS_22__unordered_map_hasherIiNS_4pairIKiS5_EENS_4hashIiEENS_8equal_toIiEEEENS_21__unordered_map_equalIiSA_SE_SC_EENS3_ISA_EEE16__emplace_uniqueB9nqe220106IJRKNS_21piecewise_construct_tENS_5tupleIJRS9_EEENSO_IJEEEEEENS8_INS_15__hash_iteratorIPNS_11__hash_nodeIS6_PvEEEEbEEDpOT_ENKUlSP_SN_OSQ_OSR_E_clESP_SN_S12_S13_, symObjAddr: 0x17CC8, symBinAddr: 0x79724, symSize: 0x30C }
  - { offset: 0x3DE96C, size: 0x8, addend: 0x0, symName: __ZNSt3__113unordered_mapIiNS_6vectorIjNS_9allocatorIjEEEENS_4hashIiEENS_8equal_toIiEENS2_INS_4pairIKiS4_EEEEED1B9nqe220106Ev, symObjAddr: 0x17C04, symBinAddr: 0x79660, symSize: 0x68 }
  - { offset: 0x3DED4E, size: 0x8, addend: 0x0, symName: __ZNSt3__113unordered_mapIijNS_4hashIiEENS_8equal_toIiEENS_9allocatorINS_4pairIKijEEEEED1B9nqe220106Ev, symObjAddr: 0x17C6C, symBinAddr: 0x796C8, symSize: 0x48 }
  - { offset: 0x3E135B, size: 0x8, addend: 0x0, symName: __ZNK14llama_kv_cache20set_input_pos_bucketEP11ggml_tensorPK12llama_ubatch, symObjAddr: 0x112E4, symBinAddr: 0x74B0C, symSize: 0x148 }
  - { offset: 0x3E151D, size: 0x8, addend: 0x0, symName: __ZNK14llama_kv_cache15set_input_k_rotEP11ggml_tensor, symObjAddr: 0x1142C, symBinAddr: 0x74C54, symSize: 0x220 }
  - { offset: 0x3E1766, size: 0x8, addend: 0x0, symName: __ZNK14llama_kv_cache15set_input_k_rotEP11ggml_tensor, symObjAddr: 0x1142C, symBinAddr: 0x74C54, symSize: 0x220 }
  - { offset: 0x3E1AB9, size: 0x8, addend: 0x0, symName: __ZNK14llama_kv_cache15set_input_v_rotEP11ggml_tensor, symObjAddr: 0x1164C, symBinAddr: 0x74E74, symSize: 0x220 }
  - { offset: 0x3E1ACC, size: 0x8, addend: 0x0, symName: __ZNK14llama_kv_cache15set_input_v_rotEP11ggml_tensor, symObjAddr: 0x1164C, symBinAddr: 0x74E74, symSize: 0x220 }
  - { offset: 0x3E1E1F, size: 0x8, addend: 0x0, symName: __ZNK14llama_kv_cache10total_sizeEv, symObjAddr: 0x1186C, symBinAddr: 0x75094, symSize: 0x64 }
  - { offset: 0x3E1E32, size: 0x8, addend: 0x0, symName: __ZNK14llama_kv_cache10total_sizeEv, symObjAddr: 0x1186C, symBinAddr: 0x75094, symSize: 0x64 }
  - { offset: 0x3E210F, size: 0x8, addend: 0x0, symName: __ZN23llm_graph_input_k_shift9set_inputEPK12llama_ubatch, symObjAddr: 0x11AA4, symBinAddr: 0x752CC, symSize: 0x124 }
  - { offset: 0x3E2256, size: 0x8, addend: 0x0, symName: __ZNK14llama_kv_cache11state_writeER16llama_io_write_iij, symObjAddr: 0x11BC8, symBinAddr: 0x753F0, symSize: 0x4E8 }
  - { offset: 0x3E2B5B, size: 0x8, addend: 0x0, symName: __ZNK14llama_kv_cache11state_writeER16llama_io_write_iij, symObjAddr: 0x11BC8, symBinAddr: 0x753F0, symSize: 0x4E8 }
  - { offset: 0x3E3A0E, size: 0x8, addend: 0x0, symName: __ZNK14llama_kv_cache16state_write_metaER16llama_io_write_iRKNS_13cell_ranges_tEi, symObjAddr: 0x120B0, symBinAddr: 0x758D8, symSize: 0x2A4 }
  - { offset: 0x3E41E8, size: 0x8, addend: 0x0, symName: __ZNK14llama_kv_cache16state_write_dataER16llama_io_write_iRKNS_13cell_ranges_tE, symObjAddr: 0x12354, symBinAddr: 0x75B7C, symSize: 0x34C }
  - { offset: 0x3E4999, size: 0x8, addend: 0x0, symName: __ZZNSt3__16vectorINS_4pairIjjEENS_9allocatorIS2_EEE12emplace_backIJRjjEEERS2_DpOT_ENKUlvE0_clEv, symObjAddr: 0x18644, symBinAddr: 0x7A0A0, symSize: 0xE8 }
  - { offset: 0x3E4D18, size: 0x8, addend: 0x0, symName: __ZNSt3__16vectorINS_4pairIjjEENS_9allocatorIS2_EEE20__throw_length_errorB9nqe220106Ev, symObjAddr: 0x18630, symBinAddr: 0x7A08C, symSize: 0x14 }
  - { offset: 0x3E4D30, size: 0x8, addend: 0x0, symName: __ZZNSt3__16vectorINS_4pairIjjEENS_9allocatorIS2_EEE12emplace_backIJRjjEEERS2_DpOT_ENKUlvE0_clEv, symObjAddr: 0x18644, symBinAddr: 0x7A0A0, symSize: 0xE8 }
  - { offset: 0x3E5046, size: 0x8, addend: 0x0, symName: __ZN14llama_kv_cache10state_readER15llama_io_read_iij, symObjAddr: 0x126A0, symBinAddr: 0x75EC8, symSize: 0x298 }
  - { offset: 0x3E564A, size: 0x8, addend: 0x0, symName: __ZN14llama_kv_cache15state_read_metaER15llama_io_read_ijjRNS_9slot_infoEi, symObjAddr: 0x12938, symBinAddr: 0x76160, symSize: 0x7E0 }
  - { offset: 0x3E6B07, size: 0x8, addend: 0x0, symName: __ZN14llama_kv_cache15state_read_dataER15llama_io_read_ijjRKNS_9slot_infoE, symObjAddr: 0x13118, symBinAddr: 0x76940, symSize: 0x814 }
  - { offset: 0x3E76C2, size: 0x8, addend: 0x0, symName: __ZN22llama_kv_cache_contextC2E19llama_memory_status, symObjAddr: 0x1392C, symBinAddr: 0x77154, symSize: 0x38 }
  - { offset: 0x3E76D4, size: 0x8, addend: 0x0, symName: __ZN14llama_kv_cache10state_readER15llama_io_read_iij.cold.1, symObjAddr: 0x18808, symBinAddr: 0x363AD4, symSize: 0x1C }
  - { offset: 0x3E82D7, size: 0x8, addend: 0x0, symName: __ZN22llama_kv_cache_contextC2E19llama_memory_status, symObjAddr: 0x1392C, symBinAddr: 0x77154, symSize: 0x38 }
  - { offset: 0x3E837B, size: 0x8, addend: 0x0, symName: __ZN22llama_kv_cache_contextC1E19llama_memory_status, symObjAddr: 0x13964, symBinAddr: 0x7718C, symSize: 0x38 }
  - { offset: 0x3E83A4, size: 0x8, addend: 0x0, symName: __ZN22llama_kv_cache_contextC1E19llama_memory_status, symObjAddr: 0x13964, symBinAddr: 0x7718C, symSize: 0x38 }
  - { offset: 0x3E8DA3, size: 0x8, addend: 0x0, symName: __ZN14llama_kv_cache10state_readER15llama_io_read_iij.cold.1, symObjAddr: 0x18808, symBinAddr: 0x363AD4, symSize: 0x1C }
  - { offset: 0x3E9644, size: 0x8, addend: 0x0, symName: __ZN22llama_kv_cache_contextC1EP14llama_kv_cache, symObjAddr: 0x13F14, symBinAddr: 0x7733C, symSize: 0x4 }
  - { offset: 0x3E966E, size: 0x8, addend: 0x0, symName: __ZN22llama_kv_cache_contextC1EP14llama_kv_cache, symObjAddr: 0x13F14, symBinAddr: 0x7733C, symSize: 0x4 }
  - { offset: 0x3E9688, size: 0x8, addend: 0x0, symName: __ZN22llama_kv_cache_contextC2EP14llama_kv_cacheP13llama_contextbNS0_16stream_copy_infoE, symObjAddr: 0x13F18, symBinAddr: 0x77340, symSize: 0x8C }
  - { offset: 0x3E9827, size: 0x8, addend: 0x0, symName: __ZN22llama_kv_cache_contextC1EP14llama_kv_cacheP13llama_contextbNS0_16stream_copy_infoE, symObjAddr: 0x13FA4, symBinAddr: 0x773CC, symSize: 0x8C }
  - { offset: 0x3E99FE, size: 0x8, addend: 0x0, symName: __ZN22llama_kv_cache_contextC2EP14llama_kv_cacheNSt3__16vectorINS0_9slot_infoENS2_9allocatorIS4_EEEENS3_I12llama_ubatchNS5_IS8_EEEE, symObjAddr: 0x14030, symBinAddr: 0x77458, symSize: 0x6C }
  - { offset: 0x3E9B4E, size: 0x8, addend: 0x0, symName: __ZN22llama_kv_cache_contextC1EP14llama_kv_cacheNSt3__16vectorINS0_9slot_infoENS2_9allocatorIS4_EEEENS3_I12llama_ubatchNS5_IS8_EEEE, symObjAddr: 0x1409C, symBinAddr: 0x774C4, symSize: 0x6C }
  - { offset: 0x3E9B87, size: 0x8, addend: 0x0, symName: __ZN22llama_kv_cache_contextC1EP14llama_kv_cacheNSt3__16vectorINS0_9slot_infoENS2_9allocatorIS4_EEEENS3_I12llama_ubatchNS5_IS8_EEEE, symObjAddr: 0x1409C, symBinAddr: 0x774C4, symSize: 0x6C }
  - { offset: 0x3E9CF2, size: 0x8, addend: 0x0, symName: __ZN22llama_kv_cache_contextD2Ev, symObjAddr: 0x14108, symBinAddr: 0x77530, symSize: 0x160 }
  - { offset: 0x3EA670, size: 0x8, addend: 0x0, symName: __ZN22llama_kv_cache_contextD1Ev, symObjAddr: 0x14268, symBinAddr: 0x77690, symSize: 0x4 }
  - { offset: 0x3EA693, size: 0x8, addend: 0x0, symName: __ZN22llama_kv_cache_contextD1Ev, symObjAddr: 0x14268, symBinAddr: 0x77690, symSize: 0x4 }
  - { offset: 0x3EA6C7, size: 0x8, addend: 0x0, symName: __ZN22llama_kv_cache_contextD0Ev, symObjAddr: 0x1426C, symBinAddr: 0x77694, symSize: 0x14 }
  - { offset: 0x3EA725, size: 0x8, addend: 0x0, symName: __ZN22llama_kv_cache_context4nextEv, symObjAddr: 0x14280, symBinAddr: 0x776A8, symSize: 0x38 }
  - { offset: 0x3EA802, size: 0x8, addend: 0x0, symName: __ZN22llama_kv_cache_context5applyEv, symObjAddr: 0x142B8, symBinAddr: 0x776E0, symSize: 0x140 }
  - { offset: 0x3EAB24, size: 0x8, addend: 0x0, symName: __ZNK22llama_kv_cache_context10get_statusEv, symObjAddr: 0x143F8, symBinAddr: 0x77820, symSize: 0x8 }
  - { offset: 0x3EAB70, size: 0x8, addend: 0x0, symName: __ZNK22llama_kv_cache_context10get_ubatchEv, symObjAddr: 0x14400, symBinAddr: 0x77828, symSize: 0x14 }
  - { offset: 0x3EABC1, size: 0x8, addend: 0x0, symName: __ZNK22llama_kv_cache_context8get_n_kvEv, symObjAddr: 0x14414, symBinAddr: 0x7783C, symSize: 0x8 }
  - { offset: 0x3EAC04, size: 0x8, addend: 0x0, symName: __ZNK22llama_kv_cache_context6type_kEv, symObjAddr: 0x1441C, symBinAddr: 0x77844, symSize: 0x14 }
  - { offset: 0x3EAC8D, size: 0x8, addend: 0x0, symName: __ZNK22llama_kv_cache_context6type_vEv, symObjAddr: 0x14430, symBinAddr: 0x77858, symSize: 0x14 }
  - { offset: 0x3EAD1F, size: 0x8, addend: 0x0, symName: __ZNK22llama_kv_cache_context5get_kEP12ggml_contexti, symObjAddr: 0x14444, symBinAddr: 0x7786C, symSize: 0x1C }
  - { offset: 0x3EADA9, size: 0x8, addend: 0x0, symName: __ZNK22llama_kv_cache_context5get_vEP12ggml_contexti, symObjAddr: 0x14460, symBinAddr: 0x77888, symSize: 0x1C }
  - { offset: 0x3EAE33, size: 0x8, addend: 0x0, symName: __ZNK22llama_kv_cache_context5cpy_kEP12ggml_contextP11ggml_tensorS3_i, symObjAddr: 0x1447C, symBinAddr: 0x778A4, symSize: 0x8 }
  - { offset: 0x3EAEC0, size: 0x8, addend: 0x0, symName: __ZNK22llama_kv_cache_context5cpy_vEP12ggml_contextP11ggml_tensorS3_i, symObjAddr: 0x14484, symBinAddr: 0x778AC, symSize: 0x8 }
  - { offset: 0x3EAF96, size: 0x8, addend: 0x0, symName: __ZNK22llama_kv_cache_context18build_input_k_idxsEP12ggml_contextRK12llama_ubatch, symObjAddr: 0x1448C, symBinAddr: 0x778B4, symSize: 0x34 }
  - { offset: 0x3EB082, size: 0x8, addend: 0x0, symName: __ZNK22llama_kv_cache_context18build_input_v_idxsEP12ggml_contextRK12llama_ubatch, symObjAddr: 0x144C0, symBinAddr: 0x778E8, symSize: 0x58 }
  - { offset: 0x3EB133, size: 0x8, addend: 0x0, symName: __ZNK22llama_kv_cache_context17build_input_k_rotEP12ggml_context, symObjAddr: 0x14518, symBinAddr: 0x77940, symSize: 0x7C }
  - { offset: 0x3EB226, size: 0x8, addend: 0x0, symName: __ZNK22llama_kv_cache_context17build_input_v_rotEP12ggml_context, symObjAddr: 0x14594, symBinAddr: 0x779BC, symSize: 0x60 }
  - { offset: 0x3EB2E4, size: 0x8, addend: 0x0, symName: __ZNK22llama_kv_cache_context17set_input_k_shiftEP11ggml_tensor, symObjAddr: 0x145F4, symBinAddr: 0x77A1C, symSize: 0xF4 }
  - { offset: 0x3EB422, size: 0x8, addend: 0x0, symName: __ZNK22llama_kv_cache_context16set_input_k_idxsEP11ggml_tensorPK12llama_ubatch, symObjAddr: 0x146E8, symBinAddr: 0x77B10, symSize: 0x18 }
  - { offset: 0x3EB435, size: 0x8, addend: 0x0, symName: __ZNK22llama_kv_cache_context16set_input_k_idxsEP11ggml_tensorPK12llama_ubatch, symObjAddr: 0x146E8, symBinAddr: 0x77B10, symSize: 0x18 }
  - { offset: 0x3EB4BF, size: 0x8, addend: 0x0, symName: __ZNK22llama_kv_cache_context16set_input_v_idxsEP11ggml_tensorPK12llama_ubatch, symObjAddr: 0x14700, symBinAddr: 0x77B28, symSize: 0x18 }
  - { offset: 0x3EB549, size: 0x8, addend: 0x0, symName: __ZNK22llama_kv_cache_context17set_input_kq_maskEP11ggml_tensorPK12llama_ubatchb, symObjAddr: 0x14718, symBinAddr: 0x77B40, symSize: 0x8 }
  - { offset: 0x3EB5C6, size: 0x8, addend: 0x0, symName: __ZNK22llama_kv_cache_context20set_input_pos_bucketEP11ggml_tensorPK12llama_ubatch, symObjAddr: 0x14720, symBinAddr: 0x77B48, symSize: 0x8 }
  - { offset: 0x3EB629, size: 0x8, addend: 0x0, symName: __ZNK22llama_kv_cache_context15set_input_k_rotEP11ggml_tensor, symObjAddr: 0x14728, symBinAddr: 0x77B50, symSize: 0x8 }
  - { offset: 0x3EB677, size: 0x8, addend: 0x0, symName: __ZNK22llama_kv_cache_context15set_input_v_rotEP11ggml_tensor, symObjAddr: 0x14730, symBinAddr: 0x77B58, symSize: 0x8 }
  - { offset: 0x3EB6C5, size: 0x8, addend: 0x0, symName: __ZN14llama_kv_cacheD1Ev, symObjAddr: 0x14738, symBinAddr: 0x77B60, symSize: 0x4 }
  - { offset: 0x3EB6E8, size: 0x8, addend: 0x0, symName: __ZN14llama_kv_cacheD1Ev, symObjAddr: 0x14738, symBinAddr: 0x77B60, symSize: 0x4 }
  - { offset: 0x3EB6FB, size: 0x8, addend: 0x0, symName: __ZN14llama_kv_cacheD2Ev, symObjAddr: 0x15B88, symBinAddr: 0x781D0, symSize: 0x1C8 }
  - { offset: 0x3EC904, size: 0x8, addend: 0x0, symName: __ZN14llama_kv_cacheD0Ev, symObjAddr: 0x1473C, symBinAddr: 0x77B64, symSize: 0x14 }
  - { offset: 0x3EC95E, size: 0x8, addend: 0x0, symName: __ZN23llm_graph_input_k_shiftD1Ev, symObjAddr: 0x14750, symBinAddr: 0x77B78, symSize: 0x4 }
  - { offset: 0x3EC98B, size: 0x8, addend: 0x0, symName: __ZN23llm_graph_input_k_shiftD0Ev, symObjAddr: 0x14754, symBinAddr: 0x77B7C, symSize: 0x4 }
  - { offset: 0x3EC9B4, size: 0x8, addend: 0x0, symName: __ZNSt3__16vectorI17llama_kv_cell_extNS_9allocatorIS1_EEE20__throw_length_errorB9nqe220106Ev, symObjAddr: 0x14B8C, symBinAddr: 0x77DC8, symSize: 0x14 }
  - { offset: 0x3EC9E1, size: 0x8, addend: 0x0, symName: __ZNSt3__16__treeINS_12__value_typeIP24ggml_backend_buffer_typeNS_10unique_ptrI12ggml_context20ggml_context_deleterEEEENS_19__map_value_compareIS3_NS_4pairIKS3_S7_EEZN14llama_kv_cacheC1ERK11llama_modelRK13llama_hparams9ggml_typeSK_bbbjjjj14llama_swa_typeP14llama_memory_iRKNS_8functionIFbiEEERKNSO_IFiiEEESW_E28ggml_backend_buft_comparatorEENS_9allocatorISC_EEE12__find_equalB9nqe220106IS3_EENSA_IPNS_15__tree_end_nodeIPNS_16__tree_node_baseIPvEEEERS17_EERKT_, symObjAddr: 0x14BB4, symBinAddr: 0x77DDC, symSize: 0xBC }
  - { offset: 0x3EDD4F, size: 0x8, addend: 0x0, symName: __ZNSt3__120__shared_ptr_emplaceINS_6vectorI14llama_kv_cellsNS_9allocatorIS2_EEEENS3_IS5_EEED1Ev, symObjAddr: 0x15D50, symBinAddr: 0x78398, symSize: 0x14 }
  - { offset: 0x3EDD71, size: 0x8, addend: 0x0, symName: __ZNSt3__120__shared_ptr_emplaceINS_6vectorI14llama_kv_cellsNS_9allocatorIS2_EEEENS3_IS5_EEED1Ev, symObjAddr: 0x15D50, symBinAddr: 0x78398, symSize: 0x14 }
  - { offset: 0x3EDDAB, size: 0x8, addend: 0x0, symName: __ZNSt3__120__shared_ptr_emplaceINS_6vectorI14llama_kv_cellsNS_9allocatorIS2_EEEENS3_IS5_EEED0Ev, symObjAddr: 0x15D64, symBinAddr: 0x783AC, symSize: 0x24 }
  - { offset: 0x3EDE99, size: 0x8, addend: 0x0, symName: __ZNSt3__120__shared_ptr_emplaceINS_6vectorI14llama_kv_cellsNS_9allocatorIS2_EEEENS3_IS5_EEE16__on_zero_sharedEv, symObjAddr: 0x15D88, symBinAddr: 0x783D0, symSize: 0x6C }
  - { offset: 0x3EE109, size: 0x8, addend: 0x0, symName: __ZNSt3__120__shared_ptr_emplaceINS_6vectorI14llama_kv_cellsNS_9allocatorIS2_EEEENS3_IS5_EEE21__on_zero_shared_weakEv, symObjAddr: 0x15DF4, symBinAddr: 0x7843C, symSize: 0x4 }
  - { offset: 0x3EE13B, size: 0x8, addend: 0x0, symName: __ZNSt3__120__shared_ptr_emplaceINS_6vectorI14llama_kv_cellsNS_9allocatorIS2_EEEENS3_IS5_EEE21__on_zero_shared_weakEv, symObjAddr: 0x15DF4, symBinAddr: 0x7843C, symSize: 0x4 }
  - { offset: 0x3EE15D, size: 0x8, addend: 0x0, symName: __ZNSt3__120__shared_ptr_emplaceINS_6vectorI14llama_kv_cellsNS_9allocatorIS2_EEEENS3_IS5_EEE21__on_zero_shared_weakEv, symObjAddr: 0x15DF4, symBinAddr: 0x7843C, symSize: 0x4 }
  - { offset: 0x3EE180, size: 0x8, addend: 0x0, symName: __ZNSt3__120__shared_ptr_emplaceINS_6vectorI14llama_kv_cellsNS_9allocatorIS2_EEEENS3_IS5_EEE21__on_zero_shared_weakEv, symObjAddr: 0x15DF4, symBinAddr: 0x7843C, symSize: 0x4 }
  - { offset: 0x3EED18, size: 0x8, addend: 0x0, symName: __ZNSt3__16vectorIN14llama_kv_cache8kv_layerENS_9allocatorIS2_EEE20__throw_length_errorB9nqe220106Ev, symObjAddr: 0x16AB4, symBinAddr: 0x78C20, symSize: 0x14 }
  - { offset: 0x3EED3B, size: 0x8, addend: 0x0, symName: __ZNSt3__114__split_bufferIN14llama_kv_cache8kv_layerERNS_9allocatorIS2_EEED1Ev, symObjAddr: 0x16A40, symBinAddr: 0x78BAC, symSize: 0x74 }
  - { offset: 0x3EF2C8, size: 0x8, addend: 0x0, symName: __ZZNSt3__112__hash_tableINS_17__hash_value_typeIxNS_6vectorIfNS_9allocatorIfEEEEEENS_22__unordered_map_hasherIxNS_4pairIKxS5_EENS_4hashIxEENS_8equal_toIxEEEENS_21__unordered_map_equalIxSA_SE_SC_EENS3_ISA_EEE16__emplace_uniqueB9nqe220106IJRKNS_21piecewise_construct_tENS_5tupleIJRS9_EEENSO_IJEEEEEENS8_INS_15__hash_iteratorIPNS_11__hash_nodeIS6_PvEEEEbEEDpOT_ENKUlSP_SN_OSQ_OSR_E_clESP_SN_S12_S13_, symObjAddr: 0x16DA0, symBinAddr: 0x78DFC, symSize: 0x308 }
  - { offset: 0x3EF80D, size: 0x8, addend: 0x0, symName: __ZNSt3__112__hash_tableINS_17__hash_value_typeIxNS_6vectorIfNS_9allocatorIfEEEEEENS_22__unordered_map_hasherIxNS_4pairIKxS5_EENS_4hashIxEENS_8equal_toIxEEEENS_21__unordered_map_equalIxSA_SE_SC_EENS3_ISA_EEE11__do_rehashILb1EEEvm, symObjAddr: 0x17108, symBinAddr: 0x79164, symSize: 0x180 }
  - { offset: 0x3EFA7E, size: 0x8, addend: 0x0, symName: __ZNSt3__110unique_ptrINS_11__hash_nodeINS_17__hash_value_typeIxNS_6vectorIfNS_9allocatorIfEEEEEEPvEENS_22__hash_node_destructorINS4_IS9_EEEEED1B9nqe220106Ev, symObjAddr: 0x170A8, symBinAddr: 0x79104, symSize: 0x60 }
  - { offset: 0x3F02C4, size: 0x8, addend: 0x0, symName: __ZNSt3__16vectorIZN14llama_kv_cache7prepareERKNS0_I12llama_ubatchNS_9allocatorIS2_EEEEE7state_tNS3_IS8_EEE20__throw_length_errorB9nqe220106Ev, symObjAddr: 0x17BF0, symBinAddr: 0x7964C, symSize: 0x14 }
  - { offset: 0x3F02DC, size: 0x8, addend: 0x0, symName: __ZNSt3__113unordered_mapIiNS_6vectorIjNS_9allocatorIjEEEENS_4hashIiEENS_8equal_toIiEENS2_INS_4pairIKiS4_EEEEED1B9nqe220106Ev, symObjAddr: 0x17C04, symBinAddr: 0x79660, symSize: 0x68 }
  - { offset: 0x3F0898, size: 0x8, addend: 0x0, symName: __ZNSt3__112__hash_tableINS_17__hash_value_typeIiNS_6vectorIjNS_9allocatorIjEEEEEENS_22__unordered_map_hasherIiNS_4pairIKiS5_EENS_4hashIiEENS_8equal_toIiEEEENS_21__unordered_map_equalIiSA_SE_SC_EENS3_ISA_EEE11__do_rehashILb1EEEvm, symObjAddr: 0x18034, symBinAddr: 0x79A90, symSize: 0x180 }
  - { offset: 0x3F0AF4, size: 0x8, addend: 0x0, symName: __ZZNSt3__112__hash_tableINS_17__hash_value_typeIijEENS_22__unordered_map_hasherIiNS_4pairIKijEENS_4hashIiEENS_8equal_toIiEEEENS_21__unordered_map_equalIiS6_SA_S8_EENS_9allocatorIS6_EEE16__emplace_uniqueB9nqe220106IJRKNS_21piecewise_construct_tENS_5tupleIJRS5_EEENSL_IJEEEEEENS4_INS_15__hash_iteratorIPNS_11__hash_nodeIS2_PvEEEEbEEDpOT_ENKUlSM_SK_OSN_OSO_E_clESM_SK_SZ_S10_, symObjAddr: 0x181B4, symBinAddr: 0x79C10, symSize: 0x2FC }
  - { offset: 0x3F0B09, size: 0x8, addend: 0x0, symName: __ZNSt3__110unique_ptrINS_11__hash_nodeINS_17__hash_value_typeIiNS_6vectorIjNS_9allocatorIjEEEEEEPvEENS_22__hash_node_destructorINS4_IS9_EEEEED1B9nqe220106Ev, symObjAddr: 0x17FD4, symBinAddr: 0x79A30, symSize: 0x60 }
  - { offset: 0x3F1348, size: 0x8, addend: 0x0, symName: __ZNSt3__112__hash_tableINS_17__hash_value_typeIijEENS_22__unordered_map_hasherIiNS_4pairIKijEENS_4hashIiEENS_8equal_toIiEEEENS_21__unordered_map_equalIiS6_SA_S8_EENS_9allocatorIS6_EEE11__do_rehashILb1EEEvm, symObjAddr: 0x184B0, symBinAddr: 0x79F0C, symSize: 0x180 }
  - { offset: 0x3F15A4, size: 0x8, addend: 0x0, symName: __ZNSt3__16vectorINS_4pairIjjEENS_9allocatorIS2_EEE20__throw_length_errorB9nqe220106Ev, symObjAddr: 0x18630, symBinAddr: 0x7A08C, symSize: 0x14 }
  - { offset: 0x3F35B8, size: 0x8, addend: 0x0, symName: __ZTV24llama_memory_hybrid_iswa, symObjAddr: 0x2A18, symBinAddr: 0x3FBDC0, symSize: 0x0 }
  - { offset: 0x41A91B, size: 0x8, addend: 0x0, symName: __ZNSt3__111make_uniqueB9nqe220106I32llama_memory_hybrid_iswa_contextJP24llama_memory_hybrid_iswaNS_6vectorIN14llama_kv_cache9slot_infoENS_9allocatorIS6_EEEES9_NS4_I12llama_ubatchNS7_ISA_EEEEELi0EEENS_10unique_ptrIT_NS_14default_deleteISE_EEEEDpOT0_, symObjAddr: 0xB74, symBinAddr: 0x7AC98, symSize: 0x264 }
  - { offset: 0x424413, size: 0x8, addend: 0x0, symName: __ZTV32llama_memory_hybrid_iswa_context, symObjAddr: 0x2AB0, symBinAddr: 0x3FBE58, symSize: 0x0 }
  - { offset: 0x424D52, size: 0x8, addend: 0x0, symName: '__ZTVNSt3__110__function6__funcIZN24llama_memory_hybrid_iswaC1ERK11llama_model9ggml_typeS6_bbjjjS6_S6_jjjbbRKNS_8functionIFbiEEESB_E3$_0S8_EE', symObjAddr: 0x2B40, symBinAddr: 0x3FBEC8, symSize: 0x0 }
  - { offset: 0x424D60, size: 0x8, addend: 0x0, symName: __ZN24llama_memory_hybrid_iswaC1ERK11llama_model9ggml_typeS3_bbjjjS3_S3_jjjbbRKNSt3__18functionIFbiEEES9_, symObjAddr: 0x3A8, symBinAddr: 0x7A530, symSize: 0x14 }
  - { offset: 0x424F51, size: 0x8, addend: 0x0, symName: '__ZTVNSt3__110__function6__funcIZN24llama_memory_hybrid_iswaC1ERK11llama_model9ggml_typeS6_bbjjjS6_S6_jjjbbRKNS_8functionIFbiEEESB_E3$_1S8_EE', symObjAddr: 0x2BD0, symBinAddr: 0x3FBF48, symSize: 0x0 }
  - { offset: 0x425629, size: 0x8, addend: 0x0, symName: __ZN24llama_memory_hybrid_iswaC2ERK11llama_model9ggml_typeS3_bbjjjS3_S3_jjjbbRKNSt3__18functionIFbiEEES9_, symObjAddr: 0x0, symBinAddr: 0x7A188, symSize: 0x3A8 }
  - { offset: 0x426DBE, size: 0x8, addend: 0x0, symName: __ZN24llama_memory_hybrid_iswa10init_batchER18llama_batch_allocrjb, symObjAddr: 0x3BC, symBinAddr: 0x7A544, symSize: 0x754 }
  - { offset: 0x429289, size: 0x8, addend: 0x0, symName: __ZN32llama_memory_hybrid_iswa_contextC2EP24llama_memory_hybrid_iswaNSt3__16vectorIN14llama_kv_cache9slot_infoENS2_9allocatorIS5_EEEES8_NS3_I12llama_ubatchNS6_IS9_EEEE, symObjAddr: 0x1844, symBinAddr: 0x7B7CC, symSize: 0x5BC }
  - { offset: 0x42ACD8, size: 0x8, addend: 0x0, symName: __ZN24llama_memory_hybrid_iswa9init_fullEv, symObjAddr: 0xF34, symBinAddr: 0x7AEFC, symSize: 0x54 }
  - { offset: 0x42AD7F, size: 0x8, addend: 0x0, symName: __ZN32llama_memory_hybrid_iswa_contextC2EP24llama_memory_hybrid_iswa, symObjAddr: 0x15DC, symBinAddr: 0x7B564, symSize: 0x120 }
  - { offset: 0x42B030, size: 0x8, addend: 0x0, symName: __ZN24llama_memory_hybrid_iswa11init_updateEP13llama_contextb, symObjAddr: 0xF88, symBinAddr: 0x7AF50, symSize: 0x6C }
  - { offset: 0x42B114, size: 0x8, addend: 0x0, symName: __ZN32llama_memory_hybrid_iswa_contextC2EP24llama_memory_hybrid_iswaP13llama_contextb, symObjAddr: 0x1700, symBinAddr: 0x7B688, symSize: 0x140 }
  - { offset: 0x42B3BA, size: 0x8, addend: 0x0, symName: __ZNK24llama_memory_hybrid_iswa13get_can_shiftEv, symObjAddr: 0xFF4, symBinAddr: 0x7AFBC, symSize: 0x10 }
  - { offset: 0x42B3E5, size: 0x8, addend: 0x0, symName: __ZNK24llama_memory_hybrid_iswa13get_can_shiftEv, symObjAddr: 0xFF4, symBinAddr: 0x7AFBC, symSize: 0x10 }
  - { offset: 0x42B40D, size: 0x8, addend: 0x0, symName: __ZN24llama_memory_hybrid_iswa5clearEb, symObjAddr: 0x1004, symBinAddr: 0x7AFCC, symSize: 0x40 }
  - { offset: 0x42B4A1, size: 0x8, addend: 0x0, symName: __ZN24llama_memory_hybrid_iswa6seq_rmEiii, symObjAddr: 0x1044, symBinAddr: 0x7B00C, symSize: 0x6C }
  - { offset: 0x42B561, size: 0x8, addend: 0x0, symName: __ZN24llama_memory_hybrid_iswa6seq_cpEiiii, symObjAddr: 0x10B0, symBinAddr: 0x7B078, symSize: 0x68 }
  - { offset: 0x42B637, size: 0x8, addend: 0x0, symName: __ZN24llama_memory_hybrid_iswa8seq_keepEi, symObjAddr: 0x1118, symBinAddr: 0x7B0E0, symSize: 0x40 }
  - { offset: 0x42B6CB, size: 0x8, addend: 0x0, symName: __ZN24llama_memory_hybrid_iswa7seq_addEiiii, symObjAddr: 0x1158, symBinAddr: 0x7B120, symSize: 0x68 }
  - { offset: 0x42B7A1, size: 0x8, addend: 0x0, symName: __ZN24llama_memory_hybrid_iswa7seq_divEiiii, symObjAddr: 0x11C0, symBinAddr: 0x7B188, symSize: 0x68 }
  - { offset: 0x42B877, size: 0x8, addend: 0x0, symName: __ZNK24llama_memory_hybrid_iswa11seq_pos_minEi, symObjAddr: 0x1228, symBinAddr: 0x7B1F0, symSize: 0x58 }
  - { offset: 0x42B912, size: 0x8, addend: 0x0, symName: __ZNK24llama_memory_hybrid_iswa11seq_pos_maxEi, symObjAddr: 0x1280, symBinAddr: 0x7B248, symSize: 0x58 }
  - { offset: 0x42C181, size: 0x8, addend: 0x0, symName: __ZNK24llama_memory_hybrid_iswa16memory_breakdownEv, symObjAddr: 0x12D8, symBinAddr: 0x7B2A0, symSize: 0x1BC }
  - { offset: 0x42C920, size: 0x8, addend: 0x0, symName: __ZNK24llama_memory_hybrid_iswa11state_writeER16llama_io_write_iij, symObjAddr: 0x14D4, symBinAddr: 0x7B45C, symSize: 0x58 }
  - { offset: 0x42C9E0, size: 0x8, addend: 0x0, symName: __ZN24llama_memory_hybrid_iswa10state_readER15llama_io_read_iij, symObjAddr: 0x152C, symBinAddr: 0x7B4B4, symSize: 0x58 }
  - { offset: 0x42CAB6, size: 0x8, addend: 0x0, symName: __ZNK24llama_memory_hybrid_iswa12get_mem_attnEv, symObjAddr: 0x1584, symBinAddr: 0x7B50C, symSize: 0x8 }
  - { offset: 0x42CADA, size: 0x8, addend: 0x0, symName: __ZNK24llama_memory_hybrid_iswa12get_mem_attnEv, symObjAddr: 0x1584, symBinAddr: 0x7B50C, symSize: 0x8 }
  - { offset: 0x42CB0C, size: 0x8, addend: 0x0, symName: __ZNK24llama_memory_hybrid_iswa12get_mem_recrEv, symObjAddr: 0x158C, symBinAddr: 0x7B514, symSize: 0x8 }
  - { offset: 0x42CB30, size: 0x8, addend: 0x0, symName: __ZNK24llama_memory_hybrid_iswa12get_mem_recrEv, symObjAddr: 0x158C, symBinAddr: 0x7B514, symSize: 0x8 }
  - { offset: 0x42CB4C, size: 0x8, addend: 0x0, symName: __ZN32llama_memory_hybrid_iswa_contextC2E19llama_memory_status, symObjAddr: 0x1594, symBinAddr: 0x7B51C, symSize: 0x24 }
  - { offset: 0x42CBAF, size: 0x8, addend: 0x0, symName: __ZN32llama_memory_hybrid_iswa_contextC1E19llama_memory_status, symObjAddr: 0x15B8, symBinAddr: 0x7B540, symSize: 0x24 }
  - { offset: 0x42CBD8, size: 0x8, addend: 0x0, symName: __ZN32llama_memory_hybrid_iswa_contextC1E19llama_memory_status, symObjAddr: 0x15B8, symBinAddr: 0x7B540, symSize: 0x24 }
  - { offset: 0x42CD2F, size: 0x8, addend: 0x0, symName: __ZN32llama_memory_hybrid_iswa_contextC1EP24llama_memory_hybrid_iswa, symObjAddr: 0x16FC, symBinAddr: 0x7B684, symSize: 0x4 }
  - { offset: 0x42CD59, size: 0x8, addend: 0x0, symName: __ZN32llama_memory_hybrid_iswa_contextC1EP24llama_memory_hybrid_iswa, symObjAddr: 0x16FC, symBinAddr: 0x7B684, symSize: 0x4 }
  - { offset: 0x42CD73, size: 0x8, addend: 0x0, symName: __ZN32llama_memory_hybrid_iswa_contextC1EP24llama_memory_hybrid_iswaP13llama_contextb, symObjAddr: 0x1840, symBinAddr: 0x7B7C8, symSize: 0x4 }
  - { offset: 0x42CDB0, size: 0x8, addend: 0x0, symName: __ZN32llama_memory_hybrid_iswa_contextC1EP24llama_memory_hybrid_iswaP13llama_contextb, symObjAddr: 0x1840, symBinAddr: 0x7B7C8, symSize: 0x4 }
  - { offset: 0x42D2D0, size: 0x8, addend: 0x0, symName: __ZN32llama_memory_hybrid_iswa_contextC1EP24llama_memory_hybrid_iswaNSt3__16vectorIN14llama_kv_cache9slot_infoENS2_9allocatorIS5_EEEES8_NS3_I12llama_ubatchNS6_IS9_EEEE, symObjAddr: 0x1E00, symBinAddr: 0x7BD88, symSize: 0x4 }
  - { offset: 0x42D312, size: 0x8, addend: 0x0, symName: __ZN32llama_memory_hybrid_iswa_contextC1EP24llama_memory_hybrid_iswaNSt3__16vectorIN14llama_kv_cache9slot_infoENS2_9allocatorIS5_EEEES8_NS3_I12llama_ubatchNS6_IS9_EEEE, symObjAddr: 0x1E00, symBinAddr: 0x7BD88, symSize: 0x4 }
  - { offset: 0x42D341, size: 0x8, addend: 0x0, symName: __ZN32llama_memory_hybrid_iswa_context4nextEv, symObjAddr: 0x1E04, symBinAddr: 0x7BD8C, symSize: 0x70 }
  - { offset: 0x42D3DC, size: 0x8, addend: 0x0, symName: __ZN32llama_memory_hybrid_iswa_context5applyEv, symObjAddr: 0x1E74, symBinAddr: 0x7BDFC, symSize: 0x44 }
  - { offset: 0x42D46C, size: 0x8, addend: 0x0, symName: __ZNK32llama_memory_hybrid_iswa_context10get_statusEv, symObjAddr: 0x1EB8, symBinAddr: 0x7BE40, symSize: 0x8 }
  - { offset: 0x42D4B8, size: 0x8, addend: 0x0, symName: __ZNK32llama_memory_hybrid_iswa_context10get_ubatchEv, symObjAddr: 0x1EC0, symBinAddr: 0x7BE48, symSize: 0x10 }
  - { offset: 0x42D51E, size: 0x8, addend: 0x0, symName: __ZNK32llama_memory_hybrid_iswa_context8get_attnEv, symObjAddr: 0x1ED0, symBinAddr: 0x7BE58, symSize: 0x8 }
  - { offset: 0x42D54A, size: 0x8, addend: 0x0, symName: __ZNK32llama_memory_hybrid_iswa_context8get_attnEv, symObjAddr: 0x1ED0, symBinAddr: 0x7BE58, symSize: 0x8 }
  - { offset: 0x42D567, size: 0x8, addend: 0x0, symName: __ZNK32llama_memory_hybrid_iswa_context8get_recrEv, symObjAddr: 0x1ED8, symBinAddr: 0x7BE60, symSize: 0x8 }
  - { offset: 0x42D593, size: 0x8, addend: 0x0, symName: __ZNK32llama_memory_hybrid_iswa_context8get_recrEv, symObjAddr: 0x1ED8, symBinAddr: 0x7BE60, symSize: 0x8 }
  - { offset: 0x42D65E, size: 0x8, addend: 0x0, symName: __ZN24llama_memory_hybrid_iswaD1Ev, symObjAddr: 0x1EE0, symBinAddr: 0x7BE68, symSize: 0x5C }
  - { offset: 0x42D7F6, size: 0x8, addend: 0x0, symName: __ZN24llama_memory_hybrid_iswaD0Ev, symObjAddr: 0x1F3C, symBinAddr: 0x7BEC4, symSize: 0x5C }
  - { offset: 0x42D9B3, size: 0x8, addend: 0x0, symName: __ZN32llama_memory_hybrid_iswa_contextD1Ev, symObjAddr: 0x1F98, symBinAddr: 0x7BF20, symSize: 0xD4 }
  - { offset: 0x42DD61, size: 0x8, addend: 0x0, symName: __ZN32llama_memory_hybrid_iswa_contextD0Ev, symObjAddr: 0x206C, symBinAddr: 0x7BFF4, symSize: 0xD4 }
  - { offset: 0x42E116, size: 0x8, addend: 0x0, symName: '__ZNSt3__110__function6__funcIZN24llama_memory_hybrid_iswaC1ERK11llama_model9ggml_typeS6_bbjjjS6_S6_jjjbbRKNS_8functionIFbiEEESB_E3$_0S8_ED1Ev', symObjAddr: 0x2140, symBinAddr: 0x7C0C8, symSize: 0x4 }
  - { offset: 0x42E145, size: 0x8, addend: 0x0, symName: '__ZNSt3__110__function6__funcIZN24llama_memory_hybrid_iswaC1ERK11llama_model9ggml_typeS6_bbjjjS6_S6_jjjbbRKNS_8functionIFbiEEESB_E3$_0S8_ED0Ev', symObjAddr: 0x2144, symBinAddr: 0x7C0CC, symSize: 0x4 }
  - { offset: 0x42E1BA, size: 0x8, addend: 0x0, symName: '__ZNKSt3__110__function6__funcIZN24llama_memory_hybrid_iswaC1ERK11llama_model9ggml_typeS6_bbjjjS6_S6_jjjbbRKNS_8functionIFbiEEESB_E3$_0S8_E7__cloneEv', symObjAddr: 0x2148, symBinAddr: 0x7C0D0, symSize: 0x34 }
  - { offset: 0x42E219, size: 0x8, addend: 0x0, symName: '__ZNKSt3__110__function6__funcIZN24llama_memory_hybrid_iswaC1ERK11llama_model9ggml_typeS6_bbjjjS6_S6_jjjbbRKNS_8functionIFbiEEESB_E3$_0S8_E7__cloneEPNS0_6__baseIS8_EE', symObjAddr: 0x217C, symBinAddr: 0x7C104, symSize: 0x14 }
  - { offset: 0x42E284, size: 0x8, addend: 0x0, symName: '__ZNSt3__110__function6__funcIZN24llama_memory_hybrid_iswaC1ERK11llama_model9ggml_typeS6_bbjjjS6_S6_jjjbbRKNS_8functionIFbiEEESB_E3$_0S8_E7destroyEv', symObjAddr: 0x2190, symBinAddr: 0x7C118, symSize: 0x4 }
  - { offset: 0x42E2A7, size: 0x8, addend: 0x0, symName: '__ZNSt3__110__function6__funcIZN24llama_memory_hybrid_iswaC1ERK11llama_model9ggml_typeS6_bbjjjS6_S6_jjjbbRKNS_8functionIFbiEEESB_E3$_0S8_E18destroy_deallocateEv', symObjAddr: 0x2194, symBinAddr: 0x7C11C, symSize: 0x14 }
  - { offset: 0x42E33D, size: 0x8, addend: 0x0, symName: '__ZNSt3__110__function6__funcIZN24llama_memory_hybrid_iswaC1ERK11llama_model9ggml_typeS6_bbjjjS6_S6_jjjbbRKNS_8functionIFbiEEESB_E3$_0S8_EclEOi', symObjAddr: 0x21A8, symBinAddr: 0x7C130, symSize: 0x24 }
  - { offset: 0x42E42A, size: 0x8, addend: 0x0, symName: '__ZNKSt3__110__function6__funcIZN24llama_memory_hybrid_iswaC1ERK11llama_model9ggml_typeS6_bbjjjS6_S6_jjjbbRKNS_8functionIFbiEEESB_E3$_0S8_E6targetERKSt9type_info', symObjAddr: 0x21CC, symBinAddr: 0x7C154, symSize: 0x60 }
  - { offset: 0x42E4F4, size: 0x8, addend: 0x0, symName: '__ZNKSt3__110__function6__funcIZN24llama_memory_hybrid_iswaC1ERK11llama_model9ggml_typeS6_bbjjjS6_S6_jjjbbRKNS_8functionIFbiEEESB_E3$_0S8_E11target_typeEv', symObjAddr: 0x222C, symBinAddr: 0x7C1B4, symSize: 0xC }
  - { offset: 0x42E517, size: 0x8, addend: 0x0, symName: '__ZNSt3__110__function6__funcIZN24llama_memory_hybrid_iswaC1ERK11llama_model9ggml_typeS6_bbjjjS6_S6_jjjbbRKNS_8functionIFbiEEESB_E3$_1S8_ED1Ev', symObjAddr: 0x2238, symBinAddr: 0x7C1C0, symSize: 0x4 }
  - { offset: 0x42E546, size: 0x8, addend: 0x0, symName: '__ZNSt3__110__function6__funcIZN24llama_memory_hybrid_iswaC1ERK11llama_model9ggml_typeS6_bbjjjS6_S6_jjjbbRKNS_8functionIFbiEEESB_E3$_1S8_ED0Ev', symObjAddr: 0x223C, symBinAddr: 0x7C1C4, symSize: 0x4 }
  - { offset: 0x42E5BB, size: 0x8, addend: 0x0, symName: '__ZNKSt3__110__function6__funcIZN24llama_memory_hybrid_iswaC1ERK11llama_model9ggml_typeS6_bbjjjS6_S6_jjjbbRKNS_8functionIFbiEEESB_E3$_1S8_E7__cloneEv', symObjAddr: 0x2240, symBinAddr: 0x7C1C8, symSize: 0x34 }
  - { offset: 0x42E61A, size: 0x8, addend: 0x0, symName: '__ZNKSt3__110__function6__funcIZN24llama_memory_hybrid_iswaC1ERK11llama_model9ggml_typeS6_bbjjjS6_S6_jjjbbRKNS_8functionIFbiEEESB_E3$_1S8_E7__cloneEPNS0_6__baseIS8_EE', symObjAddr: 0x2274, symBinAddr: 0x7C1FC, symSize: 0x14 }
  - { offset: 0x42E685, size: 0x8, addend: 0x0, symName: '__ZNSt3__110__function6__funcIZN24llama_memory_hybrid_iswaC1ERK11llama_model9ggml_typeS6_bbjjjS6_S6_jjjbbRKNS_8functionIFbiEEESB_E3$_1S8_E7destroyEv', symObjAddr: 0x2288, symBinAddr: 0x7C210, symSize: 0x4 }
  - { offset: 0x42E6A8, size: 0x8, addend: 0x0, symName: '__ZNSt3__110__function6__funcIZN24llama_memory_hybrid_iswaC1ERK11llama_model9ggml_typeS6_bbjjjS6_S6_jjjbbRKNS_8functionIFbiEEESB_E3$_1S8_E18destroy_deallocateEv', symObjAddr: 0x228C, symBinAddr: 0x7C214, symSize: 0x14 }
  - { offset: 0x42E73E, size: 0x8, addend: 0x0, symName: '__ZNSt3__110__function6__funcIZN24llama_memory_hybrid_iswaC1ERK11llama_model9ggml_typeS6_bbjjjS6_S6_jjjbbRKNS_8functionIFbiEEESB_E3$_1S8_EclEOi', symObjAddr: 0x22A0, symBinAddr: 0x7C228, symSize: 0x10 }
  - { offset: 0x42E7D1, size: 0x8, addend: 0x0, symName: '__ZNKSt3__110__function6__funcIZN24llama_memory_hybrid_iswaC1ERK11llama_model9ggml_typeS6_bbjjjS6_S6_jjjbbRKNS_8functionIFbiEEESB_E3$_1S8_E6targetERKSt9type_info', symObjAddr: 0x22B0, symBinAddr: 0x7C238, symSize: 0x60 }
  - { offset: 0x42E884, size: 0x8, addend: 0x0, symName: '__ZNKSt3__110__function6__funcIZN24llama_memory_hybrid_iswaC1ERK11llama_model9ggml_typeS6_bbjjjS6_S6_jjjbbRKNS_8functionIFbiEEESB_E3$_1S8_E11target_typeEv', symObjAddr: 0x2310, symBinAddr: 0x7C298, symSize: 0xC }
  - { offset: 0x430A04, size: 0x8, addend: 0x0, symName: __ZTV19llama_memory_hybrid, symObjAddr: 0x2768, symBinAddr: 0x3FBFC8, symSize: 0x0 }
  - { offset: 0x457D67, size: 0x8, addend: 0x0, symName: __ZNSt3__111make_uniqueB9nqe220106I27llama_memory_hybrid_contextJP19llama_memory_hybridNS_6vectorIN14llama_kv_cache9slot_infoENS_9allocatorIS6_EEEENS4_I12llama_ubatchNS7_ISA_EEEEELi0EEENS_10unique_ptrIT_NS_14default_deleteISE_EEEEDpOT0_, symObjAddr: 0xA3C, symBinAddr: 0x7CC7C, symSize: 0x1B8 }
  - { offset: 0x4612E6, size: 0x8, addend: 0x0, symName: __ZTV27llama_memory_hybrid_context, symObjAddr: 0x2800, symBinAddr: 0x3FC060, symSize: 0x0 }
  - { offset: 0x461A7C, size: 0x8, addend: 0x0, symName: '__ZTVNSt3__110__function6__funcIZN19llama_memory_hybridC1ERK11llama_model9ggml_typeS6_bjjj14llama_swa_typeS6_S6_jjjbbRKNS_8functionIFbiEEESC_E3$_0S9_EE', symObjAddr: 0x2890, symBinAddr: 0x3FC0D0, symSize: 0x0 }
  - { offset: 0x461A8A, size: 0x8, addend: 0x0, symName: __ZN19llama_memory_hybridC1ERK11llama_model9ggml_typeS3_bjjj14llama_swa_typeS3_S3_jjjbbRKNSt3__18functionIFbiEEESA_, symObjAddr: 0x3AC, symBinAddr: 0x7C650, symSize: 0x14 }
  - { offset: 0x461C76, size: 0x8, addend: 0x0, symName: '__ZTVNSt3__110__function6__funcIZN19llama_memory_hybridC1ERK11llama_model9ggml_typeS6_bjjj14llama_swa_typeS6_S6_jjjbbRKNS_8functionIFbiEEESC_E3$_1S9_EE', symObjAddr: 0x2920, symBinAddr: 0x3FC150, symSize: 0x0 }
  - { offset: 0x46234E, size: 0x8, addend: 0x0, symName: __ZN19llama_memory_hybridC2ERK11llama_model9ggml_typeS3_bjjj14llama_swa_typeS3_S3_jjjbbRKNSt3__18functionIFbiEEESA_, symObjAddr: 0x0, symBinAddr: 0x7C2A4, symSize: 0x3AC }
  - { offset: 0x463AE3, size: 0x8, addend: 0x0, symName: __ZN19llama_memory_hybrid10init_batchER18llama_batch_allocrjb, symObjAddr: 0x3C0, symBinAddr: 0x7C664, symSize: 0x618 }
  - { offset: 0x465956, size: 0x8, addend: 0x0, symName: __ZN27llama_memory_hybrid_contextC2EP19llama_memory_hybridNSt3__16vectorIN14llama_kv_cache9slot_infoENS2_9allocatorIS5_EEEENS3_I12llama_ubatchNS6_IS9_EEEE, symObjAddr: 0x1668, symBinAddr: 0x7D70C, symSize: 0x500 }
  - { offset: 0x466E61, size: 0x8, addend: 0x0, symName: __ZN19llama_memory_hybrid9init_fullEv, symObjAddr: 0xD50, symBinAddr: 0x7CE34, symSize: 0x54 }
  - { offset: 0x466F08, size: 0x8, addend: 0x0, symName: __ZN27llama_memory_hybrid_contextC2EP19llama_memory_hybrid, symObjAddr: 0x1400, symBinAddr: 0x7D4A4, symSize: 0x120 }
  - { offset: 0x4671B9, size: 0x8, addend: 0x0, symName: __ZN19llama_memory_hybrid11init_updateEP13llama_contextb, symObjAddr: 0xDA4, symBinAddr: 0x7CE88, symSize: 0x6C }
  - { offset: 0x46729D, size: 0x8, addend: 0x0, symName: __ZN27llama_memory_hybrid_contextC2EP19llama_memory_hybridP13llama_contextb, symObjAddr: 0x1524, symBinAddr: 0x7D5C8, symSize: 0x140 }
  - { offset: 0x467543, size: 0x8, addend: 0x0, symName: __ZNK19llama_memory_hybrid13get_can_shiftEv, symObjAddr: 0xE10, symBinAddr: 0x7CEF4, symSize: 0x10 }
  - { offset: 0x46756E, size: 0x8, addend: 0x0, symName: __ZNK19llama_memory_hybrid13get_can_shiftEv, symObjAddr: 0xE10, symBinAddr: 0x7CEF4, symSize: 0x10 }
  - { offset: 0x467596, size: 0x8, addend: 0x0, symName: __ZN19llama_memory_hybrid5clearEb, symObjAddr: 0xE20, symBinAddr: 0x7CF04, symSize: 0x40 }
  - { offset: 0x46762A, size: 0x8, addend: 0x0, symName: __ZN19llama_memory_hybrid6seq_rmEiii, symObjAddr: 0xE60, symBinAddr: 0x7CF44, symSize: 0x6C }
  - { offset: 0x4676EA, size: 0x8, addend: 0x0, symName: __ZN19llama_memory_hybrid6seq_cpEiiii, symObjAddr: 0xECC, symBinAddr: 0x7CFB0, symSize: 0x68 }
  - { offset: 0x4677C0, size: 0x8, addend: 0x0, symName: __ZN19llama_memory_hybrid8seq_keepEi, symObjAddr: 0xF34, symBinAddr: 0x7D018, symSize: 0x40 }
  - { offset: 0x467854, size: 0x8, addend: 0x0, symName: __ZN19llama_memory_hybrid7seq_addEiiii, symObjAddr: 0xF74, symBinAddr: 0x7D058, symSize: 0x68 }
  - { offset: 0x46792A, size: 0x8, addend: 0x0, symName: __ZN19llama_memory_hybrid7seq_divEiiii, symObjAddr: 0xFDC, symBinAddr: 0x7D0C0, symSize: 0x68 }
  - { offset: 0x467A00, size: 0x8, addend: 0x0, symName: __ZNK19llama_memory_hybrid11seq_pos_minEi, symObjAddr: 0x1044, symBinAddr: 0x7D128, symSize: 0x58 }
  - { offset: 0x467A9B, size: 0x8, addend: 0x0, symName: __ZNK19llama_memory_hybrid11seq_pos_maxEi, symObjAddr: 0x109C, symBinAddr: 0x7D180, symSize: 0x58 }
  - { offset: 0x46830A, size: 0x8, addend: 0x0, symName: __ZNK19llama_memory_hybrid16memory_breakdownEv, symObjAddr: 0x10F4, symBinAddr: 0x7D1D8, symSize: 0x1BC }
  - { offset: 0x468AA9, size: 0x8, addend: 0x0, symName: __ZNK19llama_memory_hybrid11state_writeER16llama_io_write_iij, symObjAddr: 0x12F0, symBinAddr: 0x7D394, symSize: 0x5C }
  - { offset: 0x468B53, size: 0x8, addend: 0x0, symName: __ZN19llama_memory_hybrid10state_readER15llama_io_read_iij, symObjAddr: 0x134C, symBinAddr: 0x7D3F0, symSize: 0x5C }
  - { offset: 0x468C13, size: 0x8, addend: 0x0, symName: __ZNK19llama_memory_hybrid12get_mem_attnEv, symObjAddr: 0x13A8, symBinAddr: 0x7D44C, symSize: 0x8 }
  - { offset: 0x468C37, size: 0x8, addend: 0x0, symName: __ZNK19llama_memory_hybrid12get_mem_attnEv, symObjAddr: 0x13A8, symBinAddr: 0x7D44C, symSize: 0x8 }
  - { offset: 0x468C69, size: 0x8, addend: 0x0, symName: __ZNK19llama_memory_hybrid12get_mem_recrEv, symObjAddr: 0x13B0, symBinAddr: 0x7D454, symSize: 0x8 }
  - { offset: 0x468C8D, size: 0x8, addend: 0x0, symName: __ZNK19llama_memory_hybrid12get_mem_recrEv, symObjAddr: 0x13B0, symBinAddr: 0x7D454, symSize: 0x8 }
  - { offset: 0x468CA9, size: 0x8, addend: 0x0, symName: __ZN27llama_memory_hybrid_contextC2E19llama_memory_status, symObjAddr: 0x13B8, symBinAddr: 0x7D45C, symSize: 0x24 }
  - { offset: 0x468D0C, size: 0x8, addend: 0x0, symName: __ZN27llama_memory_hybrid_contextC1E19llama_memory_status, symObjAddr: 0x13DC, symBinAddr: 0x7D480, symSize: 0x24 }
  - { offset: 0x468D35, size: 0x8, addend: 0x0, symName: __ZN27llama_memory_hybrid_contextC1E19llama_memory_status, symObjAddr: 0x13DC, symBinAddr: 0x7D480, symSize: 0x24 }
  - { offset: 0x468E8C, size: 0x8, addend: 0x0, symName: __ZN27llama_memory_hybrid_contextC1EP19llama_memory_hybrid, symObjAddr: 0x1520, symBinAddr: 0x7D5C4, symSize: 0x4 }
  - { offset: 0x468EB6, size: 0x8, addend: 0x0, symName: __ZN27llama_memory_hybrid_contextC1EP19llama_memory_hybrid, symObjAddr: 0x1520, symBinAddr: 0x7D5C4, symSize: 0x4 }
  - { offset: 0x468ED0, size: 0x8, addend: 0x0, symName: __ZN27llama_memory_hybrid_contextC1EP19llama_memory_hybridP13llama_contextb, symObjAddr: 0x1664, symBinAddr: 0x7D708, symSize: 0x4 }
  - { offset: 0x468F0D, size: 0x8, addend: 0x0, symName: __ZN27llama_memory_hybrid_contextC1EP19llama_memory_hybridP13llama_contextb, symObjAddr: 0x1664, symBinAddr: 0x7D708, symSize: 0x4 }
  - { offset: 0x46942D, size: 0x8, addend: 0x0, symName: __ZN27llama_memory_hybrid_contextC1EP19llama_memory_hybridNSt3__16vectorIN14llama_kv_cache9slot_infoENS2_9allocatorIS5_EEEENS3_I12llama_ubatchNS6_IS9_EEEE, symObjAddr: 0x1B68, symBinAddr: 0x7DC0C, symSize: 0x4 }
  - { offset: 0x469467, size: 0x8, addend: 0x0, symName: __ZN27llama_memory_hybrid_contextC1EP19llama_memory_hybridNSt3__16vectorIN14llama_kv_cache9slot_infoENS2_9allocatorIS5_EEEENS3_I12llama_ubatchNS6_IS9_EEEE, symObjAddr: 0x1B68, symBinAddr: 0x7DC0C, symSize: 0x4 }
  - { offset: 0x46948F, size: 0x8, addend: 0x0, symName: __ZN27llama_memory_hybrid_context4nextEv, symObjAddr: 0x1B6C, symBinAddr: 0x7DC10, symSize: 0x70 }
  - { offset: 0x46952A, size: 0x8, addend: 0x0, symName: __ZN27llama_memory_hybrid_context5applyEv, symObjAddr: 0x1BDC, symBinAddr: 0x7DC80, symSize: 0x44 }
  - { offset: 0x4695B9, size: 0x8, addend: 0x0, symName: __ZNK27llama_memory_hybrid_context10get_statusEv, symObjAddr: 0x1C20, symBinAddr: 0x7DCC4, symSize: 0x8 }
  - { offset: 0x469605, size: 0x8, addend: 0x0, symName: __ZNK27llama_memory_hybrid_context10get_ubatchEv, symObjAddr: 0x1C28, symBinAddr: 0x7DCCC, symSize: 0x10 }
  - { offset: 0x46966B, size: 0x8, addend: 0x0, symName: __ZNK27llama_memory_hybrid_context8get_attnEv, symObjAddr: 0x1C38, symBinAddr: 0x7DCDC, symSize: 0x8 }
  - { offset: 0x469697, size: 0x8, addend: 0x0, symName: __ZNK27llama_memory_hybrid_context8get_attnEv, symObjAddr: 0x1C38, symBinAddr: 0x7DCDC, symSize: 0x8 }
  - { offset: 0x4696B4, size: 0x8, addend: 0x0, symName: __ZNK27llama_memory_hybrid_context8get_recrEv, symObjAddr: 0x1C40, symBinAddr: 0x7DCE4, symSize: 0x8 }
  - { offset: 0x4696E0, size: 0x8, addend: 0x0, symName: __ZNK27llama_memory_hybrid_context8get_recrEv, symObjAddr: 0x1C40, symBinAddr: 0x7DCE4, symSize: 0x8 }
  - { offset: 0x4697AB, size: 0x8, addend: 0x0, symName: __ZN19llama_memory_hybridD1Ev, symObjAddr: 0x1C48, symBinAddr: 0x7DCEC, symSize: 0x5C }
  - { offset: 0x469943, size: 0x8, addend: 0x0, symName: __ZN19llama_memory_hybridD0Ev, symObjAddr: 0x1CA4, symBinAddr: 0x7DD48, symSize: 0x5C }
  - { offset: 0x469B00, size: 0x8, addend: 0x0, symName: __ZN27llama_memory_hybrid_contextD1Ev, symObjAddr: 0x1D00, symBinAddr: 0x7DDA4, symSize: 0xD4 }
  - { offset: 0x469EAE, size: 0x8, addend: 0x0, symName: __ZN27llama_memory_hybrid_contextD0Ev, symObjAddr: 0x1DD4, symBinAddr: 0x7DE78, symSize: 0xD4 }
  - { offset: 0x46A263, size: 0x8, addend: 0x0, symName: '__ZNSt3__110__function6__funcIZN19llama_memory_hybridC1ERK11llama_model9ggml_typeS6_bjjj14llama_swa_typeS6_S6_jjjbbRKNS_8functionIFbiEEESC_E3$_0S9_ED1Ev', symObjAddr: 0x1EA8, symBinAddr: 0x7DF4C, symSize: 0x4 }
  - { offset: 0x46A292, size: 0x8, addend: 0x0, symName: '__ZNSt3__110__function6__funcIZN19llama_memory_hybridC1ERK11llama_model9ggml_typeS6_bjjj14llama_swa_typeS6_S6_jjjbbRKNS_8functionIFbiEEESC_E3$_0S9_ED0Ev', symObjAddr: 0x1EAC, symBinAddr: 0x7DF50, symSize: 0x4 }
  - { offset: 0x46A307, size: 0x8, addend: 0x0, symName: '__ZNKSt3__110__function6__funcIZN19llama_memory_hybridC1ERK11llama_model9ggml_typeS6_bjjj14llama_swa_typeS6_S6_jjjbbRKNS_8functionIFbiEEESC_E3$_0S9_E7__cloneEv', symObjAddr: 0x1EB0, symBinAddr: 0x7DF54, symSize: 0x34 }
  - { offset: 0x46A366, size: 0x8, addend: 0x0, symName: '__ZNKSt3__110__function6__funcIZN19llama_memory_hybridC1ERK11llama_model9ggml_typeS6_bjjj14llama_swa_typeS6_S6_jjjbbRKNS_8functionIFbiEEESC_E3$_0S9_E7__cloneEPNS0_6__baseIS9_EE', symObjAddr: 0x1EE4, symBinAddr: 0x7DF88, symSize: 0x14 }
  - { offset: 0x46A3D1, size: 0x8, addend: 0x0, symName: '__ZNSt3__110__function6__funcIZN19llama_memory_hybridC1ERK11llama_model9ggml_typeS6_bjjj14llama_swa_typeS6_S6_jjjbbRKNS_8functionIFbiEEESC_E3$_0S9_E7destroyEv', symObjAddr: 0x1EF8, symBinAddr: 0x7DF9C, symSize: 0x4 }
  - { offset: 0x46A3F4, size: 0x8, addend: 0x0, symName: '__ZNSt3__110__function6__funcIZN19llama_memory_hybridC1ERK11llama_model9ggml_typeS6_bjjj14llama_swa_typeS6_S6_jjjbbRKNS_8functionIFbiEEESC_E3$_0S9_E18destroy_deallocateEv', symObjAddr: 0x1EFC, symBinAddr: 0x7DFA0, symSize: 0x14 }
  - { offset: 0x46A48A, size: 0x8, addend: 0x0, symName: '__ZNSt3__110__function6__funcIZN19llama_memory_hybridC1ERK11llama_model9ggml_typeS6_bjjj14llama_swa_typeS6_S6_jjjbbRKNS_8functionIFbiEEESC_E3$_0S9_EclEOi', symObjAddr: 0x1F10, symBinAddr: 0x7DFB4, symSize: 0x24 }
  - { offset: 0x46A577, size: 0x8, addend: 0x0, symName: '__ZNKSt3__110__function6__funcIZN19llama_memory_hybridC1ERK11llama_model9ggml_typeS6_bjjj14llama_swa_typeS6_S6_jjjbbRKNS_8functionIFbiEEESC_E3$_0S9_E6targetERKSt9type_info', symObjAddr: 0x1F34, symBinAddr: 0x7DFD8, symSize: 0x60 }
  - { offset: 0x46A641, size: 0x8, addend: 0x0, symName: '__ZNKSt3__110__function6__funcIZN19llama_memory_hybridC1ERK11llama_model9ggml_typeS6_bjjj14llama_swa_typeS6_S6_jjjbbRKNS_8functionIFbiEEESC_E3$_0S9_E11target_typeEv', symObjAddr: 0x1F94, symBinAddr: 0x7E038, symSize: 0xC }
  - { offset: 0x46A664, size: 0x8, addend: 0x0, symName: '__ZNSt3__110__function6__funcIZN19llama_memory_hybridC1ERK11llama_model9ggml_typeS6_bjjj14llama_swa_typeS6_S6_jjjbbRKNS_8functionIFbiEEESC_E3$_1S9_ED1Ev', symObjAddr: 0x1FA0, symBinAddr: 0x7E044, symSize: 0x4 }
  - { offset: 0x46A693, size: 0x8, addend: 0x0, symName: '__ZNSt3__110__function6__funcIZN19llama_memory_hybridC1ERK11llama_model9ggml_typeS6_bjjj14llama_swa_typeS6_S6_jjjbbRKNS_8functionIFbiEEESC_E3$_1S9_ED0Ev', symObjAddr: 0x1FA4, symBinAddr: 0x7E048, symSize: 0x4 }
  - { offset: 0x46A708, size: 0x8, addend: 0x0, symName: '__ZNKSt3__110__function6__funcIZN19llama_memory_hybridC1ERK11llama_model9ggml_typeS6_bjjj14llama_swa_typeS6_S6_jjjbbRKNS_8functionIFbiEEESC_E3$_1S9_E7__cloneEv', symObjAddr: 0x1FA8, symBinAddr: 0x7E04C, symSize: 0x34 }
  - { offset: 0x46A767, size: 0x8, addend: 0x0, symName: '__ZNKSt3__110__function6__funcIZN19llama_memory_hybridC1ERK11llama_model9ggml_typeS6_bjjj14llama_swa_typeS6_S6_jjjbbRKNS_8functionIFbiEEESC_E3$_1S9_E7__cloneEPNS0_6__baseIS9_EE', symObjAddr: 0x1FDC, symBinAddr: 0x7E080, symSize: 0x14 }
  - { offset: 0x46A7D2, size: 0x8, addend: 0x0, symName: '__ZNSt3__110__function6__funcIZN19llama_memory_hybridC1ERK11llama_model9ggml_typeS6_bjjj14llama_swa_typeS6_S6_jjjbbRKNS_8functionIFbiEEESC_E3$_1S9_E7destroyEv', symObjAddr: 0x1FF0, symBinAddr: 0x7E094, symSize: 0x4 }
  - { offset: 0x46A7F5, size: 0x8, addend: 0x0, symName: '__ZNSt3__110__function6__funcIZN19llama_memory_hybridC1ERK11llama_model9ggml_typeS6_bjjj14llama_swa_typeS6_S6_jjjbbRKNS_8functionIFbiEEESC_E3$_1S9_E18destroy_deallocateEv', symObjAddr: 0x1FF4, symBinAddr: 0x7E098, symSize: 0x14 }
  - { offset: 0x46A88B, size: 0x8, addend: 0x0, symName: '__ZNSt3__110__function6__funcIZN19llama_memory_hybridC1ERK11llama_model9ggml_typeS6_bjjj14llama_swa_typeS6_S6_jjjbbRKNS_8functionIFbiEEESC_E3$_1S9_EclEOi', symObjAddr: 0x2008, symBinAddr: 0x7E0AC, symSize: 0x10 }
  - { offset: 0x46A91E, size: 0x8, addend: 0x0, symName: '__ZNKSt3__110__function6__funcIZN19llama_memory_hybridC1ERK11llama_model9ggml_typeS6_bjjj14llama_swa_typeS6_S6_jjjbbRKNS_8functionIFbiEEESC_E3$_1S9_E6targetERKSt9type_info', symObjAddr: 0x2018, symBinAddr: 0x7E0BC, symSize: 0x60 }
  - { offset: 0x46A9D1, size: 0x8, addend: 0x0, symName: '__ZNKSt3__110__function6__funcIZN19llama_memory_hybridC1ERK11llama_model9ggml_typeS6_bjjj14llama_swa_typeS6_S6_jjjbbRKNS_8functionIFbiEEESC_E3$_1S9_E11target_typeEv', symObjAddr: 0x2078, symBinAddr: 0x7E11C, symSize: 0xC }
  - { offset: 0x46CB51, size: 0x8, addend: 0x0, symName: __ZTV22llama_memory_recurrent, symObjAddr: 0x5FD8, symBinAddr: 0x3FC1D0, symSize: 0x0 }
  - { offset: 0x4944A7, size: 0x8, addend: 0x0, symName: __ZTV30llama_memory_recurrent_context, symObjAddr: 0x6070, symBinAddr: 0x3FC268, symSize: 0x0 }
  - { offset: 0x4946CE, size: 0x8, addend: 0x0, symName: __ZN22llama_memory_recurrentC2ERK11llama_model9ggml_typeS3_bjjjRKNSt3__18functionIFbiEEE, symObjAddr: 0x0, symBinAddr: 0x7E128, symSize: 0x6A4 }
  - { offset: 0x496E4A, size: 0x8, addend: 0x0, symName: __ZNSt3__16vectorIjNS_9allocatorIjEEE6assignEmRKj, symObjAddr: 0x6A4, symBinAddr: 0x7E7CC, symSize: 0x1EC }
  - { offset: 0x4972E5, size: 0x8, addend: 0x0, symName: __ZNSt3__16vectorIN22llama_memory_recurrent8mem_cellENS_9allocatorIS2_EEE6resizeEm, symObjAddr: 0x890, symBinAddr: 0x7E9B8, symSize: 0x248 }
  - { offset: 0x497384, size: 0x8, addend: 0x0, symName: __ZNSt3__16vectorIN22llama_memory_recurrent8mem_cellENS_9allocatorIS2_EEE6resizeEm, symObjAddr: 0x890, symBinAddr: 0x7E9B8, symSize: 0x248 }
  - { offset: 0x497D70, size: 0x8, addend: 0x0, symName: __ZNSt3__16vectorIP11ggml_tensorNS_9allocatorIS2_EEE6resizeEm, symObjAddr: 0xAD8, symBinAddr: 0x7EC00, symSize: 0x124 }
  - { offset: 0x4981F1, size: 0x8, addend: 0x0, symName: __ZNK22llama_memory_recurrent12size_r_bytesEv, symObjAddr: 0xBFC, symBinAddr: 0x7ED24, symSize: 0x5C }
  - { offset: 0x498244, size: 0x8, addend: 0x0, symName: __ZNSt3__16__treeINS_12__value_typeIP24ggml_backend_buffer_typeNS_10unique_ptrI12ggml_context20ggml_context_deleterEEEENS_19__map_value_compareIS3_NS_4pairIKS3_S7_EEZN22llama_memory_recurrentC1ERK11llama_model9ggml_typeSH_bjjjRKNS_8functionIFbiEEEE28ggml_backend_buft_comparatorEENS_9allocatorISC_EEE12__find_equalB9nqe220106IS3_EENSA_IPNS_15__tree_end_nodeIPNS_16__tree_node_baseIPvEEEERSX_EERKT_, symObjAddr: 0x4870, symBinAddr: 0x827D8, symSize: 0xBC }
  - { offset: 0x498702, size: 0x8, addend: 0x0, symName: __ZNSt3__16__treeINS_12__value_typeIP24ggml_backend_buffer_typeNS_10unique_ptrI12ggml_context20ggml_context_deleterEEEENS_19__map_value_compareIS3_NS_4pairIKS3_S7_EEZN22llama_memory_recurrentC1ERK11llama_model9ggml_typeSH_bjjjRKNS_8functionIFbiEEEE28ggml_backend_buft_comparatorEENS_9allocatorISC_EEE14__tree_deleterclB9nqe220106EPNS_11__tree_nodeIS8_PvEE, symObjAddr: 0x4F30, symBinAddr: 0x82A30, symSize: 0x58 }
  - { offset: 0x498A77, size: 0x8, addend: 0x0, symName: __ZNSt3__16vectorIN22llama_memory_recurrent8mem_cellENS_9allocatorIS2_EEED1B9nqe220106Ev, symObjAddr: 0xD38, symBinAddr: 0x7EDDC, symSize: 0x7C }
  - { offset: 0x4995B3, size: 0x8, addend: 0x0, symName: __ZNSt3__16vectorIN22llama_memory_recurrent8mem_cellENS_9allocatorIS2_EEE20__throw_length_errorB9nqe220106Ev, symObjAddr: 0x4EA8, symBinAddr: 0x829A8, symSize: 0x14 }
  - { offset: 0x4995CB, size: 0x8, addend: 0x0, symName: __ZNSt3__128__exception_guard_exceptionsINS_29_AllocatorDestroyRangeReverseINS_9allocatorIN22llama_memory_recurrent8mem_cellEEEPS4_EEED1B9nqe220106Ev, symObjAddr: 0x4EBC, symBinAddr: 0x829BC, symSize: 0x74 }
  - { offset: 0x4999BF, size: 0x8, addend: 0x0, symName: __ZNK22llama_memory_recurrent12size_r_bytesEv, symObjAddr: 0xBFC, symBinAddr: 0x7ED24, symSize: 0x5C }
  - { offset: 0x499A76, size: 0x8, addend: 0x0, symName: __ZNK22llama_memory_recurrent12size_s_bytesEv, symObjAddr: 0xC58, symBinAddr: 0x7ED80, symSize: 0x5C }
  - { offset: 0x499E34, size: 0x8, addend: 0x0, symName: __ZN22llama_memory_recurrentC1ERK11llama_model9ggml_typeS3_bjjjRKNSt3__18functionIFbiEEE, symObjAddr: 0xDB4, symBinAddr: 0x7EE58, symSize: 0x4 }
  - { offset: 0x499ED8, size: 0x8, addend: 0x0, symName: __ZN22llama_memory_recurrentC1ERK11llama_model9ggml_typeS3_bjjjRKNSt3__18functionIFbiEEE, symObjAddr: 0xDB4, symBinAddr: 0x7EE58, symSize: 0x4 }
  - { offset: 0x499FCF, size: 0x8, addend: 0x0, symName: __ZN22llama_memory_recurrent5clearEb, symObjAddr: 0xDB8, symBinAddr: 0x7EE5C, symSize: 0xF0 }
  - { offset: 0x49A5AC, size: 0x8, addend: 0x0, symName: __ZN22llama_memory_recurrent6seq_rmEiii, symObjAddr: 0xEA8, symBinAddr: 0x7EF4C, symSize: 0x3A4 }
  - { offset: 0x49AC24, size: 0x8, addend: 0x0, symName: __ZN22llama_memory_recurrent10set_rs_idxEij, symObjAddr: 0x124C, symBinAddr: 0x7F2F0, symSize: 0x2C }
  - { offset: 0x49AF6F, size: 0x8, addend: 0x0, symName: __ZN22llama_memory_recurrent6seq_cpEiiii, symObjAddr: 0x1278, symBinAddr: 0x7F31C, symSize: 0x1E8 }
  - { offset: 0x49B5AC, size: 0x8, addend: 0x0, symName: __ZN22llama_memory_recurrent8seq_keepEi, symObjAddr: 0x1460, symBinAddr: 0x7F504, symSize: 0x1D0 }
  - { offset: 0x49BB1D, size: 0x8, addend: 0x0, symName: __ZN22llama_memory_recurrent7seq_addEiiii, symObjAddr: 0x1630, symBinAddr: 0x7F6D4, symSize: 0xA0 }
  - { offset: 0x49BC9F, size: 0x8, addend: 0x0, symName: __ZN22llama_memory_recurrent7seq_divEiiii, symObjAddr: 0x16D0, symBinAddr: 0x7F774, symSize: 0xA8 }
  - { offset: 0x49BEC2, size: 0x8, addend: 0x0, symName: __ZNK22llama_memory_recurrent11seq_pos_minEi, symObjAddr: 0x1778, symBinAddr: 0x7F81C, symSize: 0x8C }
  - { offset: 0x49C07A, size: 0x8, addend: 0x0, symName: __ZNK22llama_memory_recurrent11seq_pos_maxEi, symObjAddr: 0x1804, symBinAddr: 0x7F8A8, symSize: 0x80 }
  - { offset: 0x49C91C, size: 0x8, addend: 0x0, symName: __ZNK22llama_memory_recurrent16memory_breakdownEv, symObjAddr: 0x1884, symBinAddr: 0x7F928, symSize: 0x158 }
  - { offset: 0x49D79A, size: 0x8, addend: 0x0, symName: __ZN22llama_memory_recurrent10init_batchER18llama_batch_allocrjb, symObjAddr: 0x1A1C, symBinAddr: 0x7FA80, symSize: 0x49C }
  - { offset: 0x49E932, size: 0x8, addend: 0x0, symName: __ZN22llama_memory_recurrent7prepareERKNSt3__16vectorI12llama_ubatchNS0_9allocatorIS2_EEEE, symObjAddr: 0x1F1C, symBinAddr: 0x7FF1C, symSize: 0x134 }
  - { offset: 0x49EFEB, size: 0x8, addend: 0x0, symName: __ZNSt3__16vectorIN22llama_memory_recurrent8mem_cellENS_9allocatorIS2_EEE16__init_with_sizeB9nqe220106IPS2_S7_EEvT_T0_m, symObjAddr: 0x56D4, symBinAddr: 0x82A88, symSize: 0x15C }
  - { offset: 0x49F4DF, size: 0x8, addend: 0x0, symName: __ZN22llama_memory_recurrent9find_slotERK12llama_ubatch, symObjAddr: 0x2188, symBinAddr: 0x800F0, symSize: 0xC34 }
  - { offset: 0x4A0F82, size: 0x8, addend: 0x0, symName: __ZN22llama_memory_recurrent9init_fullEv, symObjAddr: 0x20E8, symBinAddr: 0x80050, symSize: 0x54 }
  - { offset: 0x4A1080, size: 0x8, addend: 0x0, symName: __ZN22llama_memory_recurrent11init_updateEP13llama_contextb, symObjAddr: 0x213C, symBinAddr: 0x800A4, symSize: 0x4C }
  - { offset: 0x4A1547, size: 0x8, addend: 0x0, symName: __ZNK22llama_memory_recurrent13get_can_shiftEv, symObjAddr: 0x2DBC, symBinAddr: 0x80D24, symSize: 0x8 }
  - { offset: 0x4A156D, size: 0x8, addend: 0x0, symName: __ZNK22llama_memory_recurrent10total_sizeEv, symObjAddr: 0x2DC4, symBinAddr: 0x80D2C, symSize: 0x64 }
  - { offset: 0x4A2035, size: 0x8, addend: 0x0, symName: __ZNK22llama_memory_recurrent11state_writeER16llama_io_write_iij, symObjAddr: 0x2E28, symBinAddr: 0x80D90, symSize: 0x674 }
  - { offset: 0x4A2EEA, size: 0x8, addend: 0x0, symName: __ZZNSt3__16vectorINS_4pairIjjEENS_9allocatorIS2_EEE12emplace_backIJRjS7_EEERS2_DpOT_ENKUlvE0_clEv, symObjAddr: 0x5ACC, symBinAddr: 0x82E6C, symSize: 0xE8 }
  - { offset: 0x4A325E, size: 0x8, addend: 0x0, symName: __ZZNSt3__16vectorINS_4pairIjjEENS_9allocatorIS2_EEE12emplace_backIJRjRKjEEERS2_DpOT_ENKUlvE0_clEv, symObjAddr: 0x5BB4, symBinAddr: 0x82F54, symSize: 0xE8 }
  - { offset: 0x4A3273, size: 0x8, addend: 0x0, symName: __ZZNSt3__16vectorINS_4pairIjjEENS_9allocatorIS2_EEE12emplace_backIJRKjjEEERS2_DpOT_ENKUlvE0_clEv, symObjAddr: 0x59D0, symBinAddr: 0x82D84, symSize: 0xE8 }
  - { offset: 0x4A35F2, size: 0x8, addend: 0x0, symName: __ZNK22llama_memory_recurrent16state_write_metaER16llama_io_write_iRKNSt3__16vectorINS2_4pairIjjEENS2_9allocatorIS5_EEEEi, symObjAddr: 0x349C, symBinAddr: 0x81404, symSize: 0x15C }
  - { offset: 0x4A3935, size: 0x8, addend: 0x0, symName: __ZNK22llama_memory_recurrent16state_write_dataER16llama_io_write_iRKNSt3__16vectorINS2_4pairIjjEENS2_9allocatorIS5_EEEE, symObjAddr: 0x35F8, symBinAddr: 0x81560, symSize: 0x210 }
  - { offset: 0x4A3D75, size: 0x8, addend: 0x0, symName: __ZZNSt3__16vectorINS_4pairIjjEENS_9allocatorIS2_EEE12emplace_backIJRjRKjEEERS2_DpOT_ENKUlvE0_clEv, symObjAddr: 0x5BB4, symBinAddr: 0x82F54, symSize: 0xE8 }
  - { offset: 0x4A40E9, size: 0x8, addend: 0x0, symName: __ZN22llama_memory_recurrent10state_readER15llama_io_read_iij.cold.1, symObjAddr: 0x5C9C, symBinAddr: 0x363AF0, symSize: 0x1C }
  - { offset: 0x4A415F, size: 0x8, addend: 0x0, symName: __ZN22llama_memory_recurrent10state_readER15llama_io_read_iij, symObjAddr: 0x3808, symBinAddr: 0x81770, symSize: 0x138 }
  - { offset: 0x4A435E, size: 0x8, addend: 0x0, symName: __ZN22llama_memory_recurrent15state_read_metaER15llama_io_read_iji, symObjAddr: 0x3940, symBinAddr: 0x818A8, symSize: 0x59C }
  - { offset: 0x4A4D54, size: 0x8, addend: 0x0, symName: __ZN22llama_memory_recurrent15state_read_dataER15llama_io_read_ij, symObjAddr: 0x3EDC, symBinAddr: 0x81E44, symSize: 0x504 }
  - { offset: 0x4A52D4, size: 0x8, addend: 0x0, symName: __ZN22llama_memory_recurrent10state_readER15llama_io_read_iij.cold.1, symObjAddr: 0x5C9C, symBinAddr: 0x363AF0, symSize: 0x1C }
  - { offset: 0x4A5D8E, size: 0x8, addend: 0x0, symName: __ZN30llama_memory_recurrent_contextC2E19llama_memory_status, symObjAddr: 0x43E0, symBinAddr: 0x82348, symSize: 0x24 }
  - { offset: 0x4A5DF2, size: 0x8, addend: 0x0, symName: __ZN30llama_memory_recurrent_contextC1E19llama_memory_status, symObjAddr: 0x4404, symBinAddr: 0x8236C, symSize: 0x24 }
  - { offset: 0x4A5E1B, size: 0x8, addend: 0x0, symName: __ZN30llama_memory_recurrent_contextC1E19llama_memory_status, symObjAddr: 0x4404, symBinAddr: 0x8236C, symSize: 0x24 }
  - { offset: 0x4A5E7A, size: 0x8, addend: 0x0, symName: __ZN30llama_memory_recurrent_contextC2EP22llama_memory_recurrent, symObjAddr: 0x4428, symBinAddr: 0x82390, symSize: 0x2C }
  - { offset: 0x4A5EDE, size: 0x8, addend: 0x0, symName: __ZN30llama_memory_recurrent_contextC1EP22llama_memory_recurrent, symObjAddr: 0x4454, symBinAddr: 0x823BC, symSize: 0x2C }
  - { offset: 0x4A5F07, size: 0x8, addend: 0x0, symName: __ZN30llama_memory_recurrent_contextC1EP22llama_memory_recurrent, symObjAddr: 0x4454, symBinAddr: 0x823BC, symSize: 0x2C }
  - { offset: 0x4A5F66, size: 0x8, addend: 0x0, symName: __ZN30llama_memory_recurrent_contextC2EP22llama_memory_recurrentNSt3__16vectorI12llama_ubatchNS2_9allocatorIS4_EEEE, symObjAddr: 0x4480, symBinAddr: 0x823E8, symSize: 0x40 }
  - { offset: 0x4A5FE1, size: 0x8, addend: 0x0, symName: __ZN30llama_memory_recurrent_contextC1EP22llama_memory_recurrentNSt3__16vectorI12llama_ubatchNS2_9allocatorIS4_EEEE, symObjAddr: 0x44C0, symBinAddr: 0x82428, symSize: 0x40 }
  - { offset: 0x4A6012, size: 0x8, addend: 0x0, symName: __ZN30llama_memory_recurrent_contextC1EP22llama_memory_recurrentNSt3__16vectorI12llama_ubatchNS2_9allocatorIS4_EEEE, symObjAddr: 0x44C0, symBinAddr: 0x82428, symSize: 0x40 }
  - { offset: 0x4A6088, size: 0x8, addend: 0x0, symName: __ZN30llama_memory_recurrent_contextD2Ev, symObjAddr: 0x4500, symBinAddr: 0x82468, symSize: 0xA4 }
  - { offset: 0x4A62E2, size: 0x8, addend: 0x0, symName: __ZN30llama_memory_recurrent_contextD1Ev, symObjAddr: 0x45A4, symBinAddr: 0x8250C, symSize: 0xA4 }
  - { offset: 0x4A6559, size: 0x8, addend: 0x0, symName: __ZN30llama_memory_recurrent_contextD0Ev, symObjAddr: 0x4648, symBinAddr: 0x825B0, symSize: 0xA4 }
  - { offset: 0x4A67D8, size: 0x8, addend: 0x0, symName: __ZN30llama_memory_recurrent_context4nextEv, symObjAddr: 0x46EC, symBinAddr: 0x82654, symSize: 0x38 }
  - { offset: 0x4A6859, size: 0x8, addend: 0x0, symName: __ZN30llama_memory_recurrent_context5applyEv, symObjAddr: 0x4724, symBinAddr: 0x8268C, symSize: 0x34 }
  - { offset: 0x4A6885, size: 0x8, addend: 0x0, symName: __ZN30llama_memory_recurrent_context5applyEv, symObjAddr: 0x4724, symBinAddr: 0x8268C, symSize: 0x34 }
  - { offset: 0x4A68CD, size: 0x8, addend: 0x0, symName: __ZNK30llama_memory_recurrent_context10get_statusEv, symObjAddr: 0x4758, symBinAddr: 0x826C0, symSize: 0x8 }
  - { offset: 0x4A6919, size: 0x8, addend: 0x0, symName: __ZNK30llama_memory_recurrent_context10get_ubatchEv, symObjAddr: 0x4760, symBinAddr: 0x826C8, symSize: 0x10 }
  - { offset: 0x4A6969, size: 0x8, addend: 0x0, symName: __ZNK30llama_memory_recurrent_context8get_n_rsEv, symObjAddr: 0x4770, symBinAddr: 0x826D8, symSize: 0x20 }
  - { offset: 0x4A6993, size: 0x8, addend: 0x0, symName: __ZNK30llama_memory_recurrent_context8get_headEv, symObjAddr: 0x4790, symBinAddr: 0x826F8, symSize: 0x1C }
  - { offset: 0x4A69BD, size: 0x8, addend: 0x0, symName: __ZNK30llama_memory_recurrent_context8get_rs_zEv, symObjAddr: 0x47AC, symBinAddr: 0x82714, symSize: 0x1C }
  - { offset: 0x4A69E7, size: 0x8, addend: 0x0, symName: __ZNK30llama_memory_recurrent_context8get_sizeEv, symObjAddr: 0x47C8, symBinAddr: 0x82730, symSize: 0xC }
  - { offset: 0x4A6A11, size: 0x8, addend: 0x0, symName: __ZNK30llama_memory_recurrent_context7get_r_lEi, symObjAddr: 0x47D4, symBinAddr: 0x8273C, symSize: 0x10 }
  - { offset: 0x4A6A69, size: 0x8, addend: 0x0, symName: __ZNK30llama_memory_recurrent_context7get_s_lEi, symObjAddr: 0x47E4, symBinAddr: 0x8274C, symSize: 0x10 }
  - { offset: 0x4A6AED, size: 0x8, addend: 0x0, symName: __ZNK30llama_memory_recurrent_context6s_copyEi, symObjAddr: 0x47F4, symBinAddr: 0x8275C, symSize: 0x64 }
  - { offset: 0x4A6C2A, size: 0x8, addend: 0x0, symName: __ZN22llama_memory_recurrentD1Ev, symObjAddr: 0x4858, symBinAddr: 0x827C0, symSize: 0x4 }
  - { offset: 0x4A6C4D, size: 0x8, addend: 0x0, symName: __ZN22llama_memory_recurrentD1Ev, symObjAddr: 0x4858, symBinAddr: 0x827C0, symSize: 0x4 }
  - { offset: 0x4A6C60, size: 0x8, addend: 0x0, symName: __ZN22llama_memory_recurrentD2Ev, symObjAddr: 0x4D0C, symBinAddr: 0x82894, symSize: 0x114 }
  - { offset: 0x4A74C4, size: 0x8, addend: 0x0, symName: __ZN22llama_memory_recurrentD0Ev, symObjAddr: 0x485C, symBinAddr: 0x827C4, symSize: 0x14 }
  - { offset: 0x4A807A, size: 0x8, addend: 0x0, symName: __ZNSt3__128__exception_guard_exceptionsINS_29_AllocatorDestroyRangeReverseINS_9allocatorIN22llama_memory_recurrent8mem_cellEEEPS4_EEED1B9nqe220106Ev, symObjAddr: 0x4EBC, symBinAddr: 0x829BC, symSize: 0x74 }
  - { offset: 0x4A86F0, size: 0x8, addend: 0x0, symName: __ZNSt3__16vectorIN22llama_memory_recurrent8mem_cellENS_9allocatorIS2_EEE16__init_with_sizeB9nqe220106IPS2_S7_EEvT_T0_m, symObjAddr: 0x56D4, symBinAddr: 0x82A88, symSize: 0x15C }
  - { offset: 0x4A89EA, size: 0x8, addend: 0x0, symName: __ZNSt3__16__treeIiNS_4lessIiEENS_9allocatorIiEEE21__construct_from_treeB9nqe220106IZNS5_21__copy_construct_treeB9nqe220106EPNS_11__tree_nodeIiPvEEEUlRKiE_EESA_SA_T_, symObjAddr: 0x58BC, symBinAddr: 0x82C70, symSize: 0xDC }
  - { offset: 0x4A8DFB, size: 0x8, addend: 0x0, symName: __ZNSt3__128__exception_guard_exceptionsINS_6vectorIN22llama_memory_recurrent8mem_cellENS_9allocatorIS3_EEE16__destroy_vectorEED1B9nqe220106Ev, symObjAddr: 0x5830, symBinAddr: 0x82BE4, symSize: 0x8C }
  - { offset: 0x4A9255, size: 0x8, addend: 0x0, symName: __ZNSt3__110unique_ptrINS_11__tree_nodeIiPvEENS_6__treeIiNS_4lessIiEENS_9allocatorIiEEE14__tree_deleterEED1B9nqe220106Ev, symObjAddr: 0x5998, symBinAddr: 0x82D4C, symSize: 0x38 }
  - { offset: 0x4A9504, size: 0x8, addend: 0x0, symName: __ZZNSt3__16vectorINS_4pairIjjEENS_9allocatorIS2_EEE12emplace_backIJRjS7_EEERS2_DpOT_ENKUlvE0_clEv, symObjAddr: 0x5ACC, symBinAddr: 0x82E6C, symSize: 0xE8 }
  - { offset: 0x4AB46A, size: 0x8, addend: 0x0, symName: __Z27llama_memory_status_combine19llama_memory_statusS_, symObjAddr: 0x0, symBinAddr: 0x8303C, symSize: 0x38 }
  - { offset: 0x4AB47F, size: 0x8, addend: 0x0, symName: __Z27llama_memory_status_combine19llama_memory_statusS_, symObjAddr: 0x0, symBinAddr: 0x8303C, symSize: 0x38 }
  - { offset: 0x4AB4CB, size: 0x8, addend: 0x0, symName: __Z27llama_memory_status_is_fail19llama_memory_status, symObjAddr: 0x38, symBinAddr: 0x83074, symSize: 0x10 }
  - { offset: 0x4ADF9B, size: 0x8, addend: 0x0, symName: __ZN10llama_mmap9SUPPORTEDE, symObjAddr: 0x1D84, symBinAddr: 0x3B651B, symSize: 0x0 }
  - { offset: 0x4B383E, size: 0x8, addend: 0x0, symName: __ZN11llama_mlock9SUPPORTEDE, symObjAddr: 0x1D85, symBinAddr: 0x3B651C, symSize: 0x0 }
  - { offset: 0x4B3A83, size: 0x8, addend: 0x0, symName: __ZN10llama_fileC2EPKcS1_b, symObjAddr: 0x0, symBinAddr: 0x83084, symSize: 0x70 }
  - { offset: 0x4B3B6C, size: 0x8, addend: 0x0, symName: __ZN10llama_file4implC2EPKcS2_b, symObjAddr: 0x16D8, symBinAddr: 0x846B0, symSize: 0xF8 }
  - { offset: 0x4B3FC2, size: 0x8, addend: 0x0, symName: __ZN10llama_fileC1EPKcS1_b, symObjAddr: 0x70, symBinAddr: 0x830F4, symSize: 0x70 }
  - { offset: 0x4B4368, size: 0x8, addend: 0x0, symName: __ZN10llama_fileC2EP7__sFILE, symObjAddr: 0xE0, symBinAddr: 0x83164, symSize: 0xC8 }
  - { offset: 0x4B468A, size: 0x8, addend: 0x0, symName: __ZNK10llama_file4impl4seekEmi, symObjAddr: 0x450, symBinAddr: 0x834D4, symSize: 0xEC }
  - { offset: 0x4B4835, size: 0x8, addend: 0x0, symName: __ZNK10llama_file4impl4tellEv, symObjAddr: 0x294, symBinAddr: 0x83318, symSize: 0x158 }
  - { offset: 0x4B4A95, size: 0x8, addend: 0x0, symName: __ZN10llama_fileC1EP7__sFILE, symObjAddr: 0x1A8, symBinAddr: 0x8322C, symSize: 0x4 }
  - { offset: 0x4B4AD2, size: 0x8, addend: 0x0, symName: __ZN10llama_fileC1EP7__sFILE, symObjAddr: 0x1A8, symBinAddr: 0x8322C, symSize: 0x4 }
  - { offset: 0x4B4BB8, size: 0x8, addend: 0x0, symName: __ZN10llama_fileD2Ev, symObjAddr: 0x1AC, symBinAddr: 0x83230, symSize: 0x70 }
  - { offset: 0x4B4DEE, size: 0x8, addend: 0x0, symName: __ZN10llama_fileD1Ev, symObjAddr: 0x21C, symBinAddr: 0x832A0, symSize: 0x70 }
  - { offset: 0x4B501D, size: 0x8, addend: 0x0, symName: __ZNK10llama_file4tellEv, symObjAddr: 0x28C, symBinAddr: 0x83310, symSize: 0x8 }
  - { offset: 0x4B5049, size: 0x8, addend: 0x0, symName: __ZNK10llama_file4tellEv, symObjAddr: 0x28C, symBinAddr: 0x83310, symSize: 0x8 }
  - { offset: 0x4B50E9, size: 0x8, addend: 0x0, symName: __ZNK10llama_file4sizeEv, symObjAddr: 0x3EC, symBinAddr: 0x83470, symSize: 0xC }
  - { offset: 0x4B510D, size: 0x8, addend: 0x0, symName: __ZNK10llama_file4sizeEv, symObjAddr: 0x3EC, symBinAddr: 0x83470, symSize: 0xC }
  - { offset: 0x4B5143, size: 0x8, addend: 0x0, symName: __ZNK10llama_file14read_alignmentEv, symObjAddr: 0x3F8, symBinAddr: 0x8347C, symSize: 0xC }
  - { offset: 0x4B516F, size: 0x8, addend: 0x0, symName: __ZNK10llama_file14read_alignmentEv, symObjAddr: 0x3F8, symBinAddr: 0x8347C, symSize: 0xC }
  - { offset: 0x4B51BD, size: 0x8, addend: 0x0, symName: __ZNK10llama_file13has_direct_ioEv, symObjAddr: 0x404, symBinAddr: 0x83488, symSize: 0x28 }
  - { offset: 0x4B51E9, size: 0x8, addend: 0x0, symName: __ZNK10llama_file13has_direct_ioEv, symObjAddr: 0x404, symBinAddr: 0x83488, symSize: 0x28 }
  - { offset: 0x4B5223, size: 0x8, addend: 0x0, symName: __ZNK10llama_file7file_idEv, symObjAddr: 0x42C, symBinAddr: 0x834B0, symSize: 0x1C }
  - { offset: 0x4B5247, size: 0x8, addend: 0x0, symName: __ZNK10llama_file7file_idEv, symObjAddr: 0x42C, symBinAddr: 0x834B0, symSize: 0x1C }
  - { offset: 0x4B5283, size: 0x8, addend: 0x0, symName: __ZNK10llama_file4seekEmi, symObjAddr: 0x448, symBinAddr: 0x834CC, symSize: 0x8 }
  - { offset: 0x4B52CB, size: 0x8, addend: 0x0, symName: __ZNK10llama_file4seekEmi, symObjAddr: 0x448, symBinAddr: 0x834CC, symSize: 0x8 }
  - { offset: 0x4B534E, size: 0x8, addend: 0x0, symName: __ZN10llama_file8read_rawEPvm, symObjAddr: 0x53C, symBinAddr: 0x835C0, symSize: 0x24 }
  - { offset: 0x4B5396, size: 0x8, addend: 0x0, symName: __ZN10llama_file8read_rawEPvm, symObjAddr: 0x53C, symBinAddr: 0x835C0, symSize: 0x24 }
  - { offset: 0x4B5407, size: 0x8, addend: 0x0, symName: __ZN10llama_file4impl18read_aligned_chunkEPvm, symObjAddr: 0x110C, symBinAddr: 0x84180, symSize: 0x15C }
  - { offset: 0x4B5769, size: 0x8, addend: 0x0, symName: __ZN10llama_file4impl15read_raw_unsafeEPvm, symObjAddr: 0x568, symBinAddr: 0x835EC, symSize: 0x36C }
  - { offset: 0x4B5BAB, size: 0x8, addend: 0x0, symName: __ZN10llama_file15read_raw_unsafeEPvm, symObjAddr: 0x560, symBinAddr: 0x835E4, symSize: 0x8 }
  - { offset: 0x4B5BF3, size: 0x8, addend: 0x0, symName: __ZN10llama_file15read_raw_unsafeEPvm, symObjAddr: 0x560, symBinAddr: 0x835E4, symSize: 0x8 }
  - { offset: 0x4B5C42, size: 0x8, addend: 0x0, symName: __ZN10llama_file4impl7init_fpEPKc, symObjAddr: 0x1268, symBinAddr: 0x842DC, symSize: 0x118 }
  - { offset: 0x4B5F93, size: 0x8, addend: 0x0, symName: __ZN10llama_file4impl15read_raw_unsafeEPvm.cold.2, symObjAddr: 0x1B94, symBinAddr: 0x363B18, symSize: 0xC }
  - { offset: 0x4B5FAB, size: 0x8, addend: 0x0, symName: __ZN10llama_file4impl15read_raw_unsafeEPvm.cold.1, symObjAddr: 0x1B88, symBinAddr: 0x363B0C, symSize: 0xC }
  - { offset: 0x4B5FE5, size: 0x8, addend: 0x0, symName: __ZN10llama_file8read_u32Ev, symObjAddr: 0x8D4, symBinAddr: 0x83958, symSize: 0x60 }
  - { offset: 0x4B60C2, size: 0x8, addend: 0x0, symName: __ZNK10llama_file9write_rawEPKvm, symObjAddr: 0x934, symBinAddr: 0x839B8, symSize: 0x8 }
  - { offset: 0x4B610A, size: 0x8, addend: 0x0, symName: __ZNK10llama_file9write_rawEPKvm, symObjAddr: 0x934, symBinAddr: 0x839B8, symSize: 0x8 }
  - { offset: 0x4B6142, size: 0x8, addend: 0x0, symName: __ZNK10llama_file4impl9write_rawEPKvm, symObjAddr: 0x93C, symBinAddr: 0x839C0, symSize: 0xF0 }
  - { offset: 0x4B6346, size: 0x8, addend: 0x0, symName: __ZNK10llama_file9write_u32Ej, symObjAddr: 0xA2C, symBinAddr: 0x83AB0, symSize: 0x2C }
  - { offset: 0x4B6492, size: 0x8, addend: 0x0, symName: __ZN10llama_mmapC2EP10llama_filemb, symObjAddr: 0xA58, symBinAddr: 0x83ADC, symSize: 0x70 }
  - { offset: 0x4B657B, size: 0x8, addend: 0x0, symName: __ZN10llama_mmap4implC2EP10llama_filemb, symObjAddr: 0x17E4, symBinAddr: 0x847A8, symSize: 0x218 }
  - { offset: 0x4B6BFC, size: 0x8, addend: 0x0, symName: __ZN10llama_mmapC1EP10llama_filemb, symObjAddr: 0xAC8, symBinAddr: 0x83B4C, symSize: 0x70 }
  - { offset: 0x4B6DE6, size: 0x8, addend: 0x0, symName: __ZN10llama_mmapD2Ev, symObjAddr: 0xB38, symBinAddr: 0x83BBC, symSize: 0x3C }
  - { offset: 0x4B6EC7, size: 0x8, addend: 0x0, symName: __ZN10llama_mmap4implD2Ev, symObjAddr: 0x1AE4, symBinAddr: 0x84AA8, symSize: 0xA4 }
  - { offset: 0x4B70D4, size: 0x8, addend: 0x0, symName: __ZN10llama_mmapD1Ev, symObjAddr: 0xB74, symBinAddr: 0x83BF8, symSize: 0x3C }
  - { offset: 0x4B71FF, size: 0x8, addend: 0x0, symName: __ZNK10llama_mmap4sizeEv, symObjAddr: 0xBB0, symBinAddr: 0x83C34, symSize: 0xC }
  - { offset: 0x4B722B, size: 0x8, addend: 0x0, symName: __ZNK10llama_mmap4sizeEv, symObjAddr: 0xBB0, symBinAddr: 0x83C34, symSize: 0xC }
  - { offset: 0x4B7246, size: 0x8, addend: 0x0, symName: __ZNK10llama_mmap4addrEv, symObjAddr: 0xBBC, symBinAddr: 0x83C40, symSize: 0xC }
  - { offset: 0x4B7272, size: 0x8, addend: 0x0, symName: __ZNK10llama_mmap4addrEv, symObjAddr: 0xBBC, symBinAddr: 0x83C40, symSize: 0xC }
  - { offset: 0x4B728D, size: 0x8, addend: 0x0, symName: __ZN10llama_mmap14unmap_fragmentEmm, symObjAddr: 0xBC8, symBinAddr: 0x83C4C, symSize: 0x8 }
  - { offset: 0x4B72D5, size: 0x8, addend: 0x0, symName: __ZN10llama_mmap14unmap_fragmentEmm, symObjAddr: 0xBC8, symBinAddr: 0x83C4C, symSize: 0x8 }
  - { offset: 0x4B730D, size: 0x8, addend: 0x0, symName: __ZN10llama_mmap4impl14unmap_fragmentEmm, symObjAddr: 0xBD0, symBinAddr: 0x83C54, symSize: 0x30C }
  - { offset: 0x4B8837, size: 0x8, addend: 0x0, symName: __ZZNSt3__16vectorINS_4pairImmEENS_9allocatorIS2_EEE12emplace_backIJRmRKmEEERS2_DpOT_ENKUlvE0_clEv, symObjAddr: 0x1518, symBinAddr: 0x844F0, symSize: 0xE8 }
  - { offset: 0x4B8BAB, size: 0x8, addend: 0x0, symName: __ZZNSt3__16vectorINS_4pairImmEENS_9allocatorIS2_EEE12emplace_backIJRKS2_EEERS2_DpOT_ENKUlvE0_clEv, symObjAddr: 0x1600, symBinAddr: 0x845D8, symSize: 0xD8 }
  - { offset: 0x4B8BC0, size: 0x8, addend: 0x0, symName: __ZZNSt3__16vectorINS_4pairImmEENS_9allocatorIS2_EEE12emplace_backIJRKS2_EEERS2_DpOT_ENKUlvE0_clEv, symObjAddr: 0x1600, symBinAddr: 0x845D8, symSize: 0xD8 }
  - { offset: 0x4B8EC9, size: 0x8, addend: 0x0, symName: __ZN10llama_file4implC2EPKcS2_b, symObjAddr: 0x16D8, symBinAddr: 0x846B0, symSize: 0xF8 }
  - { offset: 0x4B8EDE, size: 0x8, addend: 0x0, symName: __ZZNSt3__16vectorINS_4pairImmEENS_9allocatorIS2_EEE12emplace_backIJRKmRmEEERS2_DpOT_ENKUlvE0_clEv, symObjAddr: 0x1380, symBinAddr: 0x843F4, symSize: 0xE8 }
  - { offset: 0x4B9252, size: 0x8, addend: 0x0, symName: __ZNSt3__16vectorINS_4pairImmEENS_9allocatorIS2_EEE20__throw_length_errorB9nqe220106Ev, symObjAddr: 0x1468, symBinAddr: 0x844DC, symSize: 0x14 }
  - { offset: 0x4B9310, size: 0x8, addend: 0x0, symName: __ZN11llama_mlockC2Ev, symObjAddr: 0xEDC, symBinAddr: 0x83F60, symSize: 0x34 }
  - { offset: 0x4B93EB, size: 0x8, addend: 0x0, symName: __ZN11llama_mlockC1Ev, symObjAddr: 0xF10, symBinAddr: 0x83F94, symSize: 0x34 }
  - { offset: 0x4B955D, size: 0x8, addend: 0x0, symName: __ZN11llama_mlockD2Ev, symObjAddr: 0xF44, symBinAddr: 0x83FC8, symSize: 0x34 }
  - { offset: 0x4B9581, size: 0x8, addend: 0x0, symName: __ZN11llama_mlockD2Ev, symObjAddr: 0xF44, symBinAddr: 0x83FC8, symSize: 0x34 }
  - { offset: 0x4B959F, size: 0x8, addend: 0x0, symName: __ZN11llama_mlockD2Ev, symObjAddr: 0xF44, symBinAddr: 0x83FC8, symSize: 0x34 }
  - { offset: 0x4B95BD, size: 0x8, addend: 0x0, symName: __ZN11llama_mlockD2Ev, symObjAddr: 0xF44, symBinAddr: 0x83FC8, symSize: 0x34 }
  - { offset: 0x4B9635, size: 0x8, addend: 0x0, symName: __ZN11llama_mlockD1Ev, symObjAddr: 0xF78, symBinAddr: 0x83FFC, symSize: 0x34 }
  - { offset: 0x4B9669, size: 0x8, addend: 0x0, symName: __ZN11llama_mlockD1Ev, symObjAddr: 0xF78, symBinAddr: 0x83FFC, symSize: 0x34 }
  - { offset: 0x4B9687, size: 0x8, addend: 0x0, symName: __ZN11llama_mlockD1Ev, symObjAddr: 0xF78, symBinAddr: 0x83FFC, symSize: 0x34 }
  - { offset: 0x4B96A5, size: 0x8, addend: 0x0, symName: __ZN11llama_mlockD1Ev, symObjAddr: 0xF78, symBinAddr: 0x83FFC, symSize: 0x34 }
  - { offset: 0x4B96C3, size: 0x8, addend: 0x0, symName: __ZN11llama_mlockD1Ev, symObjAddr: 0xF78, symBinAddr: 0x83FFC, symSize: 0x34 }
  - { offset: 0x4B9758, size: 0x8, addend: 0x0, symName: __ZN11llama_mlock4initEPv, symObjAddr: 0xFAC, symBinAddr: 0x84030, symSize: 0x4C }
  - { offset: 0x4B9794, size: 0x8, addend: 0x0, symName: __ZN11llama_mlock4initEPv, symObjAddr: 0xFAC, symBinAddr: 0x84030, symSize: 0x4C }
  - { offset: 0x4B97C8, size: 0x8, addend: 0x0, symName: __ZN11llama_mlock7grow_toEm, symObjAddr: 0xFF8, symBinAddr: 0x8407C, symSize: 0x8 }
  - { offset: 0x4B97DB, size: 0x8, addend: 0x0, symName: __ZN11llama_mlock7grow_toEm, symObjAddr: 0xFF8, symBinAddr: 0x8407C, symSize: 0x8 }
  - { offset: 0x4B9815, size: 0x8, addend: 0x0, symName: __ZN11llama_mlock7grow_toEm, symObjAddr: 0xFF8, symBinAddr: 0x8407C, symSize: 0x8 }
  - { offset: 0x4B9846, size: 0x8, addend: 0x0, symName: __ZN11llama_mlock4impl7grow_toEm, symObjAddr: 0x1000, symBinAddr: 0x84084, symSize: 0xF4 }
  - { offset: 0x4B993E, size: 0x8, addend: 0x0, symName: __Z14llama_path_maxv, symObjAddr: 0x10F4, symBinAddr: 0x84178, symSize: 0x8 }
  - { offset: 0x4B99BA, size: 0x8, addend: 0x0, symName: __Z14llama_path_maxv, symObjAddr: 0x10F4, symBinAddr: 0x84178, symSize: 0x8 }
  - { offset: 0x4B9D2E, size: 0x8, addend: 0x0, symName: __ZNSt3__16vectorINS_4pairImmEENS_9allocatorIS2_EEE20__throw_length_errorB9nqe220106Ev, symObjAddr: 0x1468, symBinAddr: 0x844DC, symSize: 0x14 }
  - { offset: 0x4B9F67, size: 0x8, addend: 0x0, symName: __ZN10llama_mmap4implC2EP10llama_filemb, symObjAddr: 0x17E4, symBinAddr: 0x847A8, symSize: 0x218 }
  - { offset: 0x4BA29C, size: 0x8, addend: 0x0, symName: __ZZNSt3__16vectorINS_4pairImmEENS_9allocatorIS2_EEE12emplace_backIJimEEERS2_DpOT_ENKUlvE0_clEv, symObjAddr: 0x19FC, symBinAddr: 0x849C0, symSize: 0xE8 }
  - { offset: 0x4BA610, size: 0x8, addend: 0x0, symName: __ZN10llama_mmap4implD2Ev, symObjAddr: 0x1AE4, symBinAddr: 0x84AA8, symSize: 0xA4 }
  - { offset: 0x4BA680, size: 0x8, addend: 0x0, symName: _OUTLINED_FUNCTION_0, symObjAddr: 0x1BA0, symBinAddr: 0x84B4C, symSize: 0x14 }
  - { offset: 0x4BC37D, size: 0x8, addend: 0x0, symName: _llama_ftype_name, symObjAddr: 0x28, symBinAddr: 0x84B88, symSize: 0x48 }
  - { offset: 0x4EAC10, size: 0x8, addend: 0x0, symName: __ZNSt3__120__throw_future_errorB9nqe220106ENS_11future_errcE, symObjAddr: 0x18F60, symBinAddr: 0x9592C, symSize: 0x5C }
  - { offset: 0x4ED434, size: 0x8, addend: 0x0, symName: '__ZNSt3__117__call_once_proxyB9nqe220106INS_5tupleIJOZZN18llama_model_loader13create_tensorERK13llama_hparamsPKNS_6vectorINS_4pairIP19ggml_backend_deviceP24ggml_backend_buffer_typeEENS_9allocatorISC_EEEESH_SH_SH_RK11LLM_TN_IMPLRKSt16initializer_listIxEiENK3$_1clEP11ggml_tensorEUlvE_EEEEEvPv', symObjAddr: 0x15564, symBinAddr: 0x92830, symSize: 0x10 }
  - { offset: 0x4ED467, size: 0x8, addend: 0x0, symName: '__ZNSt3__117__call_once_proxyB9nqe220106INS_5tupleIJOZZN18llama_model_loader13create_tensorERK13llama_hparamsPKNS_6vectorINS_4pairIP19ggml_backend_deviceP24ggml_backend_buffer_typeEENS_9allocatorISC_EEEESH_SH_SH_RK11LLM_TN_IMPLRKSt16initializer_listIxEiENK3$_1clEP11ggml_tensorEUlvE_EEEEEvPv', symObjAddr: 0x15564, symBinAddr: 0x92830, symSize: 0x10 }
  - { offset: 0x4ED47B, size: 0x8, addend: 0x0, symName: '__ZNSt3__117__call_once_proxyB9nqe220106INS_5tupleIJOZZN18llama_model_loader13create_tensorERK13llama_hparamsPKNS_6vectorINS_4pairIP19ggml_backend_deviceP24ggml_backend_buffer_typeEENS_9allocatorISC_EEEESH_SH_SH_RK11LLM_TN_IMPLRKSt16initializer_listIxEiENK3$_1clEP11ggml_tensorEUlvE_EEEEEvPv', symObjAddr: 0x15564, symBinAddr: 0x92830, symSize: 0x10 }
  - { offset: 0x4ED48F, size: 0x8, addend: 0x0, symName: '__ZNSt3__117__call_once_proxyB9nqe220106INS_5tupleIJOZZN18llama_model_loader13create_tensorERK13llama_hparamsPKNS_6vectorINS_4pairIP19ggml_backend_deviceP24ggml_backend_buffer_typeEENS_9allocatorISC_EEEESH_SH_SH_RK11LLM_TN_IMPLRKSt16initializer_listIxEiENK3$_1clEP11ggml_tensorEUlvE_EEEEEvPv', symObjAddr: 0x15564, symBinAddr: 0x92830, symSize: 0x10 }
  - { offset: 0x4ED4A4, size: 0x8, addend: 0x0, symName: '__ZNSt3__117__call_once_proxyB9nqe220106INS_5tupleIJOZZN18llama_model_loader13create_tensorERK13llama_hparamsPKNS_6vectorINS_4pairIP19ggml_backend_deviceP24ggml_backend_buffer_typeEENS_9allocatorISC_EEEESH_SH_SH_RK11LLM_TN_IMPLRKSt16initializer_listIxEiENK3$_1clEP11ggml_tensorEUlvE_EEEEEvPv', symObjAddr: 0x15564, symBinAddr: 0x92830, symSize: 0x10 }
  - { offset: 0x4EE8AB, size: 0x8, addend: 0x0, symName: '__ZNSt3__114__thread_proxyB9nqe220106INS_5tupleIJNS_10unique_ptrINS_15__thread_structENS_14default_deleteIS3_EEEEMNS_19__async_assoc_stateINS_4pairIP11ggml_tensorbEENS_12__async_funcIZN18llama_model_loader13load_all_dataEP12ggml_contextRNS_13unordered_mapIjP19ggml_backend_bufferNS_4hashIjEENS_8equal_toIjEENS_9allocatorINS8_IKjSI_EEEEEEPNS_6vectorINS2_I11llama_mlockNS4_ISU_EEEENSN_ISW_EEEEPFbfPvES10_E3$_1JEEEEEFvvEPS15_EEEEES10_S10_', symObjAddr: 0x18FBC, symBinAddr: 0x95988, symSize: 0x8C }
  - { offset: 0x4EEE30, size: 0x8, addend: 0x0, symName: '__ZNSt3__114__thread_proxyB9nqe220106INS_5tupleIJNS_10unique_ptrINS_15__thread_structENS_14default_deleteIS3_EEEEMNS_19__async_assoc_stateINS_4pairIP11ggml_tensorbEENS_12__async_funcIZN18llama_model_loader13load_all_dataEP12ggml_contextRNS_13unordered_mapIjP19ggml_backend_bufferNS_4hashIjEENS_8equal_toIjEENS_9allocatorINS8_IKjSI_EEEEEEPNS_6vectorINS2_I11llama_mlockNS4_ISU_EEEENSN_ISW_EEEEPFbfPvES10_E3$_2JEEEEEFvvEPS15_EEEEES10_S10_', symObjAddr: 0x194C4, symBinAddr: 0x95E90, symSize: 0x8C }
  - { offset: 0x4F331C, size: 0x8, addend: 0x0, symName: __ZN18llama_model_loader13create_tensorERK13llama_hparamsPKNSt3__16vectorINS3_4pairIP19ggml_backend_deviceP24ggml_backend_buffer_typeEENS3_9allocatorISA_EEEESF_SF_SF_RK11LLM_TN_IMPLRKSt16initializer_listIxEi, symObjAddr: 0x6254, symBinAddr: 0x8AD10, symSize: 0x6C4 }
  - { offset: 0x4F47EF, size: 0x8, addend: 0x0, symName: '__ZZN18llama_model_loader13create_tensorERK13llama_hparamsPKNSt3__16vectorINS3_4pairIP19ggml_backend_deviceP24ggml_backend_buffer_typeEENS3_9allocatorISA_EEEESF_SF_SF_RK11LLM_TN_IMPLRKSt16initializer_listIxEiENK3$_1clEP11ggml_tensor', symObjAddr: 0x6918, symBinAddr: 0x8B3D4, symSize: 0x814 }
  - { offset: 0x4F4818, size: 0x8, addend: 0x0, symName: '__ZZZN18llama_model_loader13create_tensorERK13llama_hparamsPKNSt3__16vectorINS3_4pairIP19ggml_backend_deviceP24ggml_backend_buffer_typeEENS3_9allocatorISA_EEEESF_SF_SF_RK11LLM_TN_IMPLRKSt16initializer_listIxEiENK3$_1clEP11ggml_tensorE4once', symObjAddr: 0x26E698, symBinAddr: 0x4A23A8, symSize: 0x0 }
  - { offset: 0x4F64E3, size: 0x8, addend: 0x0, symName: '__ZTVNSt3__119__async_assoc_stateINS_4pairIP11ggml_tensorbEENS_12__async_funcIZN18llama_model_loader13load_all_dataEP12ggml_contextRNS_13unordered_mapIjP19ggml_backend_bufferNS_4hashIjEENS_8equal_toIjEENS_9allocatorINS1_IKjSB_EEEEEEPNS_6vectorINS_10unique_ptrI11llama_mlockNS_14default_deleteISO_EEEENSG_ISR_EEEEPFbfPvESV_E3$_1JEEEEE', symObjAddr: 0x1D048, symBinAddr: 0x3FC2D8, symSize: 0x0 }
  - { offset: 0x4F650D, size: 0x8, addend: 0x0, symName: __ZN18llama_model_loader13load_all_dataEP12ggml_contextRNSt3__113unordered_mapIjP19ggml_backend_bufferNS2_4hashIjEENS2_8equal_toIjEENS2_9allocatorINS2_4pairIKjS5_EEEEEEPNS2_6vectorINS2_10unique_ptrI11llama_mlockNS2_14default_deleteISJ_EEEENSA_ISM_EEEEPFbfPvESQ_, symObjAddr: 0x7F10, symBinAddr: 0x8C9CC, symSize: 0x18C4 }
  - { offset: 0x4FA4EF, size: 0x8, addend: 0x0, symName: '__ZTVNSt3__119__async_assoc_stateINS_4pairIP11ggml_tensorbEENS_12__async_funcIZN18llama_model_loader13load_all_dataEP12ggml_contextRNS_13unordered_mapIjP19ggml_backend_bufferNS_4hashIjEENS_8equal_toIjEENS_9allocatorINS1_IKjSB_EEEEEEPNS_6vectorINS_10unique_ptrI11llama_mlockNS_14default_deleteISO_EEEENSG_ISR_EEEEPFbfPvESV_E3$_2JEEEEE', symObjAddr: 0x1D0A8, symBinAddr: 0x3FC338, symSize: 0x0 }
  - { offset: 0x4FBF75, size: 0x8, addend: 0x0, symName: __Z23llama_file_version_name10llama_fver, symObjAddr: 0x0, symBinAddr: 0x84B60, symSize: 0x28 }
  - { offset: 0x4FC085, size: 0x8, addend: 0x0, symName: __ZN18llama_model_loader9get_arr_nIjEENSt3__19enable_ifIXsr3std11is_integralIT_EE5valueEbE4typeE6llm_kvRS3_b, symObjAddr: 0x70, symBinAddr: 0x84BD0, symSize: 0xA0 }
  - { offset: 0x4FC30D, size: 0x8, addend: 0x0, symName: __ZN18llama_model_loader9get_arr_nIjEENSt3__19enable_ifIXsr3std11is_integralIT_EE5valueEbE4typeERKNS1_12basic_stringIcNS1_11char_traitsIcEENS1_9allocatorIcEEEERS3_b, symObjAddr: 0x110, symBinAddr: 0x84C70, symSize: 0x120 }
  - { offset: 0x4FC624, size: 0x8, addend: 0x0, symName: __ZN8GGUFMeta3GKVINS_9ArrayInfoEE6get_kvEPK12gguf_contexti, symObjAddr: 0x230, symBinAddr: 0x84D90, symSize: 0x150 }
  - { offset: 0x4FC912, size: 0x8, addend: 0x0, symName: __ZN18llama_model_loader7get_arrINSt3__16vectorINS1_12basic_stringIcNS1_11char_traitsIcEENS1_9allocatorIcEEEENS6_IS8_EEEEEEb6llm_kvRT_b, symObjAddr: 0x380, symBinAddr: 0x84EE0, symSize: 0xA0 }
  - { offset: 0x4FCB9A, size: 0x8, addend: 0x0, symName: __ZN18llama_model_loader7get_arrINSt3__112basic_stringIcNS1_11char_traitsIcEENS1_9allocatorIcEEEEEEbRKS7_RNS1_6vectorIT_NS5_ISB_EEEEb, symObjAddr: 0x420, symBinAddr: 0x84F80, symSize: 0x394 }
  - { offset: 0x4FE35F, size: 0x8, addend: 0x0, symName: __ZZNSt3__16vectorINS_12basic_stringIcNS_11char_traitsIcEENS_9allocatorIcEEEENS4_IS6_EEE12emplace_backIJS6_EEERS6_DpOT_ENKUlvE0_clEv, symObjAddr: 0x9D00, symBinAddr: 0x8E6E8, symSize: 0x104 }
  - { offset: 0x4FE384, size: 0x8, addend: 0x0, symName: __ZN18llama_model_loader7get_arrINSt3__15arrayIiLm512EEEEEb6llm_kvRT_b, symObjAddr: 0x7B4, symBinAddr: 0x85314, symSize: 0xA0 }
  - { offset: 0x4FE60C, size: 0x8, addend: 0x0, symName: __ZN18llama_model_loader7get_arrIiLm512EEEbRKNSt3__112basic_stringIcNS1_11char_traitsIcEENS1_9allocatorIcEEEERNS1_5arrayIT_XT0_EEEb, symObjAddr: 0x854, symBinAddr: 0x853B4, symSize: 0x418 }
  - { offset: 0x4FEE14, size: 0x8, addend: 0x0, symName: __ZN18llama_model_loader7get_arrINSt3__16vectorIiNS1_9allocatorIiEEEEEEb6llm_kvRT_b, symObjAddr: 0xC6C, symBinAddr: 0x857CC, symSize: 0xA0 }
  - { offset: 0x4FF09C, size: 0x8, addend: 0x0, symName: __ZN18llama_model_loader7get_arrIiEEbRKNSt3__112basic_stringIcNS1_11char_traitsIcEENS1_9allocatorIcEEEERNS1_6vectorIT_NS5_ISB_EEEEb, symObjAddr: 0xD0C, symBinAddr: 0x8586C, symSize: 0x250 }
  - { offset: 0x4FF8B1, size: 0x8, addend: 0x0, symName: __ZNSt3__16vectorIiNS_9allocatorIiEEE18__assign_with_sizeB9nqe220106INS_17_ClassicAlgPolicyEPKiS7_EEvT0_T1_l, symObjAddr: 0x15C9C, symBinAddr: 0x92BCC, symSize: 0x1FC }
  - { offset: 0x4FFFD7, size: 0x8, addend: 0x0, symName: __ZNSt3__112__hash_tableINS_17__hash_value_typeINS_12basic_stringIcNS_11char_traitsIcEENS_9allocatorIcEEEE23llama_model_kv_overrideEENS_22__unordered_map_hasherIS7_NS_4pairIKS7_S8_EENS_4hashIS7_EENS_8equal_toIS7_EEEENS_21__unordered_map_equalIS7_SD_SH_SF_EENS5_ISD_EEE4findIS7_EENS_15__hash_iteratorIPNS_11__hash_nodeIS9_PvEEEERKT_, symObjAddr: 0x15E98, symBinAddr: 0x92DC8, symSize: 0x1BC }
  - { offset: 0x4FFFFD, size: 0x8, addend: 0x0, symName: __ZN18llama_model_loader7get_arrINSt3__15arrayIjLm512EEEEEb6llm_kvRT_b, symObjAddr: 0xF5C, symBinAddr: 0x85ABC, symSize: 0xA0 }
  - { offset: 0x500285, size: 0x8, addend: 0x0, symName: __ZN18llama_model_loader7get_arrIjLm512EEEbRKNSt3__112basic_stringIcNS1_11char_traitsIcEENS1_9allocatorIcEEEERNS1_5arrayIT_XT0_EEEb, symObjAddr: 0xFFC, symBinAddr: 0x85B5C, symSize: 0x418 }
  - { offset: 0x500AB7, size: 0x8, addend: 0x0, symName: __ZN18llama_model_loader7get_keyIbEEb6llm_kvRT_b, symObjAddr: 0x1414, symBinAddr: 0x85F74, symSize: 0xA0 }
  - { offset: 0x500D3F, size: 0x8, addend: 0x0, symName: __ZN18llama_model_loader7get_keyIbEEbRKNSt3__112basic_stringIcNS1_11char_traitsIcEENS1_9allocatorIcEEEERT_b, symObjAddr: 0x14B4, symBinAddr: 0x86014, symSize: 0x154 }
  - { offset: 0x5011E6, size: 0x8, addend: 0x0, symName: __ZNSt3__112__hash_tableINS_17__hash_value_typeINS_12basic_stringIcNS_11char_traitsIcEENS_9allocatorIcEEEE23llama_model_kv_overrideEENS_22__unordered_map_hasherIS7_NS_4pairIKS7_S8_EENS_4hashIS7_EENS_8equal_toIS7_EEEENS_21__unordered_map_equalIS7_SD_SH_SF_EENS5_ISD_EEE4findIS7_EENS_15__hash_iteratorIPNS_11__hash_nodeIS9_PvEEEERKT_, symObjAddr: 0x15E98, symBinAddr: 0x92DC8, symSize: 0x1BC }
  - { offset: 0x501510, size: 0x8, addend: 0x0, symName: __ZN8GGUFMeta3GKVIbE17validate_overrideE28llama_model_kv_override_typePK23llama_model_kv_override, symObjAddr: 0x165A0, symBinAddr: 0x93084, symSize: 0x240 }
  - { offset: 0x5016F5, size: 0x8, addend: 0x0, symName: __ZN8GGUFMeta3GKVIbE6get_kvEPK12gguf_contexti, symObjAddr: 0x164A0, symBinAddr: 0x92F84, symSize: 0x100 }
  - { offset: 0x5018C9, size: 0x8, addend: 0x0, symName: __ZN18llama_model_loader7get_keyIfEEb6llm_kvRT_b, symObjAddr: 0x1608, symBinAddr: 0x86168, symSize: 0xA0 }
  - { offset: 0x501B51, size: 0x8, addend: 0x0, symName: __ZN18llama_model_loader7get_keyIfEEbRKNSt3__112basic_stringIcNS1_11char_traitsIcEENS1_9allocatorIcEEEERT_b, symObjAddr: 0x16A8, symBinAddr: 0x86208, symSize: 0x158 }
  - { offset: 0x501FD1, size: 0x8, addend: 0x0, symName: __ZN8GGUFMeta3GKVIfE17validate_overrideE28llama_model_kv_override_typePK23llama_model_kv_override, symObjAddr: 0x168E0, symBinAddr: 0x933C4, symSize: 0x240 }
  - { offset: 0x5021B6, size: 0x8, addend: 0x0, symName: __ZN8GGUFMeta3GKVIfE6get_kvEPK12gguf_contexti, symObjAddr: 0x167E0, symBinAddr: 0x932C4, symSize: 0x100 }
  - { offset: 0x50238A, size: 0x8, addend: 0x0, symName: __ZN18llama_model_loader7get_keyIjEEb6llm_kvRT_b, symObjAddr: 0x1800, symBinAddr: 0x86360, symSize: 0xA0 }
  - { offset: 0x5025EF, size: 0x8, addend: 0x0, symName: __ZN18llama_model_loader7get_keyIjEEbRKNSt3__112basic_stringIcNS1_11char_traitsIcEENS1_9allocatorIcEEEERT_b, symObjAddr: 0x18A0, symBinAddr: 0x86400, symSize: 0x154 }
  - { offset: 0x502A6F, size: 0x8, addend: 0x0, symName: __ZN8GGUFMeta3GKVIjE17validate_overrideE28llama_model_kv_override_typePK23llama_model_kv_override, symObjAddr: 0x16C20, symBinAddr: 0x93704, symSize: 0x240 }
  - { offset: 0x502C54, size: 0x8, addend: 0x0, symName: __ZN8GGUFMeta3GKVIjE6get_kvEPK12gguf_contexti, symObjAddr: 0x16B20, symBinAddr: 0x93604, symSize: 0x100 }
  - { offset: 0x502E28, size: 0x8, addend: 0x0, symName: __ZN18llama_model_loader7get_keyINSt3__112basic_stringIcNS1_11char_traitsIcEENS1_9allocatorIcEEEEEEb6llm_kvRT_b, symObjAddr: 0x19F4, symBinAddr: 0x86554, symSize: 0xA0 }
  - { offset: 0x5030B0, size: 0x8, addend: 0x0, symName: __ZN18llama_model_loader7get_keyINSt3__112basic_stringIcNS1_11char_traitsIcEENS1_9allocatorIcEEEEEEbRKS7_RT_b, symObjAddr: 0x1A94, symBinAddr: 0x865F4, symSize: 0x17C }
  - { offset: 0x5036E9, size: 0x8, addend: 0x0, symName: __ZN8GGUFMeta3GKVINSt3__112basic_stringIcNS1_11char_traitsIcEENS1_9allocatorIcEEEEE17validate_overrideE28llama_model_kv_override_typePK23llama_model_kv_override, symObjAddr: 0x16FD4, symBinAddr: 0x93AB8, symSize: 0x240 }
  - { offset: 0x5038CE, size: 0x8, addend: 0x0, symName: __ZN8GGUFMeta3GKVINSt3__112basic_stringIcNS1_11char_traitsIcEENS1_9allocatorIcEEEEE6get_kvEPK12gguf_contexti, symObjAddr: 0x16E60, symBinAddr: 0x93944, symSize: 0x174 }
  - { offset: 0x503DB3, size: 0x8, addend: 0x0, symName: __ZN18llama_model_loader7get_keyI18llama_pooling_typeEEb6llm_kvRT_b, symObjAddr: 0x1C10, symBinAddr: 0x86770, symSize: 0x9C }
  - { offset: 0x5040A5, size: 0x8, addend: 0x0, symName: __ZN18llama_model_loader14get_key_or_arrE6llm_kvRjb, symObjAddr: 0x1CAC, symBinAddr: 0x8680C, symSize: 0x1F4 }
  - { offset: 0x50468E, size: 0x8, addend: 0x0, symName: __ZN18llama_model_loader14get_key_or_arrINSt3__15arrayIiLm4EEEEEb6llm_kvRT_jb, symObjAddr: 0x1EA0, symBinAddr: 0x86A00, symSize: 0xA8 }
  - { offset: 0x50492C, size: 0x8, addend: 0x0, symName: __ZN18llama_model_loader14get_key_or_arrIiLm4EEEbRKNSt3__112basic_stringIcNS1_11char_traitsIcEENS1_9allocatorIcEEEERNS1_5arrayIT_XT0_EEEjb, symObjAddr: 0x1F48, symBinAddr: 0x86AA8, symSize: 0x2F8 }
  - { offset: 0x504F2A, size: 0x8, addend: 0x0, symName: __ZN18llama_model_loader7get_arrIiLm4EEEbRKNSt3__112basic_stringIcNS1_11char_traitsIcEENS1_9allocatorIcEEEERNS1_5arrayIT_XT0_EEEb, symObjAddr: 0x17214, symBinAddr: 0x93CF8, symSize: 0x330 }
  - { offset: 0x5056A4, size: 0x8, addend: 0x0, symName: __ZN18llama_model_loader7get_keyIiEEbRKNSt3__112basic_stringIcNS1_11char_traitsIcEENS1_9allocatorIcEEEERT_b, symObjAddr: 0x5844, symBinAddr: 0x8A300, symSize: 0x154 }
  - { offset: 0x505A54, size: 0x8, addend: 0x0, symName: __ZN18llama_model_loader14get_key_or_arrINSt3__15arrayIjLm512EEEEEb6llm_kvRT_jb, symObjAddr: 0x2240, symBinAddr: 0x86DA0, symSize: 0xA8 }
  - { offset: 0x505CF2, size: 0x8, addend: 0x0, symName: __ZN18llama_model_loader14get_key_or_arrIjLm512EEEbRKNSt3__112basic_stringIcNS1_11char_traitsIcEENS1_9allocatorIcEEEERNS1_5arrayIT_XT0_EEEjb, symObjAddr: 0x22E8, symBinAddr: 0x86E48, symSize: 0x304 }
  - { offset: 0x506389, size: 0x8, addend: 0x0, symName: __ZN18llama_model_loader14get_key_or_arrINSt3__15arrayIfLm512EEEEEb6llm_kvRT_jb, symObjAddr: 0x25EC, symBinAddr: 0x8714C, symSize: 0xA8 }
  - { offset: 0x506627, size: 0x8, addend: 0x0, symName: __ZN18llama_model_loader14get_key_or_arrIfLm512EEEbRKNSt3__112basic_stringIcNS1_11char_traitsIcEENS1_9allocatorIcEEEERNS1_5arrayIT_XT0_EEEjb, symObjAddr: 0x2694, symBinAddr: 0x871F4, symSize: 0x304 }
  - { offset: 0x506CBE, size: 0x8, addend: 0x0, symName: __ZN18llama_model_loader7get_arrIfLm512EEEbRKNSt3__112basic_stringIcNS1_11char_traitsIcEENS1_9allocatorIcEEEERNS1_5arrayIT_XT0_EEEb, symObjAddr: 0x17544, symBinAddr: 0x94028, symSize: 0x2F0 }
  - { offset: 0x509935, size: 0x8, addend: 0x0, symName: __ZN18llama_model_loaderC2EP12gguf_contextPFvP11ggml_tensorPvES4_RKNSt3__112basic_stringIcNS7_11char_traitsIcEENS7_9allocatorIcEEEERNS7_6vectorISD_NSB_ISD_EEEEP7__sFILEbbbbPK23llama_model_kv_overridePK32llama_model_tensor_buft_override, symObjAddr: 0x2998, symBinAddr: 0x874F8, symSize: 0x2CB4 }
  - { offset: 0x5138C4, size: 0x8, addend: 0x0, symName: __ZZNSt3__112__hash_tableINS_17__hash_value_typeINS_12basic_stringIcNS_11char_traitsIcEENS_9allocatorIcEEEE23llama_model_kv_overrideEENS_22__unordered_map_hasherIS7_NS_4pairIKS7_S8_EENS_4hashIS7_EENS_8equal_toIS7_EEEENS_21__unordered_map_equalIS7_SD_SH_SF_EENS5_ISD_EEE16__emplace_uniqueB9nqe220106IJSD_EEENSB_INS_15__hash_iteratorIPNS_11__hash_nodeIS9_PvEEEEbEEDpOT_ENKUlRSC_OSD_E_clESY_SZ_, symObjAddr: 0x17900, symBinAddr: 0x943E4, symSize: 0x3FC }
  - { offset: 0x51426A, size: 0x8, addend: 0x0, symName: __ZN18llama_model_loader19llama_tensor_weightC2EPK10llama_filetPK12gguf_contextP11ggml_tensor, symObjAddr: 0x9A84, symBinAddr: 0x8E530, symSize: 0x1B8 }
  - { offset: 0x514531, size: 0x8, addend: 0x0, symName: __ZZNSt3__16__treeINS_12__value_typeINS_12basic_stringIcNS_11char_traitsIcEENS_9allocatorIcEEEEN18llama_model_loader19llama_tensor_weightEEENS_19__map_value_compareIS7_NS_4pairIKS7_S9_EENS8_20weight_name_comparerEEENS5_ISE_EEE16__emplace_uniqueB9nqe220106IJRS7_S9_EEENSC_INS_15__tree_iteratorISA_PNS_11__tree_nodeISA_PvEElEEbEEDpOT_ENKUlRSD_SK_OS9_E_clESV_SK_SW_, symObjAddr: 0x181B0, symBinAddr: 0x94BA4, symSize: 0x158 }
  - { offset: 0x514A17, size: 0x8, addend: 0x0, symName: __ZN8GGUFMeta3GKVItE17validate_overrideE28llama_model_kv_override_typePK23llama_model_kv_override, symObjAddr: 0x18468, symBinAddr: 0x94E5C, symSize: 0x240 }
  - { offset: 0x514BFC, size: 0x8, addend: 0x0, symName: __ZN8GGUFMeta3GKVItE6get_kvEPK12gguf_contexti, symObjAddr: 0x18368, symBinAddr: 0x94D5C, symSize: 0x100 }
  - { offset: 0x514DDE, size: 0x8, addend: 0x0, symName: __ZN18llama_model_loader7get_keyItEEbRKNSt3__112basic_stringIcNS1_11char_traitsIcEENS1_9allocatorIcEEEERT_b, symObjAddr: 0x564C, symBinAddr: 0x8A1AC, symSize: 0x154 }
  - { offset: 0x5151BD, size: 0x8, addend: 0x0, symName: __ZZNSt3__16vectorINS_12basic_stringIcNS_11char_traitsIcEENS_9allocatorIcEEEENS4_IS6_EEE12emplace_backIJS6_EEERS6_DpOT_ENKUlvE0_clEv, symObjAddr: 0x9D00, symBinAddr: 0x8E6E8, symSize: 0x104 }
  - { offset: 0x515530, size: 0x8, addend: 0x0, symName: __ZZNSt3__16vectorINS_10unique_ptrI10llama_fileNS_14default_deleteIS2_EEEENS_9allocatorIS5_EEE12emplace_backIJPS2_EEERS5_DpOT_ENKUlvE0_clEv, symObjAddr: 0x17EDC, symBinAddr: 0x949C0, symSize: 0xDC }
  - { offset: 0x51585E, size: 0x8, addend: 0x0, symName: __ZNSt3__16vectorINS_10unique_ptrI10llama_fileNS_14default_deleteIS2_EEEENS_9allocatorIS5_EEE20__throw_length_errorB9nqe220106Ev, symObjAddr: 0x17FB8, symBinAddr: 0x94A9C, symSize: 0x14 }
  - { offset: 0x515B2D, size: 0x8, addend: 0x0, symName: __ZNSt3__16__treeINS_12__value_typeI9ggml_typejEENS_19__map_value_compareIS2_NS_4pairIKS2_jEENS_4lessIS2_EEEENS_9allocatorIS7_EEE14__tree_deleterclB9nqe220106EPNS_11__tree_nodeIS3_PvEE, symObjAddr: 0x189E8, symBinAddr: 0x953DC, symSize: 0x4C }
  - { offset: 0x515D84, size: 0x8, addend: 0x0, symName: __ZNSt3__13mapI9ggml_typejNS_4lessIS1_EENS_9allocatorINS_4pairIKS1_jEEEEED1B9nqe220106Ev, symObjAddr: 0x5998, symBinAddr: 0x8A454, symSize: 0x40 }
  - { offset: 0x515E88, size: 0x8, addend: 0x0, symName: __ZNSt3__110unique_ptrINS_11__tree_nodeINS_12__value_typeINS_12basic_stringIcNS_11char_traitsIcEENS_9allocatorIcEEEEN18llama_model_loader19llama_tensor_weightEEEPvEENS_22__tree_node_destructorINS6_ISD_EEEEED1B9nqe220106Ev, symObjAddr: 0x18308, symBinAddr: 0x94CFC, symSize: 0x60 }
  - { offset: 0x51619E, size: 0x8, addend: 0x0, symName: __ZNSt3__13mapIP24ggml_backend_buffer_typeNS_10unique_ptrI12ggml_context20ggml_context_deleterEEN18llama_model_loader28ggml_backend_buft_comparatorENS_9allocatorINS_4pairIKS2_S6_EEEEED1B9nqe220106Ev, symObjAddr: 0x59D8, symBinAddr: 0x8A494, symSize: 0x40 }
  - { offset: 0x5162AF, size: 0x8, addend: 0x0, symName: __ZNSt3__16vectorINS_10unique_ptrI12ggml_context20ggml_context_deleterEENS_9allocatorIS4_EEED1B9nqe220106Ev, symObjAddr: 0x5A18, symBinAddr: 0x8A4D4, symSize: 0x70 }
  - { offset: 0x516490, size: 0x8, addend: 0x0, symName: __ZNSt3__113unordered_mapINS_12basic_stringIcNS_11char_traitsIcEENS_9allocatorIcEEEE23llama_model_kv_overrideNS_4hashIS6_EENS_8equal_toIS6_EENS4_INS_4pairIKS6_S7_EEEEED1B9nqe220106Ev, symObjAddr: 0x5A88, symBinAddr: 0x8A544, symSize: 0x68 }
  - { offset: 0x516880, size: 0x8, addend: 0x0, symName: __ZNSt3__13mapINS_12basic_stringIcNS_11char_traitsIcEENS_9allocatorIcEEEEN18llama_model_loader19llama_tensor_weightENS7_20weight_name_comparerENS4_INS_4pairIKS6_S8_EEEEED1B9nqe220106Ev, symObjAddr: 0x5AF0, symBinAddr: 0x8A5AC, symSize: 0x40 }
  - { offset: 0x516991, size: 0x8, addend: 0x0, symName: __ZNSt3__16vectorINS_10unique_ptrI10llama_mmapNS_14default_deleteIS2_EEEENS_9allocatorIS5_EEED1B9nqe220106Ev, symObjAddr: 0x5B30, symBinAddr: 0x8A5EC, symSize: 0x70 }
  - { offset: 0x516B97, size: 0x8, addend: 0x0, symName: __ZNSt3__16vectorINS_10unique_ptrI10llama_fileNS_14default_deleteIS2_EEEENS_9allocatorIS5_EEED1B9nqe220106Ev, symObjAddr: 0x5BA0, symBinAddr: 0x8A65C, symSize: 0x70 }
  - { offset: 0x516EA6, size: 0x8, addend: 0x0, symName: __ZN8GGUFMeta3GKVIiE17validate_overrideE28llama_model_kv_override_typePK23llama_model_kv_override, symObjAddr: 0x187A8, symBinAddr: 0x9519C, symSize: 0x240 }
  - { offset: 0x51708B, size: 0x8, addend: 0x0, symName: __ZN8GGUFMeta3GKVIiE6get_kvEPK12gguf_contexti, symObjAddr: 0x186A8, symBinAddr: 0x9509C, symSize: 0x100 }
  - { offset: 0x517347, size: 0x8, addend: 0x0, symName: __ZNSt3__16__treeINS_12__value_typeIP24ggml_backend_buffer_typeNS_10unique_ptrI12ggml_context20ggml_context_deleterEEEENS_19__map_value_compareIS3_NS_4pairIKS3_S7_EEN18llama_model_loader28ggml_backend_buft_comparatorEEENS_9allocatorISC_EEE14__tree_deleterclB9nqe220106EPNS_11__tree_nodeIS8_PvEE, symObjAddr: 0x17898, symBinAddr: 0x9437C, symSize: 0x68 }
  - { offset: 0x517A06, size: 0x8, addend: 0x0, symName: __ZNSt3__16__treeINS_12__value_typeINS_12basic_stringIcNS_11char_traitsIcEENS_9allocatorIcEEEEN18llama_model_loader19llama_tensor_weightEEENS_19__map_value_compareIS7_NS_4pairIKS7_S9_EENS8_20weight_name_comparerEEENS5_ISE_EEE14__tree_deleterclB9nqe220106EPNS_11__tree_nodeISA_PvEE, symObjAddr: 0x17834, symBinAddr: 0x94318, symSize: 0x64 }
  - { offset: 0x517F21, size: 0x8, addend: 0x0, symName: __ZN18llama_model_loaderC1EP12gguf_contextPFvP11ggml_tensorPvES4_RKNSt3__112basic_stringIcNS7_11char_traitsIcEENS7_9allocatorIcEEEERNS7_6vectorISD_NSB_ISD_EEEEP7__sFILEbbbbPK23llama_model_kv_overridePK32llama_model_tensor_buft_override, symObjAddr: 0x5C10, symBinAddr: 0x8A6CC, symSize: 0x1C }
  - { offset: 0x518049, size: 0x8, addend: 0x0, symName: __ZNK18llama_model_loader13get_arch_nameEv, symObjAddr: 0x5C2C, symBinAddr: 0x8A6E8, symSize: 0x28 }
  - { offset: 0x51808F, size: 0x8, addend: 0x0, symName: __ZNK18llama_model_loader13get_arch_nameEv, symObjAddr: 0x5C2C, symBinAddr: 0x8A6E8, symSize: 0x28 }
  - { offset: 0x5180C7, size: 0x8, addend: 0x0, symName: __ZNK18llama_model_loader8get_archEv, symObjAddr: 0x5C54, symBinAddr: 0x8A710, symSize: 0x8 }
  - { offset: 0x5181AD, size: 0x8, addend: 0x0, symName: __ZNK18llama_model_loader10get_weightEPKc, symObjAddr: 0x5C5C, symBinAddr: 0x8A718, symSize: 0x150 }
  - { offset: 0x51882E, size: 0x8, addend: 0x0, symName: __ZNK18llama_model_loader20weight_name_comparerclERKNSt3__112basic_stringIcNS1_11char_traitsIcEENS1_9allocatorIcEEEES9_, symObjAddr: 0x180BC, symBinAddr: 0x94AB0, symSize: 0xF4 }
  - { offset: 0x518ABC, size: 0x8, addend: 0x0, symName: __ZNK18llama_model_loader14require_weightEPKc, symObjAddr: 0x5DAC, symBinAddr: 0x8A868, symSize: 0xC4 }
  - { offset: 0x518C40, size: 0x8, addend: 0x0, symName: __ZNK18llama_model_loader15get_tensor_metaEPKc, symObjAddr: 0x5E70, symBinAddr: 0x8A92C, symSize: 0x1C }
  - { offset: 0x518CC6, size: 0x8, addend: 0x0, symName: __ZNK18llama_model_loader19require_tensor_metaERKNSt3__112basic_stringIcNS0_11char_traitsIcEENS0_9allocatorIcEEEE, symObjAddr: 0x5E8C, symBinAddr: 0x8A948, symSize: 0xEC }
  - { offset: 0x518F5C, size: 0x8, addend: 0x0, symName: __ZNK18llama_model_loader17check_tensor_dimsERKNSt3__112basic_stringIcNS0_11char_traitsIcEENS0_9allocatorIcEEEERKNS0_6vectorIxNS4_IxEEEEb, symObjAddr: 0x5F78, symBinAddr: 0x8AA34, symSize: 0x2DC }
  - { offset: 0x519A9A, size: 0x8, addend: 0x0, symName: '__ZZN18llama_model_loader13create_tensorERK13llama_hparamsPKNSt3__16vectorINS3_4pairIP19ggml_backend_deviceP24ggml_backend_buffer_typeEENS3_9allocatorISA_EEEESF_SF_SF_RK11LLM_TN_IMPLRKSt16initializer_listIxEiENK3$_0clES9_', symObjAddr: 0x712C, symBinAddr: 0x8BBE8, symSize: 0x1C4 }
  - { offset: 0x51A01C, size: 0x8, addend: 0x0, symName: __ZNSt3__16vectorINS_10unique_ptrI10llama_mmapNS_14default_deleteIS2_EEEENS_9allocatorIS5_EEE20__throw_length_errorB9nqe220106Ev, symObjAddr: 0x18A48, symBinAddr: 0x95428, symSize: 0x14 }
  - { offset: 0x51A546, size: 0x8, addend: 0x0, symName: __ZNSt3__111basic_regexIcNS_12regex_traitsIcEEEC2B9nqe220106EPKcNS_15regex_constants18syntax_option_typeE, symObjAddr: 0xA61C, symBinAddr: 0x8EF28, symSize: 0xC8 }
  - { offset: 0x51AAF2, size: 0x8, addend: 0x0, symName: __ZL18select_weight_buftRK13llama_hparamsP11ggml_tensor7ggml_opPKNSt3__16vectorINS5_4pairIP19ggml_backend_deviceP24ggml_backend_buffer_typeEENS5_9allocatorISC_EEEE, symObjAddr: 0x9E7C, symBinAddr: 0x8E7EC, symSize: 0x73C }
  - { offset: 0x51B754, size: 0x8, addend: 0x0, symName: '__ZZN18llama_model_loader13create_tensorERK13llama_hparamsPKNSt3__16vectorINS3_4pairIP19ggml_backend_deviceP24ggml_backend_buffer_typeEENS3_9allocatorISA_EEEESF_SF_SF_RK11LLM_TN_IMPLRKSt16initializer_listIxEiENK3$_1clEP11ggml_tensor.cold.1', symObjAddr: 0x1968C, symBinAddr: 0x363B24, symSize: 0x1C }
  - { offset: 0x51BCD7, size: 0x8, addend: 0x0, symName: __ZNSt3__16__treeINS_12__value_typeIP24ggml_backend_buffer_typeNS_10unique_ptrI12ggml_context20ggml_context_deleterEEEENS_19__map_value_compareIS3_NS_4pairIKS3_S7_EEN18llama_model_loader28ggml_backend_buft_comparatorEEENS_9allocatorISC_EEE12__find_equalB9nqe220106IS3_EENSA_IPNS_15__tree_end_nodeIPNS_16__tree_node_baseIPvEEEERSO_EERKT_, symObjAddr: 0x15574, symBinAddr: 0x92840, symSize: 0xBC }
  - { offset: 0x51BE78, size: 0x8, addend: 0x0, symName: __ZN18llama_model_loader21create_tensor_as_viewEP12ggml_contextP11ggml_tensorRKNSt3__112basic_stringIcNS4_11char_traitsIcEENS4_9allocatorIcEEEERKSt16initializer_listIxEmb, symObjAddr: 0x72F0, symBinAddr: 0x8BDAC, symSize: 0x288 }
  - { offset: 0x51C6A2, size: 0x8, addend: 0x0, symName: __ZNK18llama_model_loader20done_getting_tensorsEb, symObjAddr: 0x7578, symBinAddr: 0x8C034, symSize: 0x1D8 }
  - { offset: 0x51D5C5, size: 0x8, addend: 0x0, symName: __ZN18llama_model_loader13init_mappingsEbPNSt3__16vectorINS0_10unique_ptrI11llama_mlockNS0_14default_deleteIS3_EEEENS0_9allocatorIS6_EEEE, symObjAddr: 0x7750, symBinAddr: 0x8C20C, symSize: 0x3F8 }
  - { offset: 0x51E45B, size: 0x8, addend: 0x0, symName: __ZZNSt3__16vectorINS_4pairImmEENS_9allocatorIS2_EEE12emplace_backIJmiEEERS2_DpOT_ENKUlvE0_clEv, symObjAddr: 0x18A70, symBinAddr: 0x9543C, symSize: 0xE4 }
  - { offset: 0x51E7CF, size: 0x8, addend: 0x0, symName: __ZZNSt3__16vectorINS_10unique_ptrI11llama_mlockNS_14default_deleteIS2_EEEENS_9allocatorIS5_EEE12emplace_backIJS5_EEERS5_DpOT_ENKUlvE0_clEv, symObjAddr: 0x18B54, symBinAddr: 0x95520, symSize: 0xE0 }
  - { offset: 0x51E7E4, size: 0x8, addend: 0x0, symName: __ZZNSt3__16vectorINS_10unique_ptrI10llama_mmapNS_14default_deleteIS2_EEEENS_9allocatorIS5_EEE12emplace_backIJS5_EEERS5_DpOT_ENKUlvE0_clEv, symObjAddr: 0x18C48, symBinAddr: 0x95614, symSize: 0xE0 }
  - { offset: 0x51EB29, size: 0x8, addend: 0x0, symName: __ZNSt3__16vectorINS_10unique_ptrI10llama_mmapNS_14default_deleteIS2_EEEENS_9allocatorIS5_EEE20__throw_out_of_rangeB9nqe220106Ev, symObjAddr: 0x18D28, symBinAddr: 0x956F4, symSize: 0x14 }
  - { offset: 0x51EB3E, size: 0x8, addend: 0x0, symName: __ZZNSt3__16vectorINS_10unique_ptrI11llama_mlockNS_14default_deleteIS2_EEEENS_9allocatorIS5_EEE12emplace_backIJS5_EEERS5_DpOT_ENKUlvE0_clEv, symObjAddr: 0x18B54, symBinAddr: 0x95520, symSize: 0xE0 }
  - { offset: 0x51EE83, size: 0x8, addend: 0x0, symName: __ZNSt3__16vectorINS_10unique_ptrI11llama_mlockNS_14default_deleteIS2_EEEENS_9allocatorIS5_EEE20__throw_length_errorB9nqe220106Ev, symObjAddr: 0x18C34, symBinAddr: 0x95600, symSize: 0x14 }
  - { offset: 0x51EE8E, size: 0x8, addend: 0x0, symName: __ZNSt3__16vectorINS_10unique_ptrI10llama_mmapNS_14default_deleteIS2_EEEENS_9allocatorIS5_EEE20__throw_length_errorB9nqe220106Ev, symObjAddr: 0x18A48, symBinAddr: 0x95428, symSize: 0x14 }
  - { offset: 0x51EEBB, size: 0x8, addend: 0x0, symName: __ZZNSt3__16vectorINS_4pairImmEENS_9allocatorIS2_EEE12emplace_backIJmiEEERS2_DpOT_ENKUlvE0_clEv, symObjAddr: 0x18A70, symBinAddr: 0x9543C, symSize: 0xE4 }
  - { offset: 0x51EEC6, size: 0x8, addend: 0x0, symName: __ZNSt3__110unique_ptrI10llama_mmapNS_14default_deleteIS1_EEED1B9nqe220106Ev, symObjAddr: 0x7B84, symBinAddr: 0x8C640, symSize: 0x3C }
  - { offset: 0x51EF5E, size: 0x8, addend: 0x0, symName: __ZNSt3__110unique_ptrI11llama_mlockNS_14default_deleteIS1_EEED1B9nqe220106Ev, symObjAddr: 0x7B48, symBinAddr: 0x8C604, symSize: 0x3C }
  - { offset: 0x51F081, size: 0x8, addend: 0x0, symName: __ZNK18llama_model_loader17get_mapping_rangeEPmS0_PPviP12ggml_context, symObjAddr: 0x7BC0, symBinAddr: 0x8C67C, symSize: 0x134 }
  - { offset: 0x51F316, size: 0x8, addend: 0x0, symName: __ZNK18llama_model_loader13load_data_forEP11ggml_tensor, symObjAddr: 0x7CF4, symBinAddr: 0x8C7B0, symSize: 0x21C }
  - { offset: 0x51F321, size: 0x8, addend: 0x0, symName: __ZNSt3__16vectorINS_10unique_ptrI10llama_mmapNS_14default_deleteIS2_EEEENS_9allocatorIS5_EEE20__throw_out_of_rangeB9nqe220106Ev, symObjAddr: 0x18D28, symBinAddr: 0x956F4, symSize: 0x14 }
  - { offset: 0x51F339, size: 0x8, addend: 0x0, symName: __ZNSt3__16vectorINS_10unique_ptrI10llama_fileNS_14default_deleteIS2_EEEENS_9allocatorIS5_EEE20__throw_out_of_rangeB9nqe220106Ev, symObjAddr: 0x18D3C, symBinAddr: 0x95708, symSize: 0x14 }
  - { offset: 0x51F344, size: 0x8, addend: 0x0, symName: __ZNK18llama_model_loader13load_data_forEP11ggml_tensor, symObjAddr: 0x7CF4, symBinAddr: 0x8C7B0, symSize: 0x21C }
  - { offset: 0x521C3B, size: 0x8, addend: 0x0, symName: __ZZNSt3__16vectorINS_6futureINS_4pairIP11ggml_tensorbEEEENS_9allocatorIS6_EEE12emplace_backIJS6_EEERS6_DpOT_ENKUlvE0_clEv, symObjAddr: 0x190CC, symBinAddr: 0x95A98, symSize: 0x1C0 }
  - { offset: 0x522116, size: 0x8, addend: 0x0, symName: __ZNSt3__16vectorINS_6futureINS_4pairIP11ggml_tensorbEEEENS_9allocatorIS6_EEE20__throw_length_errorB9nqe220106Ev, symObjAddr: 0x1928C, symBinAddr: 0x95C58, symSize: 0x14 }
  - { offset: 0x5221B6, size: 0x8, addend: 0x0, symName: __ZNSt3__113__assoc_stateINS_4pairIP11ggml_tensorbEEE4moveEv, symObjAddr: 0x195AC, symBinAddr: 0x95F78, symSize: 0xCC }
  - { offset: 0x5223DE, size: 0x8, addend: 0x0, symName: __ZNSt3__16vectorINS_10unique_ptrI10llama_fileNS_14default_deleteIS2_EEEENS_9allocatorIS5_EEE20__throw_out_of_rangeB9nqe220106Ev, symObjAddr: 0x18D3C, symBinAddr: 0x95708, symSize: 0x14 }
  - { offset: 0x5223F6, size: 0x8, addend: 0x0, symName: '__ZNSt3__128__exception_guard_exceptionsIZNS_24__make_async_assoc_stateB9nqe220106INS_4pairIP11ggml_tensorbEENS_12__async_funcIZN18llama_model_loader13load_all_dataEP12ggml_contextRNS_13unordered_mapIjP19ggml_backend_bufferNS_4hashIjEENS_8equal_toIjEENS_9allocatorINS2_IKjSC_EEEEEEPNS_6vectorINS_10unique_ptrI11llama_mlockNS_14default_deleteISP_EEEENSH_ISS_EEEEPFbfPvESW_E3$_1JEEEEENS_6futureIT_EEOT0_EUlvE_ED1B9nqe220106Ev', symObjAddr: 0x18D50, symBinAddr: 0x9571C, symSize: 0x3C }
  - { offset: 0x522401, size: 0x8, addend: 0x0, symName: __ZNSt3__16vectorINS_4pairImmEENS_9allocatorIS2_EEE20__throw_out_of_rangeB9nqe220106Ev, symObjAddr: 0x19678, symBinAddr: 0x96044, symSize: 0x14 }
  - { offset: 0x522419, size: 0x8, addend: 0x0, symName: '__ZZN18llama_model_loader13create_tensorERK13llama_hparamsPKNSt3__16vectorINS3_4pairIP19ggml_backend_deviceP24ggml_backend_buffer_typeEENS3_9allocatorISA_EEEESF_SF_SF_RK11LLM_TN_IMPLRKSt16initializer_listIxEiENK3$_1clEP11ggml_tensor.cold.1', symObjAddr: 0x1968C, symBinAddr: 0x363B24, symSize: 0x1C }
  - { offset: 0x522424, size: 0x8, addend: 0x0, symName: __ZNSt3__16vectorINS_10unique_ptrI11llama_mlockNS_14default_deleteIS2_EEEENS_9allocatorIS5_EEE20__throw_out_of_rangeB9nqe220106Ev, symObjAddr: 0x192A0, symBinAddr: 0x95C6C, symSize: 0x14 }
  - { offset: 0x52243C, size: 0x8, addend: 0x0, symName: '__ZNSt3__128__exception_guard_exceptionsIZNS_24__make_async_assoc_stateB9nqe220106INS_4pairIP11ggml_tensorbEENS_12__async_funcIZN18llama_model_loader13load_all_dataEP12ggml_contextRNS_13unordered_mapIjP19ggml_backend_bufferNS_4hashIjEENS_8equal_toIjEENS_9allocatorINS2_IKjSC_EEEEEEPNS_6vectorINS_10unique_ptrI11llama_mlockNS_14default_deleteISP_EEEENSH_ISS_EEEEPFbfPvESW_E3$_2JEEEEENS_6futureIT_EEOT0_EUlvE_ED1B9nqe220106Ev', symObjAddr: 0x192B4, symBinAddr: 0x95C80, symSize: 0x3C }
  - { offset: 0x522447, size: 0x8, addend: 0x0, symName: __ZNSt3__16vectorI7no_initIhENS_9allocatorIS2_EEE20__throw_length_errorB9nqe220106Ev, symObjAddr: 0x19598, symBinAddr: 0x95F64, symSize: 0x14 }
  - { offset: 0x52245F, size: 0x8, addend: 0x0, symName: __ZNSt3__113__assoc_stateINS_4pairIP11ggml_tensorbEEE4moveEv, symObjAddr: 0x195AC, symBinAddr: 0x95F78, symSize: 0xCC }
  - { offset: 0x522474, size: 0x8, addend: 0x0, symName: __ZZNSt3__16vectorIP19ggml_backend_bufferNS_9allocatorIS2_EEE12emplace_backIJRS2_EEES7_DpOT_ENKUlvE0_clEv, symObjAddr: 0x15804, symBinAddr: 0x928FC, symSize: 0xDC }
  - { offset: 0x522765, size: 0x8, addend: 0x0, symName: __ZNSt3__16vectorIP19ggml_backend_bufferNS_9allocatorIS2_EEE20__throw_length_errorB9nqe220106Ev, symObjAddr: 0x158E0, symBinAddr: 0x929D8, symSize: 0x14 }
  - { offset: 0x52277A, size: 0x8, addend: 0x0, symName: __ZZNSt3__16vectorIPvNS_9allocatorIS1_EEE12emplace_backIJS1_EEERS1_DpOT_ENKUlvE0_clEv, symObjAddr: 0x158F4, symBinAddr: 0x929EC, symSize: 0xDC }
  - { offset: 0x522A6B, size: 0x8, addend: 0x0, symName: __ZNSt3__16vectorIPvNS_9allocatorIS1_EEE20__throw_length_errorB9nqe220106Ev, symObjAddr: 0x159D0, symBinAddr: 0x92AC8, symSize: 0x14 }
  - { offset: 0x522A80, size: 0x8, addend: 0x0, symName: __ZZNSt3__16vectorIP18ggml_backend_eventNS_9allocatorIS2_EEE12emplace_backIJRS2_EEES7_DpOT_ENKUlvE0_clEv, symObjAddr: 0x159E4, symBinAddr: 0x92ADC, symSize: 0xDC }
  - { offset: 0x522D71, size: 0x8, addend: 0x0, symName: __ZNSt3__16vectorIP18ggml_backend_eventNS_9allocatorIS2_EEE20__throw_length_errorB9nqe220106Ev, symObjAddr: 0x15AC0, symBinAddr: 0x92BB8, symSize: 0x14 }
  - { offset: 0x522D7C, size: 0x8, addend: 0x0, symName: '__ZNSt3__110unique_ptrINS_5tupleIJNS0_INS_15__thread_structENS_14default_deleteIS2_EEEEMNS_19__async_assoc_stateINS_4pairIP11ggml_tensorbEENS_12__async_funcIZN18llama_model_loader13load_all_dataEP12ggml_contextRNS_13unordered_mapIjP19ggml_backend_bufferNS_4hashIjEENS_8equal_toIjEENS_9allocatorINS7_IKjSH_EEEEEEPNS_6vectorINS0_I11llama_mlockNS3_IST_EEEENSM_ISV_EEEEPFbfPvESZ_E3$_2JEEEEEFvvEPS14_EEENS3_IS18_EEED1B9nqe220106Ev', symObjAddr: 0x19550, symBinAddr: 0x95F1C, symSize: 0x48 }
  - { offset: 0x522F24, size: 0x8, addend: 0x0, symName: __ZNSt3__110unique_ptrINS_15__thread_structENS_14default_deleteIS1_EEED1B9nqe220106Ev, symObjAddr: 0x19090, symBinAddr: 0x95A5C, symSize: 0x3C }
  - { offset: 0x522FBC, size: 0x8, addend: 0x0, symName: '__ZNSt3__128__exception_guard_exceptionsIZNS_24__make_async_assoc_stateB9nqe220106INS_4pairIP11ggml_tensorbEENS_12__async_funcIZN18llama_model_loader13load_all_dataEP12ggml_contextRNS_13unordered_mapIjP19ggml_backend_bufferNS_4hashIjEENS_8equal_toIjEENS_9allocatorINS2_IKjSC_EEEEEEPNS_6vectorINS_10unique_ptrI11llama_mlockNS_14default_deleteISP_EEEENSH_ISS_EEEEPFbfPvESW_E3$_2JEEEEENS_6futureIT_EEOT0_EUlvE_ED1B9nqe220106Ev', symObjAddr: 0x192B4, symBinAddr: 0x95C80, symSize: 0x3C }
  - { offset: 0x523017, size: 0x8, addend: 0x0, symName: '__ZNSt3__110unique_ptrINS_5tupleIJNS0_INS_15__thread_structENS_14default_deleteIS2_EEEEMNS_19__async_assoc_stateINS_4pairIP11ggml_tensorbEENS_12__async_funcIZN18llama_model_loader13load_all_dataEP12ggml_contextRNS_13unordered_mapIjP19ggml_backend_bufferNS_4hashIjEENS_8equal_toIjEENS_9allocatorINS7_IKjSH_EEEEEEPNS_6vectorINS0_I11llama_mlockNS3_IST_EEEENSM_ISV_EEEEPFbfPvESZ_E3$_1JEEEEEFvvEPS14_EEENS3_IS18_EEED1B9nqe220106Ev', symObjAddr: 0x19048, symBinAddr: 0x95A14, symSize: 0x48 }
  - { offset: 0x5231BF, size: 0x8, addend: 0x0, symName: '__ZNSt3__128__exception_guard_exceptionsIZNS_24__make_async_assoc_stateB9nqe220106INS_4pairIP11ggml_tensorbEENS_12__async_funcIZN18llama_model_loader13load_all_dataEP12ggml_contextRNS_13unordered_mapIjP19ggml_backend_bufferNS_4hashIjEENS_8equal_toIjEENS_9allocatorINS2_IKjSC_EEEEEEPNS_6vectorINS_10unique_ptrI11llama_mlockNS_14default_deleteISP_EEEENSH_ISS_EEEEPFbfPvESW_E3$_1JEEEEENS_6futureIT_EEOT0_EUlvE_ED1B9nqe220106Ev', symObjAddr: 0x18D50, symBinAddr: 0x9571C, symSize: 0x3C }
  - { offset: 0x52321A, size: 0x8, addend: 0x0, symName: __ZNSt3__16vectorINS_6futureINS_4pairIP11ggml_tensorbEEEENS_9allocatorIS6_EEED1B9nqe220106Ev, symObjAddr: 0x97D4, symBinAddr: 0x8E290, symSize: 0x88 }
  - { offset: 0x523429, size: 0x8, addend: 0x0, symName: __ZNK18llama_model_loader10ftype_nameEv, symObjAddr: 0x985C, symBinAddr: 0x8E318, symSize: 0xD0 }
  - { offset: 0x5236E0, size: 0x8, addend: 0x0, symName: __ZNK18llama_model_loader10print_infoEv, symObjAddr: 0x992C, symBinAddr: 0x8E3E8, symSize: 0x148 }
  - { offset: 0x5236EB, size: 0x8, addend: 0x0, symName: __ZNK18llama_model_loader10print_infoEv, symObjAddr: 0x992C, symBinAddr: 0x8E3E8, symSize: 0x148 }
  - { offset: 0x5239F9, size: 0x8, addend: 0x0, symName: __ZL18select_weight_buftRK13llama_hparamsP11ggml_tensor7ggml_opPKNSt3__16vectorINS5_4pairIP19ggml_backend_deviceP24ggml_backend_buffer_typeEENS5_9allocatorISC_EEEE, symObjAddr: 0x9E7C, symBinAddr: 0x8E7EC, symSize: 0x73C }
  - { offset: 0x524230, size: 0x8, addend: 0x0, symName: __ZNSt3__111basic_regexIcNS_12regex_traitsIcEEE7__parseIPKcEET_S7_S7_, symObjAddr: 0xA748, symBinAddr: 0x8EFF0, symSize: 0x348 }
  - { offset: 0x525129, size: 0x8, addend: 0x0, symName: __ZNSt3__111basic_regexIcNS_12regex_traitsIcEEE13__parse_egrepIPKcEET_S7_S7_, symObjAddr: 0xB0C4, symBinAddr: 0x8F920, symSize: 0x1A0 }
  - { offset: 0x525678, size: 0x8, addend: 0x0, symName: __ZNSt3__111basic_regexIcNS_12regex_traitsIcEEE24__parse_extended_reg_expIPKcEET_S7_S7_, symObjAddr: 0xADC8, symBinAddr: 0x8F624, symSize: 0x15C }
  - { offset: 0x525998, size: 0x8, addend: 0x0, symName: __ZNSt3__111basic_regexIcNS_12regex_traitsIcEEE12__parse_grepIPKcEET_S7_S7_, symObjAddr: 0xAF24, symBinAddr: 0x8F780, symSize: 0x1A0 }
  - { offset: 0x5259AC, size: 0x8, addend: 0x0, symName: __ZNSt3__111basic_regexIcNS_12regex_traitsIcEEE21__parse_basic_reg_expIPKcEET_S7_S7_, symObjAddr: 0xAC68, symBinAddr: 0x8F4C4, symSize: 0x160 }
  - { offset: 0x525D10, size: 0x8, addend: 0x0, symName: __ZNSt3__111basic_regexIcNS_12regex_traitsIcEEE24__parse_extended_reg_expIPKcEET_S7_S7_, symObjAddr: 0xADC8, symBinAddr: 0x8F624, symSize: 0x15C }
  - { offset: 0x525D24, size: 0x8, addend: 0x0, symName: __ZNSt3__111basic_regexIcNS_12regex_traitsIcEEE12__parse_grepIPKcEET_S7_S7_, symObjAddr: 0xAF24, symBinAddr: 0x8F780, symSize: 0x1A0 }
  - { offset: 0x526273, size: 0x8, addend: 0x0, symName: __ZNSt3__111basic_regexIcNS_12regex_traitsIcEEE19__parse_alternativeIPKcEET_S7_S7_, symObjAddr: 0xB4A4, symBinAddr: 0x8FAC0, symSize: 0xA0 }
  - { offset: 0x5263C0, size: 0x8, addend: 0x0, symName: __ZNSt3__111basic_regexIcNS_12regex_traitsIcEEE16__parse_ecma_expIPKcEET_S7_S7_, symObjAddr: 0xAADC, symBinAddr: 0x8F338, symSize: 0x18C }
  - { offset: 0x5267D8, size: 0x8, addend: 0x0, symName: __ZNSt3__111basic_regexIcNS_12regex_traitsIcEEE12__parse_termIPKcEET_S7_S7_, symObjAddr: 0xB544, symBinAddr: 0x8FB60, symSize: 0x94 }
  - { offset: 0x526A4E, size: 0x8, addend: 0x0, symName: __ZNSt3__111basic_regexIcNS_12regex_traitsIcEEE18__parse_nondupl_REIPKcEET_S7_S7_, symObjAddr: 0x12694, symBinAddr: 0x91EE8, symSize: 0x2F8 }
  - { offset: 0x5270F1, size: 0x8, addend: 0x0, symName: __ZNSt3__111basic_regexIcNS_12regex_traitsIcEEE22__parse_RE_dupl_symbolIPKcEET_S7_S7_PNS_16__owns_one_stateIcEEjj, symObjAddr: 0x1298C, symBinAddr: 0x921E0, symSize: 0x27C }
  - { offset: 0x527105, size: 0x8, addend: 0x0, symName: __ZNSt3__111basic_regexIcNS_12regex_traitsIcEEE22__parse_RE_dupl_symbolIPKcEET_S7_S7_PNS_16__owns_one_stateIcEEjj, symObjAddr: 0x1298C, symBinAddr: 0x921E0, symSize: 0x27C }
  - { offset: 0x5276CA, size: 0x8, addend: 0x0, symName: __ZNSt3__111basic_regexIcNS_12regex_traitsIcEEE22__parse_ERE_expressionIPKcEET_S7_S7_, symObjAddr: 0x12D34, symBinAddr: 0x9245C, symSize: 0x268 }
  - { offset: 0x527B73, size: 0x8, addend: 0x0, symName: __ZNSt3__111basic_regexIcNS_12regex_traitsIcEEE20__parse_ORD_CHAR_EREIPKcEET_S7_S7_, symObjAddr: 0x12F9C, symBinAddr: 0x926C4, symSize: 0x94 }
  - { offset: 0x527C07, size: 0x8, addend: 0x0, symName: __ZNSt3__111basic_regexIcNS_12regex_traitsIcEEE23__parse_ERE_dupl_symbolIPKcEET_S7_S7_PNS_16__owns_one_stateIcEEjj, symObjAddr: 0xBB6C, symBinAddr: 0x90188, symSize: 0x3E4 }
  - { offset: 0x5281AE, size: 0x8, addend: 0x0, symName: __ZNSt3__111basic_regexIcNS_12regex_traitsIcEEE17__parse_assertionIPKcEET_S7_S7_, symObjAddr: 0xB5D8, symBinAddr: 0x8FBF4, symSize: 0x364 }
  - { offset: 0x5287C4, size: 0x8, addend: 0x0, symName: __ZNSt3__111basic_regexIcNS_12regex_traitsIcEEE12__parse_atomIPKcEET_S7_S7_, symObjAddr: 0xB93C, symBinAddr: 0x8FF58, symSize: 0x230 }
  - { offset: 0x528B23, size: 0x8, addend: 0x0, symName: __ZNSt3__111basic_regexIcNS_12regex_traitsIcEEE23__parse_ERE_dupl_symbolIPKcEET_S7_S7_PNS_16__owns_one_stateIcEEjj, symObjAddr: 0xBB6C, symBinAddr: 0x90188, symSize: 0x3E4 }
  - { offset: 0x528F46, size: 0x8, addend: 0x0, symName: __ZNSt3__111basic_regexIcNS_12regex_traitsIcEEE26__parse_bracket_expressionIPKcEET_S7_S7_, symObjAddr: 0xD7A0, symBinAddr: 0x906EC, symSize: 0x160 }
  - { offset: 0x52911E, size: 0x8, addend: 0x0, symName: __ZNSt3__111basic_regexIcNS_12regex_traitsIcEEE19__parse_atom_escapeIPKcEET_S7_S7_, symObjAddr: 0xD620, symBinAddr: 0x9056C, symSize: 0x180 }
  - { offset: 0x5292AF, size: 0x8, addend: 0x0, symName: __ZNSt3__111basic_regexIcNS_12regex_traitsIcEEE26__parse_bracket_expressionIPKcEET_S7_S7_, symObjAddr: 0xD7A0, symBinAddr: 0x906EC, symSize: 0x160 }
  - { offset: 0x5292C3, size: 0x8, addend: 0x0, symName: __ZNSt3__111basic_regexIcNS_12regex_traitsIcEEE25__parse_pattern_characterIPKcEET_S7_S7_, symObjAddr: 0xD94C, symBinAddr: 0x9084C, symSize: 0x7C }
  - { offset: 0x52D666, size: 0x8, addend: 0x0, symName: __ZNSt3__111basic_regexIcNS_12regex_traitsIcEEE30__parse_character_class_escapeIPKcEET_S7_S7_, symObjAddr: 0xDAA4, symBinAddr: 0x908C8, symSize: 0x25C }
